(lp0
(lp1
F0.4442653507152785
aF0.4442653507152785
aF0.4442653507152785
aF0.4442653507152785
aF0.4442653507152785
aF0.4442653507152785
aF0.4442653507152785
aF0.4442653507152785
aa(lp2
F0.1413095033511157
aF0.1413095033511157
aF0.1413095033511157
aF0.1413095033511157
aF0.1413095033511157
aF0.1413095033511157
aF0.1413095033511157
aF0.1413095033511157
aa(lp3
F0.7977378618367418
aF0.7977378618367418
aF0.7977378618367418
aF0.7977378618367418
aF0.7977378618367418
aF0.7977378618367418
aF0.7977378618367418
aF0.7977378618367418
aa.