(dp0
((I1
I0
I0
I0
I1
I1
I1
I1
I1
I1
I1
I1
I1
I1
I1
I1
I1
I1
I1
I0
I0
I0
I0
I0
I0
I0
I0
I0
I0
I1
I0
I1
I0
tp1
S'waiting'
p2
tp3
cnumpy.core.multiarray
scalar
p4
(cnumpy
dtype
p5
(S'f8'
p6
I0
I1
tp7
Rp8
(I3
S'<'
p9
NNNI-1
I-1
I0
tp10
bS'\xd3\r2\xb0\x94-\xc6?'
p11
tp12
Rp13
s((I0
I0
I1
I0
I1
I1
I1
I1
I1
I1
I1
I1
I1
I1
I1
I1
I1
I1
I1
I0
I0
I0
I0
I0
I0
I0
I0
I0
I0
I0
I1
I1
I1
tp14
S'exit-short'
p15
tp16
g4
(g8
S'\x00 }>@1\xc6?'
p17
tp18
Rp19
s((I1
I0
I0
I0
I1
I1
I1
I1
I1
I1
I1
I1
I1
I1
I1
I1
I1
I0
I0
I0
I0
I0
I0
I0
I0
I0
I0
I0
I0
I0
I0
I0
I0
tp20
S'enter-long'
p21
tp22
g4
(g8
S'U_\xdf\x06c(\xf4?'
p23
tp24
Rp25
s((I1
I0
I0
I0
I1
I1
I1
I1
I1
I1
I1
I1
I1
I0
I0
I0
I0
I0
I0
I0
I0
I0
I0
I0
I0
I0
I0
I0
I0
I1
I1
I1
I0
tp26
g2
tp27
g4
(g8
S'\x17\xf9\xfc\x02(\xca\xd3?'
p28
tp29
Rp30
s((I0
I0
I0
I1
I1
I1
I1
I1
I1
I1
I1
I1
I1
I1
I1
I1
I1
I1
I1
I1
I1
I1
I1
I1
I0
I0
I0
I0
I0
I0
I0
I0
I1
tp31
S'completed'
p32
tp33
g4
(g8
S'w\xdfNi\xc6Z\xef?'
p34
tp35
Rp36
s((I0
I0
I1
I0
I1
I1
I1
I1
I1
I0
I0
I0
I0
I0
I0
I0
I0
I0
I0
I0
I0
I0
I0
I0
I0
I0
I0
I0
I0
I0
I0
I0
I0
tp37
S'stay-short'
p38
tp39
g4
(g8
S'\x0bZ\x90@lD\xf0?'
p40
tp41
Rp42
s((I1
I0
I0
I0
I1
I1
I1
I1
I1
I1
I1
I1
I1
I1
I1
I1
I1
I1
I0
I0
I0
I0
I0
I0
I0
I0
I0
I0
I0
I1
I0
I1
I0
tp43
S'enter-short'
p44
tp45
g4
(g8
S'\xf7\x17\x93%r\x13\xc8?'
p46
tp47
Rp48
s((I0
I1
I0
I0
I1
I1
I1
I1
I1
I1
I1
I1
I1
I1
I1
I1
I1
I1
I0
I0
I0
I0
I0
I0
I0
I0
I0
I0
I0
I1
I1
I1
I0
tp49
S'exit-long'
p50
tp51
g4
(g8
S'b\x81V\xb6N1\xe2?'
p52
tp53
Rp54
s((I0
I1
I0
I0
I1
I1
I1
I1
I1
I1
I1
I1
I1
I1
I1
I1
I1
I1
I1
I1
I0
I0
I0
I0
I0
I0
I0
I0
I0
I0
I0
I0
I1
tp55
S'stay-long'
p56
tp57
g4
(g8
S'\x9aqv\xb4\x9d\xf0\xaa?'
p58
tp59
Rp60
s((I1
I0
I0
I0
I1
I1
I1
I1
I1
I1
I1
I1
I1
I1
I1
I1
I1
I1
I1
I1
I1
I1
I1
I1
I1
I1
I1
I1
I1
I0
I1
I0
I1
tp61
S'enter-short'
p62
tp63
g4
(g8
S'\x1as\xcc\x8e{\xb9\x94\xbf'
p64
tp65
Rp66
s((I0
I0
I1
I0
I1
I1
I1
I1
I1
I1
I1
I1
I1
I1
I1
I1
I1
I1
I1
I0
I0
I0
I0
I0
I0
I0
I0
I0
I0
I1
I1
I1
I0
tp67
g38
tp68
g4
(g8
S'\xb3\x1c\xfb\xb3\x10\xd4\x08@'
p69
tp70
Rp71
s((I1
I0
I0
I0
I1
I1
I1
I1
I1
I1
I1
I1
I1
I1
I1
I1
I1
I1
I1
I1
I1
I1
I1
I1
I1
I1
I1
I1
I0
I1
I1
I1
I1
tp72
S'waiting'
p73
tp74
g4
(g8
S"\x90\x14'}3$\xb4?"
p75
tp76
Rp77
s((I1
I0
I0
I0
I1
I1
I1
I1
I1
I1
I1
I1
I1
I1
I1
I1
I1
I1
I1
I1
I1
I1
I1
I0
I0
I0
I0
I0
I0
I0
I0
I0
I0
tp78
S'enter-long'
p79
tp80
g4
(g8
S'\xb2\x10vZ}\xd3\x00@'
p81
tp82
Rp83
s((I1
I0
I0
I0
I1
I1
I1
I1
I1
I1
I1
I1
I1
I1
I1
I1
I1
I1
I1
I0
I0
I0
I0
I0
I0
I0
I0
I0
I0
I1
I1
I1
I1
tp84
S'enter-long'
p85
tp86
g4
(g8
S'\xd1F\x8f\xe4 /\x04@'
p87
tp88
Rp89
s((I0
I1
I0
I0
I1
I1
I1
I1
I1
I1
I1
I1
I1
I1
I1
I1
I1
I1
I1
I1
I1
I1
I1
I1
I1
I1
I1
I1
I0
I0
I0
I0
I0
tp90
S'exit-long'
p91
tp92
g4
(g8
S'\xa8(\xf2\xe1\x9b0\xf2?'
p93
tp94
Rp95
s((I1
I0
I0
I0
I1
I1
I1
I1
I1
I1
I1
I1
I1
I1
I1
I1
I0
I0
I0
I0
I0
I0
I0
I0
I0
I0
I0
I0
I0
I0
I0
I0
I0
tp96
g85
tp97
g4
(g8
S'\xbb\x9f\x03\x17\xdd\xd3\xe8?'
p98
tp99
Rp100
s((I0
I0
I0
I1
I1
I1
I1
I1
I1
I1
I1
I1
I1
I1
I1
I1
I1
I1
I1
I1
I1
I1
I1
I1
I1
I0
I0
I0
I0
I0
I0
I0
I0
tp101
g32
tp102
g4
(g8
S'l\r \x05\xac\x8b\xef?'
p103
tp104
Rp105
s((I0
I0
I1
I0
I1
I1
I1
I1
I1
I1
I1
I1
I1
I0
I0
I0
I0
I0
I0
I0
I0
I0
I0
I0
I0
I0
I0
I0
I0
I1
I1
I1
I1
tp106
S'exit-short'
p107
tp108
g4
(g8
S'\xde\xec\x06?md\xc3?'
p109
tp110
Rp111
s((I0
I0
I1
I0
I1
I1
I1
I1
I1
I1
I1
I1
I1
I1
I1
I1
I1
I1
I1
I1
I1
I1
I1
I1
I0
I0
I0
I0
I0
I0
I1
I0
I0
tp112
S'stay-short'
p113
tp114
g4
(g8
S'\xdcq\x91\xaa\xfc\xd3\x03@'
p115
tp116
Rp117
s((I1
I0
I0
I0
I1
I1
I1
I1
I1
I1
I1
I1
I1
I1
I1
I1
I1
I1
I1
I1
I1
I1
I1
I1
I1
I1
I1
I0
I0
I0
I1
I1
I1
tp118
S'enter-short'
p119
tp120
g4
(g8
S'\xefA\r\x7f\x08\xd1\xd1?'
p121
tp122
Rp123
s((I0
I0
I1
I0
I1
I1
I1
I1
I1
I1
I1
I1
I1
I1
I1
I1
I1
I1
I1
I1
I1
I1
I1
I1
I1
I1
I1
I1
I1
I0
I1
I0
I0
tp124
S'exit-short'
p125
tp126
g4
(g8
S'dD\xc1Mf\xea\xf2?'
p127
tp128
Rp129
s((I0
I0
I0
I1
I1
I1
I1
I1
I1
I1
I1
I1
I1
I1
I1
I1
I1
I1
I1
I1
I1
I1
I1
I1
I1
I1
I1
I0
I0
I1
I1
I1
I1
tp130
g32
tp131
g4
(g8
S'\xf8>WxT}\xf5?'
p132
tp133
Rp134
s((I0
I0
I1
I0
I1
I1
I1
I1
I1
I1
I1
I1
I0
I0
I0
I0
I0
I0
I0
I0
I0
I0
I0
I0
I0
I0
I0
I0
I0
I1
I0
I1
I0
tp135
S'exit-short'
p136
tp137
g4
(g8
S'"\x03\x0fY\x18\x85\xa3?'
p138
tp139
Rp140
s((I0
I1
I0
I0
I1
I1
I1
I1
I1
I1
I1
I1
I1
I1
I1
I1
I1
I0
I0
I0
I0
I0
I0
I0
I0
I0
I0
I0
I0
I1
I1
I1
I1
tp141
g56
tp142
g4
(g8
S'\x84\x064\xdc\x81b\xcf?'
p143
tp144
Rp145
s((I0
I1
I0
I0
I1
I1
I1
I1
I1
I1
I1
I1
I1
I1
I1
I1
I0
I0
I0
I0
I0
I0
I0
I0
I0
I0
I0
I0
I0
I0
I0
I0
I0
tp146
S'stay-long'
p147
tp148
g4
(g8
S'h\x8d\xc3D\x8a;\xc3?'
p149
tp150
Rp151
s((I1
I0
I0
I0
I1
I1
I1
I1
I1
I1
I1
I1
I1
I1
I1
I1
I1
I1
I0
I0
I0
I0
I0
I0
I0
I0
I0
I0
I0
I1
I1
I1
I1
tp152
g62
tp153
g4
(g8
S'\xf5\xe9\x17%\x1c\x1a\x02@'
p154
tp155
Rp156
s((I1
I0
I0
I0
I1
I1
I1
I1
I1
I1
I1
I1
I1
I1
I1
I1
I1
I1
I1
I1
I1
I1
I1
I1
I1
I0
I0
I0
I0
I1
I1
I1
I1
tp157
S'enter-short'
p158
tp159
g4
(g8
S'\xa7UZ)\xc7\xf4\xeb?'
p160
tp161
Rp162
s((I0
I0
I0
I1
I1
I1
I1
I1
I1
I1
I1
I1
I0
I0
I0
I0
I0
I0
I0
I0
I0
I0
I0
I0
I0
I0
I0
I0
I0
I1
I0
I1
I0
tp163
g32
tp164
g4
(g8
S'h\x9e\xfb!\x03(\xa1?'
p165
tp166
Rp167
s((I0
I0
I0
I1
I1
I1
I1
I1
I1
I1
I1
I1
I1
I1
I1
I1
I1
I1
I1
I1
I1
I1
I1
I1
I1
I1
I1
I1
I0
I0
I1
I1
I1
tp168
g32
tp169
g4
(g8
S'\x0b\x90\xda\xde\x14\x15\xf6?'
p170
tp171
Rp172
s((I1
I0
I0
I0
I1
I1
I1
I1
I1
I1
I1
I1
I1
I1
I0
I0
I0
I0
I0
I0
I0
I0
I0
I0
I0
I0
I0
I0
I0
I1
I1
I1
I0
tp173
S'waiting'
p174
tp175
g4
(g8
S'9v\xc2\x8eM:\x03@'
p176
tp177
Rp178
s((I1
I0
I0
I0
I1
I1
I1
I1
I1
I1
I1
I1
I1
I1
I1
I1
I1
I1
I1
I1
I1
I1
I1
I1
I1
I1
I0
I0
I0
I1
I1
I1
I0
tp179
g21
tp180
g4
(g8
S'\xdd\xd5\xfe\t\xb4B\xe1?'
p181
tp182
Rp183
s((I1
I0
I0
I0
I1
I1
I1
I1
I1
I1
I1
I1
I1
I1
I1
I1
I1
I1
I1
I1
I1
I1
I1
I1
I1
I1
I1
I0
I0
I1
I0
I1
I0
tp184
g73
tp185
g4
(g8
S'\x99\xeeyi2\xdc\x00@'
p186
tp187
Rp188
s((I1
I0
I0
I0
I1
I1
I1
I1
I1
I1
I1
I1
I0
I0
I0
I0
I0
I0
I0
I0
I0
I0
I0
I0
I0
I0
I0
I0
I0
I0
I0
I0
I0
tp189
g73
tp190
g4
(g8
S'\xc0\xd3\x13b\xfd\xc9\xff?'
p191
tp192
Rp193
s((I0
I0
I1
I0
I1
I1
I1
I1
I1
I1
I1
I1
I1
I1
I0
I0
I0
I0
I0
I0
I0
I0
I0
I0
I0
I0
I0
I0
I0
I1
I0
I0
I0
tp194
g38
tp195
g4
(g8
S'\xdc\x08\xbc@\xe7\x85\x05@'
p196
tp197
Rp198
s((I1
I0
I0
I0
I1
I1
I1
I1
I1
I1
I1
I1
I1
I0
I0
I0
I0
I0
I0
I0
I0
I0
I0
I0
I0
I0
I0
I0
I0
I1
I0
I0
I0
tp199
g73
tp200
g4
(g8
S'|\x1f\x88\x1c\xa1\x07\xdc?'
p201
tp202
Rp203
s((I0
I1
I0
I0
I1
I1
I1
I1
I1
I1
I1
I1
I1
I1
I1
I1
I1
I1
I0
I0
I0
I0
I0
I0
I0
I0
I0
I0
I0
I0
I0
I1
I0
tp204
g50
tp205
g4
(g8
S'C**\xcf&\x00\xd5?'
p206
tp207
Rp208
s((I0
I0
I0
I1
I1
I1
I1
I1
I1
I1
I1
I1
I1
I1
I1
I1
I1
I1
I1
I1
I1
I1
I1
I1
I1
I1
I1
I1
I0
I1
I1
I1
I1
tp209
g32
tp210
g4
(g8
S'7|\x93\x87\x85X\xf9?'
p211
tp212
Rp213
s((I0
I0
I0
I1
I1
I1
I1
I1
I1
I1
I1
I1
I1
I1
I1
I1
I1
I1
I1
I0
I0
I0
I0
I0
I0
I0
I0
I0
I0
I0
I0
I0
I1
tp214
g32
tp215
g4
(g8
S'\x18\xe6\xeae\xab\x97\xe6?'
p216
tp217
Rp218
s((I0
I0
I0
I1
I1
I1
I1
I1
I1
I1
I1
I1
I1
I1
I1
I1
I1
I1
I1
I1
I1
I1
I0
I0
I0
I0
I0
I0
I0
I0
I0
I0
I1
tp219
S'completed'
p220
tp221
g4
(g8
S'\x9c\x9f\xe9# &\xe8?'
p222
tp223
Rp224
s((I1
I0
I0
I0
I1
I1
I1
I1
I1
I1
I1
I1
I1
I1
I1
I1
I1
I1
I1
I1
I1
I1
I1
I1
I0
I0
I0
I0
I0
I1
I0
I1
I0
tp225
S'enter-short'
p226
tp227
g4
(g8
S'\x06\x11\xbc\xbf\xdc=\xdb?'
p228
tp229
Rp230
s((I0
I1
I0
I0
I1
I1
I1
I1
I1
I1
I1
I1
I1
I1
I1
I1
I1
I1
I1
I1
I0
I0
I0
I0
I0
I0
I0
I0
I0
I1
I1
I1
I0
tp231
S'exit-long'
p232
tp233
g4
(g8
S'\xdf\x93b@\xb7\xce\xa3?'
p234
tp235
Rp236
s((I0
I1
I0
I0
I1
I1
I1
I1
I1
I1
I1
I1
I1
I1
I1
I1
I1
I1
I1
I1
I1
I1
I1
I1
I1
I0
I0
I0
I0
I0
I0
I0
I0
tp237
g56
tp238
g4
(g8
S'\x9a\xf0\x9e;\x84+\xff?'
p239
tp240
Rp241
s((I0
I0
I1
I0
I1
I1
I1
I1
I1
I1
I1
I1
I1
I1
I0
I0
I0
I0
I0
I0
I0
I0
I0
I0
I0
I0
I0
I0
I0
I1
I1
I1
I0
tp242
g136
tp243
g4
(g8
S'\xd2\xde>$5\xa6\xf1?'
p244
tp245
Rp246
s((I1
I0
I0
I0
I0
I0
I0
I0
I0
I0
I0
I0
I0
I0
I0
I0
I0
I0
I0
I0
I0
I0
I0
I0
I0
I0
I0
I0
I0
I1
I1
I1
I1
tp247
S'waiting'
p248
tp249
g4
(g8
S'\x03\x92^\xa0\x84\xa0\xff?'
p250
tp251
Rp252
s((I0
I1
I0
I0
I1
I1
I1
I1
I1
I1
I1
I1
I1
I1
I1
I1
I1
I1
I1
I1
I1
I1
I1
I1
I1
I1
I1
I0
I0
I0
I1
I1
I1
tp253
g56
tp254
g4
(g8
S's\xda\xfai\xf9$\xea?'
p255
tp256
Rp257
s((I1
I0
I0
I0
I1
I1
I1
I1
I1
I1
I1
I1
I1
I1
I1
I1
I1
I1
I1
I1
I1
I1
I1
I0
I0
I0
I0
I0
I0
I1
I1
I1
I1
tp258
g21
tp259
g4
(g8
S'\x8exf\x05\x8e(\x05@'
p260
tp261
Rp262
s((I1
I0
I0
I0
I1
I1
I1
I1
I1
I1
I1
I1
I1
I1
I1
I1
I0
I0
I0
I0
I0
I0
I0
I0
I0
I0
I0
I0
I0
I1
I1
I1
I1
tp263
g119
tp264
g4
(g8
S'\xf2e\xd1\x85\xf6\x82\x01@'
p265
tp266
Rp267
s((I0
I0
I1
I0
I1
I1
I1
I1
I1
I1
I1
I1
I1
I1
I1
I1
I1
I1
I1
I1
I1
I1
I1
I0
I0
I0
I0
I0
I0
I0
I0
I0
I0
tp268
g38
tp269
g4
(g8
S'\xc2\xe5\xb7C\xf76\x08@'
p270
tp271
Rp272
s((I0
I0
I1
I0
I1
I1
I1
I1
I1
I1
I1
I1
I1
I1
I1
I1
I1
I1
I1
I1
I1
I1
I1
I1
I1
I1
I1
I1
I1
I0
I1
I1
I0
tp273
S'stay-short'
p274
tp275
g4
(g8
S'5\xd3S\xa4\xc3\xf5\x0b@'
p276
tp277
Rp278
s((I1
I0
I0
I0
I0
I0
I0
I0
I0
I0
I0
I0
I0
I0
I0
I0
I0
I0
I0
I0
I0
I0
I0
I0
I0
I0
I0
I0
I0
I0
I0
I0
I1
tp279
g248
tp280
g4
(g8
S's\x9d\xda\xf9F\x91\xf7?'
p281
tp282
Rp283
s((I1
I0
I0
I0
I1
I1
I1
I1
I1
I1
I1
I1
I0
I0
I0
I0
I0
I0
I0
I0
I0
I0
I0
I0
I0
I0
I0
I0
I0
I1
I1
I1
I0
tp284
g119
tp285
g4
(g8
S'XQ\x81r\xaeF\xd8?'
p286
tp287
Rp288
s((I0
I0
I0
I1
I1
I1
I1
I1
I1
I1
I1
I1
I1
I0
I0
I0
I0
I0
I0
I0
I0
I0
I0
I0
I0
I0
I0
I0
I0
I1
I0
I1
I0
tp289
g32
tp290
g4
(g8
S'F\x1a>z\xdeS\xf4?'
p291
tp292
Rp293
s((I1
I0
I0
I0
I1
I1
I1
I1
I1
I1
I1
I1
I0
I0
I0
I0
I0
I0
I0
I0
I0
I0
I0
I0
I0
I0
I0
I0
I0
I1
I0
I1
I0
tp294
g248
tp295
F0.038461538461538464
s((I0
I0
I1
I0
I1
I1
I1
I1
I1
I1
I1
I1
I1
I1
I1
I1
I1
I1
I1
I1
I1
I1
I1
I1
I1
I1
I1
I1
I1
I1
I0
I0
I0
tp296
g15
tp297
g4
(g8
S'\x03\xb4\xbf\x99\xf7\xaf\xf8?'
p298
tp299
Rp300
s((I0
I1
I0
I0
I1
I1
I1
I1
I1
I1
I1
I1
I0
I0
I0
I0
I0
I0
I0
I0
I0
I0
I0
I0
I0
I0
I0
I0
I0
I1
I1
I1
I1
tp301
g50
tp302
g4
(g8
S'"-\xafp7\x9b\xf0?'
p303
tp304
Rp305
s((I1
I0
I0
I0
I1
I1
I1
I1
I1
I1
I1
I1
I1
I1
I1
I1
I1
I1
I1
I1
I0
I0
I0
I0
I0
I0
I0
I0
I0
I0
I0
I0
I0
tp306
g21
tp307
g4
(g8
S'\x14WA0\x81a\xc3?'
p308
tp309
Rp310
s((I1
I0
I0
I0
I1
I1
I1
I1
I1
I1
I1
I1
I1
I1
I1
I1
I1
I1
I1
I1
I1
I1
I1
I0
I0
I0
I0
I0
I0
I1
I1
I0
I1
tp311
g119
tp312
g4
(g8
S'N\x9ds\xbf\xaf\x7f\x08@'
p313
tp314
Rp315
s((I0
I1
I0
I0
I1
I1
I1
I1
I1
I1
I1
I1
I1
I1
I1
I1
I1
I1
I1
I1
I1
I1
I1
I1
I1
I1
I1
I1
I1
I1
I0
I1
I0
tp316
S'exit-long'
p317
tp318
g4
(g8
S"=v\x84\xec'f\xff?"
p319
tp320
Rp321
s((I0
I0
I1
I0
I1
I1
I1
I1
I1
I0
I0
I0
I0
I0
I0
I0
I0
I0
I0
I0
I0
I0
I0
I0
I0
I0
I0
I0
I0
I0
I0
I0
I1
tp322
g38
tp323
g4
(g8
S'\xbd\xc2\xaa\xd1\xf2\x85\xa6?'
p324
tp325
Rp326
s((I0
I0
I1
I0
I1
I1
I1
I1
I1
I1
I1
I1
I1
I1
I1
I1
I1
I1
I1
I1
I1
I1
I1
I0
I0
I0
I0
I0
I0
I1
I0
I0
I0
tp327
g107
tp328
g4
(g8
S'\x9cf7\xc2\xd9\x05\xd6?'
p329
tp330
Rp331
s((I0
I0
I1
I0
I1
I1
I1
I1
I1
I1
I1
I1
I1
I1
I1
I1
I1
I1
I1
I1
I0
I0
I0
I0
I0
I0
I0
I0
I0
I0
I0
I0
I1
tp332
g15
tp333
g4
(g8
S'\x9c\x9d\xb7o\xdev\xf0?'
p334
tp335
Rp336
s((I1
I0
I0
I0
I1
I1
I1
I1
I1
I1
I1
I1
I1
I1
I1
I1
I1
I1
I1
I1
I1
I1
I1
I1
I1
I1
I1
I1
I0
I1
I1
I1
I0
tp337
g21
tp338
g4
(g8
S'f\x83\xc2\xfd\xbea\xe0?'
p339
tp340
Rp341
s((I1
I0
I0
I0
I0
I0
I0
I0
I0
I0
I0
I0
I0
I0
I0
I0
I0
I0
I0
I0
I0
I0
I0
I0
I0
I0
I0
I0
I0
I0
I1
I0
I1
tp342
g85
tp343
g4
(g8
S'\xff\xa5\x14\xcf~\xd2\xf2?'
p344
tp345
Rp346
s((I0
I0
I1
I0
I1
I1
I1
I1
I1
I1
I1
I1
I1
I1
I1
I1
I1
I1
I1
I1
I1
I1
I1
I1
I0
I0
I0
I0
I0
I1
I1
I1
I1
tp347
g38
tp348
g4
(g8
S'X\x98\x84i\xe7W\xdb?'
p349
tp350
Rp351
s((I0
I1
I0
I0
I1
I1
I1
I1
I1
I1
I1
I1
I1
I1
I1
I1
I1
I1
I1
I1
I1
I1
I1
I1
I1
I1
I1
I1
I1
I0
I1
I0
I1
tp352
S'stay-long'
p353
tp354
g4
(g8
S'\xc8Z\x8fP\xbbE\x06@'
p355
tp356
Rp357
s((I0
I1
I0
I0
I1
I1
I1
I1
I1
I1
I1
I1
I0
I0
I0
I0
I0
I0
I0
I0
I0
I0
I0
I0
I0
I0
I0
I0
I0
I0
I0
I0
I0
tp358
g147
tp359
g4
(g8
S'\xda\x1a\xfbA\xa0n\x00@'
p360
tp361
Rp362
s((I0
I1
I0
I0
I1
I1
I1
I1
I1
I0
I0
I0
I0
I0
I0
I0
I0
I0
I0
I0
I0
I0
I0
I0
I0
I0
I0
I0
I0
I0
I1
I0
I1
tp363
g56
tp364
g4
(g8
S'\x83\xe6\xb2vg\x92\xf4?'
p365
tp366
Rp367
s((I0
I0
I0
I1
I1
I1
I1
I1
I1
I1
I1
I1
I1
I1
I1
I1
I1
I1
I1
I0
I0
I0
I0
I0
I0
I0
I0
I0
I0
I1
I0
I1
I0
tp368
g32
tp369
g4
(g8
S'\x11\x0ekV\xde\xf9\xf4?'
p370
tp371
Rp372
s((I0
I1
I0
I0
I1
I1
I1
I1
I1
I1
I1
I1
I1
I1
I1
I1
I1
I1
I1
I1
I1
I1
I1
I0
I0
I0
I0
I0
I0
I0
I0
I0
I0
tp373
g147
tp374
g4
(g8
S'\xbbqX\xda\x7f\x80\xfb?'
p375
tp376
Rp377
s((I0
I0
I1
I0
I1
I1
I1
I1
I1
I1
I1
I1
I1
I1
I1
I1
I1
I1
I1
I1
I1
I1
I1
I1
I0
I0
I0
I0
I0
I0
I0
I1
I0
tp378
g15
tp379
g4
(g8
S'g\xef\xb0\xdd-\xcd\xf3?'
p380
tp381
Rp382
s((I0
I1
I0
I0
I1
I1
I1
I1
I1
I1
I1
I1
I1
I1
I1
I1
I1
I1
I1
I1
I1
I1
I1
I1
I0
I0
I0
I0
I0
I0
I0
I0
I1
tp383
g56
tp384
g4
(g8
S'\xc4\xab\x9e\xad:b\xde?'
p385
tp386
Rp387
s((I1
I0
I0
I0
I1
I1
I1
I1
I1
I1
I1
I1
I1
I1
I1
I1
I1
I1
I1
I1
I1
I1
I1
I1
I0
I0
I0
I0
I0
I0
I0
I0
I0
tp388
S'enter-long'
p389
tp390
g4
(g8
S'?J\x88\x1c\xbc;\xe0?'
p391
tp392
Rp393
s((I0
I0
I1
I0
I1
I1
I1
I1
I1
I1
I1
I1
I1
I1
I1
I1
I1
I1
I1
I1
I1
I1
I1
I1
I1
I1
I0
I0
I0
I1
I1
I1
I0
tp394
g107
tp395
g4
(g8
S'\x9e\x88/0\xce\xb1\xe5?'
p396
tp397
Rp398
s((I0
I0
I1
I0
I1
I1
I1
I1
I1
I1
I1
I1
I1
I1
I1
I1
I1
I1
I1
I1
I1
I1
I1
I1
I1
I1
I1
I0
I0
I0
I0
I0
I0
tp399
g38
tp400
g4
(g8
S'\x88\xf1\x98\xf3)]\n@'
p401
tp402
Rp403
s((I0
I0
I1
I0
I1
I1
I1
I1
I1
I1
I1
I1
I1
I0
I0
I0
I0
I0
I0
I0
I0
I0
I0
I0
I0
I0
I0
I0
I0
I1
I0
I1
I0
tp404
g15
tp405
g4
(g8
S'\xcd\x0bC\xed\x17\n\xf5?'
p406
tp407
Rp408
s((I1
I0
I0
I0
I1
I1
I1
I1
I1
I1
I1
I1
I1
I1
I1
I1
I1
I1
I1
I1
I1
I1
I1
I0
I0
I0
I0
I0
I0
I1
I0
I0
I0
tp409
g158
tp410
g4
(g8
S'\xd2\xf0#\xde\x06\xc8\xdd?'
p411
tp412
Rp413
s((I1
I0
I0
I0
I0
I0
I0
I0
I0
I0
I0
I0
I0
I0
I0
I0
I0
I0
I0
I0
I0
I0
I0
I0
I0
I0
I0
I0
I0
I1
I0
I1
I0
tp414
g248
tp415
g4
(g8
S'wZ4\x16_`\xff?'
p416
tp417
Rp418
s((I0
I0
I1
I0
I1
I1
I1
I1
I1
I1
I1
I1
I1
I1
I1
I1
I1
I1
I1
I1
I1
I1
I1
I0
I0
I0
I0
I0
I0
I1
I1
I1
I0
tp419
g38
tp420
g4
(g8
S"?\xeaf'\xc9\xd8\x06@"
p421
tp422
Rp423
s((I0
I0
I1
I0
I1
I1
I1
I1
I1
I1
I1
I1
I1
I1
I0
I0
I0
I0
I0
I0
I0
I0
I0
I0
I0
I0
I0
I0
I0
I0
I1
I0
I1
tp424
g38
tp425
g4
(g8
S'\xbd\x8e\x1c\xbb\x89\xab\x8d?'
p426
tp427
Rp428
s((I0
I0
I1
I0
I1
I1
I1
I1
I1
I1
I1
I1
I1
I1
I1
I1
I1
I1
I0
I0
I0
I0
I0
I0
I0
I0
I0
I0
I0
I0
I1
I1
I1
tp429
g113
tp430
g4
(g8
S'\x9b\xa4\xa9\xe5)\x9c\xc5?'
p431
tp432
Rp433
s((I0
I1
I0
I0
I1
I1
I1
I1
I1
I0
I0
I0
I0
I0
I0
I0
I0
I0
I0
I0
I0
I0
I0
I0
I0
I0
I0
I0
I0
I0
I0
I0
I0
tp434
g147
tp435
g4
(g8
S'\xb2\xa2\x8c\x80\xdb\x1a\x01@'
p436
tp437
Rp438
s((I0
I1
I0
I0
I1
I1
I1
I1
I1
I1
I1
I1
I1
I0
I0
I0
I0
I0
I0
I0
I0
I0
I0
I0
I0
I0
I0
I0
I0
I1
I0
I0
I0
tp439
g232
tp440
g4
(g8
S'\xacC\xd6AJ\xa8\xc7?'
p441
tp442
Rp443
s((I0
I1
I0
I0
I1
I1
I1
I1
I1
I1
I1
I1
I1
I1
I1
I1
I1
I1
I1
I1
I1
I1
I1
I1
I1
I1
I0
I0
I0
I0
I0
I0
I1
tp444
g56
tp445
g4
(g8
S'\xf9\x89h\xe9\xbe\xfd\xaa?'
p446
tp447
Rp448
s((I1
I0
I0
I0
I0
I0
I0
I0
I0
I0
I0
I0
I0
I0
I0
I0
I0
I0
I0
I0
I0
I0
I0
I0
I0
I0
I0
I0
I0
I0
I0
I0
I0
tp449
g85
tp450
g4
(g8
S'\xabY\x93\x94f\x8a\xfe?'
p451
tp452
Rp453
s((I0
I0
I1
I0
I1
I1
I1
I1
I1
I1
I1
I1
I1
I1
I1
I1
I1
I1
I1
I1
I1
I1
I1
I1
I1
I1
I1
I1
I1
I1
I0
I0
I1
tp454
g113
tp455
g4
(g8
S'T\x19\x1c\xc6\tl\xf2?'
p456
tp457
Rp458
s((I0
I0
I0
I1
I1
I1
I1
I1
I1
I1
I1
I1
I1
I1
I1
I1
I1
I1
I1
I1
I1
I1
I1
I1
I1
I1
I1
I1
I1
I1
I0
I0
I1
tp459
g32
tp460
g4
(g8
S'$\xdac\x06\x055\x00@'
p461
tp462
Rp463
s((I1
I0
I0
I0
I1
I1
I1
I1
I1
I1
I1
I1
I1
I1
I1
I1
I1
I1
I1
I1
I1
I1
I1
I1
I1
I1
I0
I0
I0
I1
I1
I1
I0
tp464
g158
tp465
g4
(g8
S'\x0b\xca\x1b\xe0F\x0f\x05@'
p466
tp467
Rp468
s((I0
I0
I1
I0
I1
I1
I1
I1
I1
I0
I0
I0
I0
I0
I0
I0
I0
I0
I0
I0
I0
I0
I0
I0
I0
I0
I0
I0
I0
I0
I0
I0
I0
tp469
g15
tp470
g4
(g8
S'\xc3\xfb\xd2\xc30\x0f\xe6?'
p471
tp472
Rp473
s((I0
I0
I1
I0
I1
I1
I1
I1
I1
I1
I1
I1
I1
I1
I1
I1
I1
I1
I1
I1
I1
I1
I1
I1
I1
I1
I1
I1
I0
I0
I1
I0
I0
tp474
g125
tp475
g4
(g8
S'\x83\x1c\xddl\xf3M\xd3?'
p476
tp477
Rp478
s((I0
I0
I1
I0
I1
I1
I1
I1
I1
I1
I1
I1
I1
I1
I1
I1
I1
I1
I1
I1
I1
I1
I1
I0
I0
I0
I0
I0
I0
I0
I0
I0
I1
tp479
g125
tp480
g4
(g8
S'w\x97g\x10\x02\x9b\xcd?'
p481
tp482
Rp483
s((I1
I0
I0
I0
I1
I1
I1
I1
I1
I1
I1
I1
I1
I1
I1
I1
I1
I1
I0
I0
I0
I0
I0
I0
I0
I0
I0
I0
I0
I0
I0
I0
I0
tp484
g174
tp485
g4
(g8
S'\xa6^\xb3\x8e\xfd\xb9\xd0?'
p486
tp487
Rp488
s((I1
I0
I0
I0
I1
I1
I1
I1
I1
I1
I1
I1
I1
I1
I1
I1
I1
I1
I1
I1
I1
I1
I1
I1
I1
I1
I1
I0
I0
I1
I0
I0
I0
tp489
g389
tp490
g4
(g8
S'\x06;\xbf~\x90*\x01@'
p491
tp492
Rp493
s((I0
I0
I0
I1
I1
I1
I1
I1
I1
I1
I1
I1
I1
I1
I1
I1
I1
I1
I1
I1
I1
I1
I1
I0
I0
I0
I0
I0
I0
I1
I1
I1
I0
tp494
g32
tp495
g4
(g8
S'\x04\xe2\xf7\xca\x7f\xc4\x05@'
p496
tp497
Rp498
s((I1
I0
I0
I0
I1
I1
I1
I1
I1
I0
I0
I0
I0
I0
I0
I0
I0
I0
I0
I0
I0
I0
I0
I0
I0
I0
I0
I0
I0
I1
I0
I1
I0
tp499
g248
tp500
g4
(g8
S'\x80\xd4\xbc\x19\xbb\xec\x01@'
p501
tp502
Rp503
s((I1
I0
I0
I0
I1
I1
I1
I1
I0
I0
I0
I0
I0
I0
I0
I0
I0
I0
I0
I0
I0
I0
I0
I0
I0
I0
I0
I0
I0
I0
I0
I1
I0
tp504
g85
tp505
g4
(g8
S'YXRO\x95\x18\xe1?'
p506
tp507
Rp508
s((I0
I0
I1
I0
I1
I1
I1
I1
I1
I0
I0
I0
I0
I0
I0
I0
I0
I0
I0
I0
I0
I0
I0
I0
I0
I0
I0
I0
I0
I0
I0
I1
I0
tp509
g38
tp510
g4
(g8
S'\x95{\x90"@$\xd5?'
p511
tp512
Rp513
s((I1
I0
I0
I0
I1
I1
I1
I1
I1
I0
I0
I0
I0
I0
I0
I0
I0
I0
I0
I0
I0
I0
I0
I0
I0
I0
I0
I0
I0
I0
I0
I0
I0
tp514
g248
tp515
g4
(g8
S' N\xbdQ"E\xf9?'
p516
tp517
Rp518
s((I0
I0
I0
I1
I1
I1
I1
I1
I1
I1
I1
I1
I1
I1
I1
I1
I1
I1
I1
I1
I0
I0
I0
I0
I0
I0
I0
I0
I0
I0
I0
I0
I1
tp519
g32
tp520
g4
(g8
S'\x80_\xacN \xb7\xf0?'
p521
tp522
Rp523
s((I0
I0
I0
I1
I1
I1
I1
I1
I1
I1
I1
I1
I1
I1
I1
I1
I1
I1
I1
I1
I0
I0
I0
I0
I0
I0
I0
I0
I0
I0
I0
I0
I0
tp524
g32
tp525
g4
(g8
S'\x88\x07\xc0\xbb\xcfb\xf0?'
p526
tp527
Rp528
s((I1
I0
I0
I0
I1
I1
I1
I1
I1
I1
I1
I1
I1
I1
I1
I1
I1
I1
I0
I0
I0
I0
I0
I0
I0
I0
I0
I0
I0
I1
I0
I0
I0
tp529
g73
tp530
g4
(g8
S'\x93,\xe2\x9e\x16\x92\xfc?'
p531
tp532
Rp533
s((I1
I0
I0
I0
I1
I1
I1
I1
I1
I1
I1
I1
I1
I1
I0
I0
I0
I0
I0
I0
I0
I0
I0
I0
I0
I0
I0
I0
I0
I0
I0
I1
I0
tp534
g248
tp535
g4
(g8
S'*k\xfc\x8b\xe9&\xf6?'
p536
tp537
Rp538
s((I0
I1
I0
I0
I1
I1
I1
I1
I1
I1
I1
I1
I1
I1
I1
I1
I1
I1
I1
I1
I1
I1
I1
I1
I1
I1
I1
I1
I1
I0
I0
I1
I0
tp539
g56
tp540
g4
(g8
S'\x03\xc8AL\xe9\x97\xf0?'
p541
tp542
Rp543
s((I0
I1
I0
I0
I1
I1
I1
I1
I1
I1
I1
I1
I1
I1
I1
I1
I1
I1
I1
I1
I1
I1
I1
I1
I1
I1
I1
I1
I1
I0
I1
I1
I0
tp544
g147
tp545
g4
(g8
S'\x9c\xbei\x97}\xa7\x03@'
p546
tp547
Rp548
s((I1
I0
I0
I0
I1
I1
I1
I1
I1
I1
I1
I1
I1
I1
I1
I1
I1
I1
I1
I1
I1
I1
I1
I1
I1
I1
I1
I0
I0
I0
I0
I0
I0
tp549
g62
tp550
g4
(g8
S'\xe1\xf9\x92}\x1a\x1a\xe2?'
p551
tp552
Rp553
s((I0
I0
I1
I0
I1
I1
I1
I1
I1
I1
I1
I1
I1
I1
I1
I1
I1
I1
I1
I1
I1
I0
I0
I0
I0
I0
I0
I0
I0
I1
I1
I1
I1
tp554
g274
tp555
g4
(g8
S'\xc6\x1d1:r\x9e\xd6?'
p556
tp557
Rp558
s((I0
I0
I1
I0
I1
I1
I1
I1
I1
I1
I1
I1
I1
I1
I1
I1
I1
I1
I1
I1
I1
I1
I1
I1
I1
I1
I1
I1
I0
I0
I0
I0
I1
tp559
g107
tp560
g4
(g8
S'2 3\x9a\xaa[\xaa?'
p561
tp562
Rp563
s((I0
I1
I0
I0
I1
I1
I1
I1
I1
I1
I1
I1
I0
I0
I0
I0
I0
I0
I0
I0
I0
I0
I0
I0
I0
I0
I0
I0
I0
I1
I0
I1
I0
tp564
g91
tp565
g4
(g8
S'\xf1\x0fV\x8a;\xfe\xf3?'
p566
tp567
Rp568
s((I0
I0
I0
I1
I1
I1
I1
I1
I1
I1
I1
I1
I1
I1
I1
I1
I1
I1
I1
I1
I1
I1
I1
I1
I0
I0
I0
I0
I0
I0
I0
I1
I0
tp569
g32
tp570
g4
(g8
S'\x15}\x8f\x8b\xe2\x10\xf2?'
p571
tp572
Rp573
s((I1
I0
I0
I0
I1
I1
I1
I1
I1
I1
I1
I1
I1
I1
I1
I1
I1
I1
I1
I1
I0
I0
I0
I0
I0
I0
I0
I0
I0
I1
I1
I1
I1
tp574
g21
tp575
g4
(g8
S'\xee\xa9\xaa\xe7\xa7\xc2\xd4?'
p576
tp577
Rp578
s((I0
I0
I1
I0
I1
I1
I1
I1
I1
I1
I1
I1
I1
I1
I1
I1
I0
I0
I0
I0
I0
I0
I0
I0
I0
I0
I0
I0
I0
I0
I0
I0
I1
tp579
g274
tp580
g4
(g8
S'A\x82l#\xd5\xcf\xbf?'
p581
tp582
Rp583
s((I0
I1
I0
I0
I1
I1
I1
I1
I1
I1
I1
I1
I1
I1
I1
I1
I0
I0
I0
I0
I0
I0
I0
I0
I0
I0
I0
I0
I0
I0
I0
I1
I0
tp584
g353
tp585
g4
(g8
S'\x14$1\x8f\xdf\xab\x07@'
p586
tp587
Rp588
s((I1
I0
I0
I0
I1
I1
I1
I1
I1
I1
I1
I1
I1
I1
I1
I1
I1
I1
I1
I1
I1
I1
I1
I0
I0
I0
I0
I0
I0
I1
I0
I1
I0
tp589
g73
tp590
g4
(g8
S'\xc1\xe4kk\x02A\xe0?'
p591
tp592
Rp593
s((I1
I0
I0
I0
I1
I1
I1
I1
I1
I1
I1
I1
I1
I1
I1
I1
I1
I1
I0
I0
I0
I0
I0
I0
I0
I0
I0
I0
I0
I1
I1
I0
I1
tp594
g21
tp595
g4
(g8
S':\x0e\x1e}j\xc3\xf8?'
p596
tp597
Rp598
s((I1
I0
I0
I0
I1
I1
I1
I1
I1
I1
I1
I1
I1
I1
I1
I1
I1
I1
I1
I1
I1
I1
I1
I1
I1
I1
I1
I1
I1
I0
I0
I0
I0
tp599
g44
tp600
g4
(g8
S'\x84\xea\xd6\xda\xdd\xb3\xf0?'
p601
tp602
Rp603
s((I1
I0
I0
I0
I1
I1
I1
I1
I1
I1
I1
I1
I1
I1
I1
I1
I1
I1
I1
I1
I1
I1
I0
I0
I0
I0
I0
I0
I0
I1
I1
I1
I0
tp604
g73
tp605
g4
(g8
S'\xe8\x9bi\xa6\xa3\xad\x03@'
p606
tp607
Rp608
s((I1
I0
I0
I0
I1
I1
I1
I1
I1
I0
I0
I0
I0
I0
I0
I0
I0
I0
I0
I0
I0
I0
I0
I0
I0
I0
I0
I0
I0
I1
I1
I0
I1
tp609
g73
tp610
g4
(g8
S'\xae8/\xa7\xc7\x00\x03@'
p611
tp612
Rp613
s((I0
I0
I0
I1
I1
I1
I1
I1
I1
I1
I1
I1
I1
I1
I1
I1
I1
I1
I1
I1
I1
I1
I0
I0
I0
I0
I0
I0
I0
I1
I1
I1
I0
tp614
S'completed'
p615
tp616
g4
(g8
S'\xc5\x85*g%\xe4\xdf?'
p617
tp618
Rp619
s((I0
I0
I1
I0
I1
I1
I1
I1
I1
I1
I1
I1
I1
I1
I1
I1
I1
I1
I1
I0
I0
I0
I0
I0
I0
I0
I0
I0
I0
I1
I1
I1
I1
tp620
g15
tp621
g4
(g8
S'\x89\x13\x85\\\xdf%\xf6?'
p622
tp623
Rp624
s((I0
I0
I1
I0
I1
I1
I1
I1
I1
I1
I1
I1
I1
I1
I1
I1
I1
I1
I1
I1
I1
I1
I1
I1
I1
I1
I1
I1
I1
I0
I1
I0
I1
tp625
S'stay-short'
p626
tp627
g4
(g8
S'${\x8c\x88X\xe5\x08@'
p628
tp629
Rp630
s((I0
I0
I0
I1
I1
I1
I1
I1
I1
I1
I1
I1
I1
I1
I1
I1
I1
I0
I0
I0
I0
I0
I0
I0
I0
I0
I0
I0
I0
I1
I1
I1
I1
tp631
g32
tp632
g4
(g8
S'\x0c\x8f\x1e\xbf\x00"\xc9?'
p633
tp634
Rp635
s((I1
I0
I0
I0
I1
I1
I1
I1
I1
I0
I0
I0
I0
I0
I0
I0
I0
I0
I0
I0
I0
I0
I0
I0
I0
I0
I0
I0
I0
I0
I1
I1
I1
tp636
g85
tp637
g4
(g8
S'\xa1"\xe3\xac\r\xd2\xf5?'
p638
tp639
Rp640
s((I1
I0
I0
I0
I1
I1
I1
I1
I1
I1
I1
I1
I1
I0
I0
I0
I0
I0
I0
I0
I0
I0
I0
I0
I0
I0
I0
I0
I0
I1
I0
I0
I0
tp641
g119
tp642
g4
(g8
S'\x84\x1f\x88\x9a\xea\x9c\x03@'
p643
tp644
Rp645
s((I0
I0
I1
I0
I1
I1
I1
I1
I1
I1
I1
I1
I1
I1
I1
I1
I1
I1
I1
I1
I1
I1
I1
I1
I1
I1
I1
I1
I0
I0
I0
I1
I0
tp646
g113
tp647
g4
(g8
S"\xd0\xaf'\xc2\x83\xde\x0b@"
p648
tp649
Rp650
s((I1
I0
I0
I0
I1
I1
I1
I1
I1
I1
I1
I1
I1
I0
I0
I0
I0
I0
I0
I0
I0
I0
I0
I0
I0
I0
I0
I0
I0
I1
I1
I1
I1
tp651
g85
tp652
g4
(g8
S'\x90\x8a\x19\x9d\x04#\xd2?'
p653
tp654
Rp655
s((I0
I1
I0
I0
I1
I1
I1
I1
I1
I1
I1
I1
I1
I1
I1
I1
I1
I1
I1
I0
I0
I0
I0
I0
I0
I0
I0
I0
I0
I0
I1
I1
I1
tp656
g91
tp657
g4
(g8
S'\xac\x9d\xd0\x98\x89U\xf6?'
p658
tp659
Rp660
s((I0
I0
I0
I1
I1
I1
I1
I1
I1
I1
I1
I1
I1
I1
I1
I1
I1
I1
I1
I0
I0
I0
I0
I0
I0
I0
I0
I0
I0
I0
I1
I1
I1
tp661
g32
tp662
g4
(g8
S'vJ{\xbeoI\xf4?'
p663
tp664
Rp665
s((I0
I1
I0
I0
I1
I1
I1
I1
I1
I1
I1
I1
I1
I1
I1
I1
I1
I1
I1
I1
I1
I1
I0
I0
I0
I0
I0
I0
I0
I1
I1
I1
I1
tp666
g50
tp667
g4
(g8
S'\xae\xf2v,\x04G\xf4?'
p668
tp669
Rp670
s((I0
I0
I0
I1
I1
I1
I1
I1
I1
I1
I1
I1
I1
I1
I1
I1
I1
I1
I1
I1
I1
I1
I1
I1
I1
I1
I1
I1
I0
I0
I1
I0
I0
tp671
g220
tp672
g4
(g8
S'=\xf2U\x1d\xce\xbe\xcd?'
p673
tp674
Rp675
s((I0
I0
I0
I1
I1
I1
I1
I1
I1
I1
I1
I1
I1
I1
I1
I1
I1
I1
I1
I1
I1
I1
I1
I1
I1
I1
I1
I1
I0
I0
I1
I0
I1
tp676
g32
tp677
g4
(g8
S'f\xd6\xb0\xff\xee$\xf1?'
p678
tp679
Rp680
s((I0
I1
I0
I0
I1
I1
I1
I1
I1
I1
I0
I0
I0
I0
I0
I0
I0
I0
I0
I0
I0
I0
I0
I0
I0
I0
I0
I0
I0
I0
I0
I1
I0
tp681
g50
tp682
g4
(g8
S'\xcd\x97\x08\x8e\xd3\x87\xf2?'
p683
tp684
Rp685
s((I0
I1
I0
I0
I1
I1
I1
I1
I1
I1
I1
I1
I1
I1
I1
I1
I1
I1
I1
I1
I1
I1
I1
I1
I1
I1
I1
I1
I1
I1
I0
I0
I1
tp686
S'exit-long'
p687
tp688
g4
(g8
S'\xe9\x1c\xd894\x18\x00@'
p689
tp690
Rp691
s((I0
I1
I0
I0
I1
I1
I1
I1
I1
I1
I1
I1
I1
I1
I1
I1
I1
I1
I1
I1
I1
I1
I1
I1
I1
I0
I0
I0
I0
I0
I0
I0
I0
tp692
g317
tp693
g4
(g8
S'\xe7El\xaeR\xac\xf0?'
p694
tp695
Rp696
s((I0
I0
I1
I0
I1
I1
I1
I1
I1
I1
I1
I1
I1
I1
I1
I1
I1
I1
I1
I1
I1
I1
I1
I1
I0
I0
I0
I0
I0
I1
I0
I1
I0
tp697
g107
tp698
g4
(g8
S'\xb0\x9b\xb6\x9e?\x06\xf9?'
p699
tp700
Rp701
s((I0
I1
I0
I0
I1
I1
I1
I1
I1
I1
I1
I1
I1
I1
I1
I1
I1
I1
I1
I1
I0
I0
I0
I0
I0
I0
I0
I0
I0
I1
I1
I1
I0
tp702
g147
tp703
g4
(g8
S'\x9d\xb9\xf1\x14\x17}\xa3?'
p704
tp705
Rp706
s((I0
I0
I1
I0
I1
I1
I1
I1
I1
I1
I1
I1
I1
I1
I1
I1
I1
I1
I0
I0
I0
I0
I0
I0
I0
I0
I0
I0
I0
I0
I1
I0
I1
tp707
g125
tp708
g4
(g8
S'&\xf3a\xc1\xc8w\xe1?'
p709
tp710
Rp711
s((I0
I0
I1
I0
I1
I1
I1
I1
I1
I1
I1
I1
I1
I1
I1
I1
I0
I0
I0
I0
I0
I0
I0
I0
I0
I0
I0
I0
I0
I0
I0
I0
I0
tp712
g38
tp713
g4
(g8
S'`&3\xa7\x07c\x01@'
p714
tp715
Rp716
s((I1
I0
I0
I0
I1
I1
I1
I1
I1
I1
I1
I1
I1
I1
I1
I1
I1
I1
I1
I0
I0
I0
I0
I0
I0
I0
I0
I0
I0
I0
I1
I1
I1
tp717
g248
tp718
g4
(g8
S';\xbf\x9d\x03\xdd\xbb\xf8?'
p719
tp720
Rp721
s((I0
I0
I0
I1
I1
I1
I1
I1
I1
I1
I1
I1
I1
I1
I1
I1
I1
I1
I0
I0
I0
I0
I0
I0
I0
I0
I0
I0
I0
I1
I1
I1
I0
tp722
g615
tp723
g4
(g8
S'\x95\xe1:\x80\xfc\xf4\xd0?'
p724
tp725
Rp726
s((I1
I0
I0
I0
I0
I0
I0
I0
I0
I0
I0
I0
I0
I0
I0
I0
I0
I0
I0
I0
I0
I0
I0
I0
I0
I0
I0
I0
I0
I0
I1
I1
I0
tp727
g44
tp728
g4
(g8
S'\x0f\x94\xa4\xdft\x0b\xee?'
p729
tp730
Rp731
s((I0
I0
I0
I1
I1
I1
I1
I1
I1
I1
I1
I1
I1
I1
I1
I1
I1
I1
I1
I1
I1
I1
I1
I1
I1
I1
I1
I0
I0
I1
I0
I1
I0
tp732
g32
tp733
g4
(g8
S'\xad\xec\xa6\xa7\xa3b\xfa?'
p734
tp735
Rp736
s((I0
I1
I0
I0
I1
I1
I1
I1
I1
I0
I0
I0
I0
I0
I0
I0
I0
I0
I0
I0
I0
I0
I0
I0
I0
I0
I0
I0
I0
I1
I1
I0
I1
tp737
g147
tp738
g4
(g8
S'*\xc3\xfc\\\x99\xde\x01@'
p739
tp740
Rp741
s((I0
I0
I1
I0
I1
I1
I1
I1
I1
I1
I1
I1
I1
I1
I1
I1
I1
I1
I1
I1
I1
I1
I1
I0
I0
I0
I0
I0
I0
I0
I1
I0
I1
tp742
g15
tp743
F0.09090909090909091
s((I0
I1
I0
I0
I1
I1
I1
I1
I1
I1
I1
I1
I1
I1
I1
I1
I1
I1
I1
I1
I1
I1
I1
I1
I1
I1
I1
I0
I0
I1
I0
I0
I1
tp744
g56
tp745
g4
(g8
S"\xf3'\x1f>]\xee\xfe?"
p746
tp747
Rp748
s((I0
I1
I0
I0
I1
I1
I1
I1
I1
I1
I1
I1
I1
I1
I1
I1
I1
I1
I1
I1
I1
I1
I1
I1
I1
I1
I1
I1
I1
I0
I0
I0
I1
tp749
g147
tp750
g4
(g8
S'!\xa4\xd0T\x19\x91\x04@'
p751
tp752
Rp753
s((I0
I1
I0
I0
I1
I1
I1
I1
I1
I1
I1
I1
I1
I1
I1
I1
I1
I1
I1
I1
I1
I1
I1
I1
I1
I1
I1
I0
I0
I1
I0
I0
I0
tp754
g50
tp755
g4
(g8
S'\x0er\x8d\xcc\xcc2\xe2?'
p756
tp757
Rp758
s((I0
I1
I0
I0
I1
I1
I1
I1
I1
I1
I1
I1
I1
I0
I0
I0
I0
I0
I0
I0
I0
I0
I0
I0
I0
I0
I0
I0
I0
I0
I1
I0
I1
tp759
g91
tp760
g4
(g8
S'\x9a\xad0P\xa3\xa8\xf3?'
p761
tp762
Rp763
s((I0
I0
I0
I1
I1
I1
I1
I1
I1
I1
I1
I1
I1
I1
I1
I1
I1
I1
I1
I1
I1
I1
I1
I1
I1
I1
I1
I1
I1
I0
I1
I0
I0
tp764
g32
tp765
g4
(g8
S'/\x9e\xc8\xc1P\xaf\xf8?'
p766
tp767
Rp768
s((I0
I0
I1
I0
I1
I1
I1
I1
I1
I1
I1
I1
I1
I1
I1
I1
I1
I1
I1
I1
I1
I1
I1
I1
I1
I1
I1
I1
I1
I0
I0
I1
I0
tp769
g107
tp770
g4
(g8
S'\xa7~,\x1d\xfbm\xfc?'
p771
tp772
Rp773
s((I0
I1
I0
I0
I1
I1
I1
I1
I1
I1
I1
I1
I1
I1
I1
I1
I1
I1
I1
I1
I1
I1
I1
I1
I1
I1
I1
I1
I1
I1
I0
I1
I0
tp774
g56
tp775
g4
(g8
S'\x00\x9d\xe8\xc6/I\x02@'
p776
tp777
Rp778
s((I0
I0
I1
I0
I1
I1
I1
I1
I1
I1
I1
I1
I1
I1
I1
I1
I1
I0
I0
I0
I0
I0
I0
I0
I0
I0
I0
I0
I0
I0
I0
I0
I0
tp779
g38
tp780
g4
(g8
S'#\x8d[G\x9a\x1e\xd3?'
p781
tp782
Rp783
s((I1
I0
I0
I0
I1
I1
I1
I1
I1
I1
I1
I1
I1
I1
I1
I1
I1
I1
I0
I0
I0
I0
I0
I0
I0
I0
I0
I0
I0
I1
I1
I1
I0
tp784
g62
tp785
g4
(g8
S'\x0f\xb7\xa1;\x02\x02\xe3?'
p786
tp787
Rp788
s((I1
I0
I0
I0
I1
I1
I1
I1
I1
I1
I1
I1
I1
I1
I0
I0
I0
I0
I0
I0
I0
I0
I0
I0
I0
I0
I0
I0
I0
I1
I0
I1
I0
tp789
g85
tp790
g4
(g8
S'\xaa\xe7\xb4\xec\x15\x11\x03@'
p791
tp792
Rp793
s((I1
I0
I0
I0
I1
I1
I1
I1
I1
I1
I1
I1
I1
I1
I1
I1
I1
I1
I1
I0
I0
I0
I0
I0
I0
I0
I0
I0
I0
I0
I1
I0
I1
tp794
g79
tp795
g4
(g8
S'<\xfd\x9d6\x18\xa5\xc7?'
p796
tp797
Rp798
s((I1
I0
I0
I0
I0
I0
I0
I0
I0
I0
I0
I0
I0
I0
I0
I0
I0
I0
I0
I0
I0
I0
I0
I0
I0
I0
I0
I0
I0
I1
I1
I1
I0
tp799
g85
tp800
g4
(g8
S'S~\xb5\xe5\x97\x19\xed?'
p801
tp802
Rp803
s((I0
I0
I1
I0
I1
I1
I1
I1
I0
I0
I0
I0
I0
I0
I0
I0
I0
I0
I0
I0
I0
I0
I0
I0
I0
I0
I0
I0
I0
I1
I1
I1
I1
tp804
g626
tp805
g4
(g8
S'r\x0cp=8\x82\xb5?'
p806
tp807
Rp808
s((I0
I1
I0
I0
I1
I1
I1
I1
I1
I1
I1
I1
I0
I0
I0
I0
I0
I0
I0
I0
I0
I0
I0
I0
I0
I0
I0
I0
I0
I1
I0
I1
I0
tp809
g147
tp810
g4
(g8
S'\x91\x92\x94\xa3\\\xc3\x03@'
p811
tp812
Rp813
s((I0
I1
I0
I0
I1
I1
I1
I1
I1
I1
I1
I1
I1
I1
I1
I1
I1
I1
I1
I1
I1
I1
I1
I1
I0
I0
I0
I0
I0
I1
I0
I1
I0
tp814
g317
tp815
g4
(g8
S'\x13\xbd`\xdcL\x00\xd0?'
p816
tp817
Rp818
s((I0
I0
I1
I0
I1
I1
I1
I1
I1
I1
I1
I1
I1
I1
I1
I1
I1
I1
I1
I1
I1
I1
I1
I1
I1
I1
I0
I0
I0
I0
I0
I0
I0
tp819
g15
tp820
g4
(g8
S'l\x97\x8b\xa2\xc7\xae\xf3?'
p821
tp822
Rp823
s((I0
I1
I0
I0
I1
I1
I1
I1
I1
I1
I1
I1
I1
I1
I1
I1
I1
I1
I1
I1
I1
I1
I1
I1
I1
I1
I1
I1
I0
I1
I1
I1
I0
tp824
g687
tp825
g4
(g8
S'\xdaF\xae/K\x9e\xf1?'
p826
tp827
Rp828
s((I0
I0
I1
I0
I1
I1
I1
I1
I1
I0
I0
I0
I0
I0
I0
I0
I0
I0
I0
I0
I0
I0
I0
I0
I0
I0
I0
I0
I0
I1
I0
I1
I0
tp829
g15
tp830
g4
(g8
S'wm^\xc4:h\xf0?'
p831
tp832
Rp833
s((I0
I0
I1
I0
I1
I1
I1
I1
I1
I1
I1
I1
I1
I1
I1
I1
I1
I1
I0
I0
I0
I0
I0
I0
I0
I0
I0
I0
I0
I1
I1
I1
I1
tp834
g38
tp835
g4
(g8
S'in8\x92:\xae\xe7?'
p836
tp837
Rp838
s((I0
I0
I1
I0
I1
I1
I1
I1
I1
I1
I1
I1
I1
I1
I1
I1
I1
I1
I1
I1
I1
I1
I1
I1
I1
I1
I1
I1
I0
I1
I1
I0
I1
tp839
g15
tp840
g4
(g8
S'\xc4J\x89\xdb\\\xc5\xb9?'
p841
tp842
Rp843
s((I0
I0
I1
I0
I1
I1
I1
I1
I1
I1
I0
I0
I0
I0
I0
I0
I0
I0
I0
I0
I0
I0
I0
I0
I0
I0
I0
I0
I0
I0
I1
I0
I1
tp844
g38
tp845
g4
(g8
S'\xb0I\xb0*\xd1\x05\x06@'
p846
tp847
Rp848
s((I0
I0
I0
I1
I1
I1
I1
I1
I1
I1
I1
I1
I1
I1
I1
I1
I1
I1
I1
I1
I1
I1
I1
I1
I1
I1
I1
I1
I0
I0
I0
I0
I1
tp849
g32
tp850
g4
(g8
S'\xa6\xce9\x19\x9b\xd2\xf0?'
p851
tp852
Rp853
s((I1
I0
I0
I0
I1
I1
I1
I1
I1
I1
I1
I1
I1
I1
I1
I1
I1
I1
I1
I1
I1
I1
I0
I0
I0
I0
I0
I0
I0
I1
I1
I1
I0
tp854
g119
tp855
g4
(g8
S'\xd5\xb8\x99\xb8!\x8c\xe1?'
p856
tp857
Rp858
s((I0
I1
I0
I0
I1
I1
I1
I1
I1
I1
I1
I1
I1
I1
I1
I1
I1
I1
I1
I1
I1
I1
I1
I1
I0
I0
I0
I0
I0
I1
I1
I1
I1
tp859
g91
tp860
g4
(g8
S'\x0c\xcf\xa7q\xbc\xf4\xf8?'
p861
tp862
Rp863
s((I0
I0
I0
I1
I1
I1
I1
I1
I1
I1
I1
I1
I1
I1
I1
I1
I1
I1
I1
I1
I1
I1
I1
I1
I0
I0
I0
I0
I0
I1
I1
I1
I1
tp864
g32
tp865
g4
(g8
S'\xfa\x9et\xa7\x83\x87\xf5?'
p866
tp867
Rp868
s((I0
I1
I0
I0
I1
I1
I1
I1
I1
I1
I1
I1
I1
I1
I1
I1
I1
I1
I1
I1
I1
I1
I1
I1
I0
I0
I0
I0
I0
I0
I0
I0
I0
tp869
g56
tp870
g4
(g8
S'\x8bv\xb0\xb6^\xeb\xea?'
p871
tp872
Rp873
s((I0
I1
I0
I0
I1
I1
I1
I1
I1
I1
I1
I1
I1
I1
I0
I0
I0
I0
I0
I0
I0
I0
I0
I0
I0
I0
I0
I0
I0
I1
I1
I0
I1
tp874
g317
tp875
g4
(g8
S'\x178{=\x91\xb2\xea?'
p876
tp877
Rp878
s((I0
I0
I1
I0
I1
I1
I1
I1
I1
I1
I1
I1
I1
I0
I0
I0
I0
I0
I0
I0
I0
I0
I0
I0
I0
I0
I0
I0
I0
I1
I1
I1
I1
tp879
g274
tp880
g4
(g8
S'6\xcb>\xdf\xe1\x11\xef?'
p881
tp882
Rp883
s((I0
I0
I0
I1
I1
I1
I1
I1
I1
I1
I1
I1
I1
I1
I1
I1
I1
I1
I1
I1
I1
I1
I1
I1
I1
I1
I1
I1
I1
I1
I0
I0
I0
tp884
g32
tp885
g4
(g8
S'6?\x01\xdb&|\xfa?'
p886
tp887
Rp888
s((I0
I0
I0
I1
I1
I1
I1
I1
I1
I1
I1
I1
I1
I1
I0
I0
I0
I0
I0
I0
I0
I0
I0
I0
I0
I0
I0
I0
I0
I1
I0
I0
I0
tp889
g32
tp890
g4
(g8
S'6\x87G\xb6\x92\x93\xeb?'
p891
tp892
Rp893
s((I1
I0
I0
I0
I1
I1
I1
I1
I1
I1
I1
I1
I1
I1
I1
I1
I1
I1
I1
I1
I0
I0
I0
I0
I0
I0
I0
I0
I0
I0
I0
I0
I0
tp894
g73
tp895
g4
(g8
S'ls\xba\x9a\x9b\x89\xd6?'
p896
tp897
Rp898
s((I1
I0
I0
I0
I1
I1
I1
I1
I1
I1
I1
I1
I1
I1
I1
I0
I0
I0
I0
I0
I0
I0
I0
I0
I0
I0
I0
I0
I0
I0
I0
I0
I0
tp899
g73
tp900
g4
(g8
S"']\xef\xabN\xf9\xa4?"
p901
tp902
Rp903
s((I0
I0
I1
I0
I1
I1
I1
I1
I1
I1
I1
I1
I1
I1
I0
I0
I0
I0
I0
I0
I0
I0
I0
I0
I0
I0
I0
I0
I0
I0
I1
I1
I1
tp904
g38
tp905
g4
(g8
S'\xac|\x99u\x1a\x1d\xc0?'
p906
tp907
Rp908
s((I1
I0
I0
I0
I0
I0
I0
I0
I0
I0
I0
I0
I0
I0
I0
I0
I0
I0
I0
I0
I0
I0
I0
I0
I0
I0
I0
I0
I0
I1
I1
I0
I1
tp909
g248
tp910
g4
(g8
S'a\xf4%0?P\x00@'
p911
tp912
Rp913
s((I0
I1
I0
I0
I1
I1
I1
I1
I1
I0
I0
I0
I0
I0
I0
I0
I0
I0
I0
I0
I0
I0
I0
I0
I0
I0
I0
I0
I0
I1
I1
I0
I1
tp914
g91
tp915
g4
(g8
S'&\r\x94\xb5\x88V\xde?'
p916
tp917
Rp918
s((I1
I0
I0
I0
I1
I1
I1
I1
I1
I0
I0
I0
I0
I0
I0
I0
I0
I0
I0
I0
I0
I0
I0
I0
I0
I0
I0
I0
I0
I1
I0
I1
I0
tp919
g44
tp920
g4
(g8
S'9@\x8b\x1ca\xa7\xf5?'
p921
tp922
Rp923
s((I0
I1
I0
I0
I1
I1
I1
I1
I1
I1
I1
I1
I1
I1
I1
I1
I1
I1
I0
I0
I0
I0
I0
I0
I0
I0
I0
I0
I0
I1
I1
I1
I1
tp924
g147
tp925
g4
(g8
S'p\x90D\xe7\x1f\x14\x06@'
p926
tp927
Rp928
s((I0
I1
I0
I0
I1
I1
I1
I1
I1
I1
I1
I1
I1
I1
I1
I1
I1
I1
I1
I1
I1
I1
I1
I1
I1
I1
I1
I0
I0
I1
I0
I1
I0
tp929
g147
tp930
g4
(g8
S'\xdfIU\xb5D\x0b\xf5?'
p931
tp932
Rp933
s((I0
I1
I0
I0
I1
I1
I1
I1
I1
I1
I1
I1
I1
I1
I1
I1
I1
I1
I1
I1
I1
I1
I1
I1
I1
I1
I0
I0
I0
I1
I1
I0
I1
tp934
g91
tp935
g4
(g8
S'\xa3\xad\x9e}\xec\x10\xfa?'
p936
tp937
Rp938
s((I0
I0
I1
I0
I1
I1
I1
I1
I1
I1
I1
I1
I1
I1
I1
I1
I1
I1
I1
I0
I0
I0
I0
I0
I0
I0
I0
I0
I0
I0
I0
I1
I0
tp939
g15
tp940
g4
(g8
S'\xc9\n\xa8&\xbb{\xc7?'
p941
tp942
Rp943
s((I0
I0
I1
I0
I1
I1
I1
I1
I1
I1
I1
I1
I1
I1
I1
I1
I1
I1
I1
I1
I1
I1
I1
I1
I1
I1
I1
I1
I0
I1
I0
I1
I0
tp944
g274
tp945
g4
(g8
S'Q\xceP2\x9e\xb1\x0b@'
p946
tp947
Rp948
s((I0
I0
I0
I1
I1
I1
I1
I1
I1
I1
I1
I1
I1
I1
I1
I1
I1
I1
I0
I0
I0
I0
I0
I0
I0
I0
I0
I0
I0
I0
I0
I0
I0
tp949
g32
tp950
g4
(g8
S'\xbd\x87Ua\xa2\xf5\xed?'
p951
tp952
Rp953
s((I0
I1
I0
I0
I1
I1
I1
I1
I1
I1
I1
I1
I1
I1
I1
I1
I1
I1
I1
I1
I1
I1
I1
I1
I1
I1
I1
I1
I1
I1
I1
I0
I1
tp954
g147
tp955
g4
(g8
S'V\xf2z\xda\x9d\xac\x08@'
p956
tp957
Rp958
s((I0
I0
I1
I0
I1
I1
I1
I1
I1
I1
I1
I1
I0
I0
I0
I0
I0
I0
I0
I0
I0
I0
I0
I0
I0
I0
I0
I0
I0
I0
I0
I1
I0
tp959
g107
tp960
g4
(g8
S'D\xa2\x96\x1f\x0e\xc1\xe7?'
p961
tp962
Rp963
s((I0
I1
I0
I0
I1
I1
I1
I1
I1
I1
I1
I1
I1
I1
I1
I1
I1
I1
I1
I1
I1
I1
I1
I1
I1
I1
I1
I1
I1
I0
I0
I0
I0
tp964
g147
tp965
g4
(g8
S'`\xfc[\xac\xb3\xe3\xff?'
p966
tp967
Rp968
s((I1
I0
I0
I0
I1
I1
I1
I1
I1
I1
I1
I1
I1
I1
I1
I1
I1
I1
I1
I1
I1
I1
I1
I1
I1
I1
I1
I1
I1
I0
I0
I0
I0
tp969
g21
tp970
g4
(g8
S'\x9f\x9fO\x1d7Ei?'
p971
tp972
Rp973
s((I0
I1
I0
I0
I1
I1
I1
I1
I1
I0
I0
I0
I0
I0
I0
I0
I0
I0
I0
I0
I0
I0
I0
I0
I0
I0
I0
I0
I0
I1
I1
I1
I1
tp974
g50
tp975
g4
(g8
S'\xe6@\xd0\x19c\x02\xcd?'
p976
tp977
Rp978
s((I0
I0
I0
I1
I1
I1
I1
I1
I1
I1
I1
I1
I1
I1
I1
I1
I1
I1
I1
I0
I0
I0
I0
I0
I0
I0
I0
I0
I0
I0
I0
I1
I0
tp979
g32
tp980
g4
(g8
S'\xf0\xf6um \xb1\xf4?'
p981
tp982
Rp983
s((I0
I0
I1
I0
I1
I1
I1
I1
I1
I1
I1
I1
I1
I1
I1
I1
I1
I1
I1
I1
I0
I0
I0
I0
I0
I0
I0
I0
I0
I0
I1
I0
I1
tp984
g125
tp985
g4
(g8
S'=\xd6v;\x8d\x06\xdb?'
p986
tp987
Rp988
s((I1
I0
I0
I0
I1
I1
I1
I1
I1
I1
I1
I1
I1
I1
I1
I1
I1
I1
I1
I0
I0
I0
I0
I0
I0
I0
I0
I0
I0
I0
I0
I1
I0
tp989
g85
tp990
g4
(g8
S'o\x7f*\xd7\xcb\xa2\xf9?'
p991
tp992
Rp993
s((I1
I0
I0
I0
I1
I1
I1
I1
I1
I1
I1
I1
I1
I1
I1
I1
I1
I1
I0
I0
I0
I0
I0
I0
I0
I0
I0
I0
I0
I0
I1
I1
I1
tp994
g226
tp995
g4
(g8
S"L\xfd\x1f'W \xc7?"
p996
tp997
Rp998
s((I0
I0
I1
I0
I1
I1
I1
I1
I1
I0
I0
I0
I0
I0
I0
I0
I0
I0
I0
I0
I0
I0
I0
I0
I0
I0
I0
I0
I0
I1
I1
I1
I0
tp999
g38
tp1000
g4
(g8
S'\x11\xd6\xd0\x88\x15\xfc\x04@'
p1001
tp1002
Rp1003
s((I1
I0
I0
I0
I1
I1
I1
I1
I1
I1
I1
I1
I1
I1
I1
I1
I1
I1
I0
I0
I0
I0
I0
I0
I0
I0
I0
I0
I0
I0
I0
I1
I0
tp1004
g21
tp1005
g4
(g8
S'\xaa\x17\xfa\xd8\xcf\xb8\xf9?'
p1006
tp1007
Rp1008
s((I0
I1
I0
I0
I1
I1
I1
I1
I1
I1
I1
I1
I1
I1
I1
I1
I1
I1
I1
I0
I0
I0
I0
I0
I0
I0
I0
I0
I0
I1
I1
I1
I1
tp1009
g91
tp1010
g4
(g8
S'\xbc\xe6o\nm\x13\xf6?'
p1011
tp1012
Rp1013
s((I0
I1
I0
I0
I1
I1
I1
I1
I1
I1
I1
I1
I1
I1
I1
I1
I1
I1
I1
I1
I1
I1
I1
I1
I0
I0
I0
I0
I0
I0
I1
I0
I1
tp1014
g147
tp1015
g4
(g8
S':\xac/\xeb\xf0\x01\x05@'
p1016
tp1017
Rp1018
s((I0
I0
I1
I0
I1
I1
I1
I1
I1
I1
I1
I1
I1
I1
I1
I1
I1
I1
I1
I1
I1
I1
I1
I1
I0
I0
I0
I0
I0
I0
I0
I1
I0
tp1019
g38
tp1020
g4
(g8
S'\xab\xa9\x9a\xc8\xf5\r\x08@'
p1021
tp1022
Rp1023
s((I0
I0
I1
I0
I1
I1
I1
I1
I1
I1
I1
I1
I1
I1
I1
I1
I1
I1
I1
I1
I1
I1
I1
I0
I0
I0
I0
I0
I0
I1
I0
I1
I0
tp1024
g274
tp1025
g4
(g8
S'\x96\xcbA\x9eUz\n@'
p1026
tp1027
Rp1028
s((I0
I0
I1
I0
I1
I1
I1
I1
I1
I1
I1
I1
I0
I0
I0
I0
I0
I0
I0
I0
I0
I0
I0
I0
I0
I0
I0
I0
I0
I1
I1
I1
I1
tp1029
g626
tp1030
g4
(g8
S'=Q\xceZ9\xd1\xcd?'
p1031
tp1032
Rp1033
s((I1
I0
I0
I0
I1
I1
I1
I1
I1
I1
I1
I1
I1
I1
I1
I1
I0
I0
I0
I0
I0
I0
I0
I0
I0
I0
I0
I0
I0
I1
I1
I1
I0
tp1034
g119
tp1035
g4
(g8
S'%R\xc3Q\x1a\x80\xf0?'
p1036
tp1037
Rp1038
s((I0
I0
I1
I0
I1
I1
I1
I1
I1
I0
I0
I0
I0
I0
I0
I0
I0
I0
I0
I0
I0
I0
I0
I0
I0
I0
I0
I0
I0
I0
I0
I0
I1
tp1039
g15
tp1040
g4
(g8
S'^\xa2\xd7\xc3\r\x97\xa6?'
p1041
tp1042
Rp1043
s((I1
I0
I0
I0
I1
I1
I1
I1
I1
I1
I1
I1
I1
I1
I1
I1
I1
I1
I1
I1
I1
I0
I0
I0
I0
I0
I0
I0
I0
I0
I0
I0
I0
tp1044
g21
tp1045
g4
(g8
S'\xcc\xefp\xf2g\x99\xda?'
p1046
tp1047
Rp1048
s((I0
I0
I1
I0
I1
I1
I1
I1
I1
I1
I1
I1
I1
I1
I1
I1
I1
I1
I1
I1
I1
I1
I1
I1
I1
I1
I1
I1
I1
I1
I0
I0
I0
tp1049
g38
tp1050
g4
(g8
S'(A\xbd-\xa38\t@'
p1051
tp1052
Rp1053
s((I1
I0
I0
I0
I1
I1
I1
I1
I1
I1
I1
I1
I1
I1
I1
I1
I1
I1
I0
I0
I0
I0
I0
I0
I0
I0
I0
I0
I0
I1
I0
I0
I0
tp1054
g389
tp1055
g4
(g8
S'\xc9m/\x05\x81M\xd5?'
p1056
tp1057
Rp1058
s((I1
I0
I0
I0
I1
I1
I1
I1
I1
I0
I0
I0
I0
I0
I0
I0
I0
I0
I0
I0
I0
I0
I0
I0
I0
I0
I0
I0
I0
I0
I1
I1
I1
tp1059
g248
tp1060
g4
(g8
S'\x93\xf1\x06\xab\xed5\xb4\xbf'
p1061
tp1062
Rp1063
s((I0
I0
I1
I0
I1
I1
I1
I1
I1
I1
I1
I1
I1
I1
I1
I1
I1
I1
I1
I0
I0
I0
I0
I0
I0
I0
I0
I0
I0
I0
I1
I1
I1
tp1064
g38
tp1065
g4
(g8
S'O\xa7\x8e\xf3\xb0\x04\x06@'
p1066
tp1067
Rp1068
s((I1
I0
I0
I0
I1
I1
I1
I1
I1
I1
I1
I1
I1
I1
I1
I1
I1
I1
I1
I1
I1
I1
I1
I1
I0
I0
I0
I0
I0
I0
I1
I0
I1
tp1069
g21
tp1070
g4
(g8
S'\xfd\x8a%~\xdd\x15\xd2?'
p1071
tp1072
Rp1073
s((I1
I0
I0
I0
I0
I0
I0
I0
I0
I0
I0
I0
I0
I0
I0
I0
I0
I0
I0
I0
I0
I0
I0
I0
I0
I0
I0
I0
I0
I0
I1
I1
I0
tp1074
g248
tp1075
g4
(g8
S'\x03i\xa5y\x1b\xc5\xfe?'
p1076
tp1077
Rp1078
s((I0
I1
I0
I0
I1
I1
I1
I1
I1
I1
I1
I1
I1
I1
I1
I1
I1
I1
I1
I1
I1
I1
I1
I1
I1
I1
I1
I0
I0
I1
I1
I1
I0
tp1079
S'stay-long'
p1080
tp1081
g4
(g8
S'\x01\xc27kh\xc9\x04@'
p1082
tp1083
Rp1084
s((I0
I0
I0
I1
I1
I1
I1
I1
I1
I1
I1
I1
I1
I1
I1
I1
I1
I1
I1
I1
I1
I1
I1
I1
I1
I1
I1
I1
I1
I0
I0
I0
I0
tp1085
g32
tp1086
g4
(g8
S'W/\xefs\xfd\xae\xf0?'
p1087
tp1088
Rp1089
s((I0
I1
I0
I0
I1
I1
I1
I1
I1
I1
I1
I1
I0
I0
I0
I0
I0
I0
I0
I0
I0
I0
I0
I0
I0
I0
I0
I0
I0
I1
I1
I1
I0
tp1090
g1080
tp1091
g4
(g8
S'\x8c\x84\xb9\xf3\x0b\x91\xcd?'
p1092
tp1093
Rp1094
s((I1
I0
I0
I0
I1
I1
I1
I1
I1
I1
I1
I1
I1
I1
I1
I1
I1
I1
I0
I0
I0
I0
I0
I0
I0
I0
I0
I0
I0
I0
I0
I1
I0
tp1095
g73
tp1096
g4
(g8
S'\x88d\xbb\x06\x96\t\xd9?'
p1097
tp1098
Rp1099
s((I1
I0
I0
I0
I1
I1
I1
I1
I1
I1
I1
I1
I1
I1
I1
I1
I1
I1
I1
I1
I1
I1
I1
I1
I1
I1
I1
I1
I1
I1
I1
I1
I0
tp1100
S'waiting'
p1101
tp1102
g4
(g8
S'\xe9\rX\xb2\xbcn\x04@'
p1103
tp1104
Rp1105
s((I0
I0
I0
I1
I1
I1
I1
I1
I1
I1
I1
I1
I1
I1
I1
I1
I1
I1
I1
I1
I1
I1
I1
I1
I1
I1
I1
I1
I0
I0
I0
I0
I0
tp1106
g32
tp1107
g4
(g8
S'\x04|\xf9\xc1\xc7D\xf0?'
p1108
tp1109
Rp1110
s((I1
I0
I0
I0
I1
I1
I1
I1
I1
I1
I1
I1
I1
I1
I1
I1
I1
I1
I1
I1
I1
I1
I1
I0
I0
I0
I0
I0
I0
I1
I0
I0
I0
tp1111
g21
tp1112
g4
(g8
S'*\x91\x8a\xf1l\x16\xe4?'
p1113
tp1114
Rp1115
s((I0
I0
I1
I0
I1
I1
I1
I1
I1
I1
I1
I1
I1
I1
I1
I1
I1
I1
I1
I0
I0
I0
I0
I0
I0
I0
I0
I0
I0
I0
I0
I0
I0
tp1116
g15
tp1117
g4
(g8
S'\xed\xb1\xf9\x17Qh\xf4?'
p1118
tp1119
Rp1120
s((I1
I0
I0
I0
I1
I1
I1
I1
I1
I1
I1
I1
I1
I1
I1
I1
I1
I1
I1
I1
I1
I1
I1
I1
I1
I1
I1
I1
I1
I0
I0
I0
I1
tp1121
g73
tp1122
g4
(g8
S')\x8a\xd1\x81Eh\xe9?'
p1123
tp1124
Rp1125
s((I1
I0
I0
I0
I1
I1
I1
I1
I1
I1
I1
I1
I1
I1
I1
I1
I1
I1
I1
I1
I1
I1
I1
I1
I1
I1
I1
I1
I1
I1
I1
I1
I1
tp1126
g119
tp1127
g4
(g8
S'\xda\xc2\x05NW#\x05@'
p1128
tp1129
Rp1130
s((I0
I0
I1
I0
I1
I1
I1
I1
I1
I1
I0
I0
I0
I0
I0
I0
I0
I0
I0
I0
I0
I0
I0
I0
I0
I0
I0
I0
I0
I0
I0
I0
I0
tp1131
g15
tp1132
g4
(g8
S'\xe8-\xef\x87\xc6\x00\xee?'
p1133
tp1134
Rp1135
s((I1
I0
I0
I0
I1
I1
I1
I1
I1
I1
I1
I1
I1
I1
I0
I0
I0
I0
I0
I0
I0
I0
I0
I0
I0
I0
I0
I0
I0
I0
I1
I0
I1
tp1136
S'enter-long'
p1137
tp1138
g4
(g8
S"\xd1'7\xa3\xa3\xb4\xd2?"
p1139
tp1140
Rp1141
s((I0
I0
I1
I0
I1
I1
I1
I1
I1
I1
I1
I1
I1
I1
I1
I1
I1
I1
I1
I1
I1
I1
I1
I1
I1
I1
I1
I1
I0
I1
I1
I1
I1
tp1142
g136
tp1143
g4
(g8
S'\xfd_:f\xe1:\xa8?'
p1144
tp1145
Rp1146
s((I0
I1
I0
I0
I1
I1
I1
I1
I1
I1
I1
I1
I1
I1
I1
I1
I1
I1
I1
I1
I1
I1
I1
I1
I0
I0
I0
I0
I0
I0
I1
I1
I1
tp1147
g91
tp1148
g4
(g8
S'm;4\x91eG\xf7?'
p1149
tp1150
Rp1151
s((I1
I0
I0
I0
I1
I1
I1
I1
I1
I1
I1
I1
I1
I1
I1
I1
I1
I1
I1
I1
I1
I1
I1
I1
I1
I1
I0
I0
I0
I0
I0
I0
I1
tp1152
g119
tp1153
g4
(g8
S'\xf3F&\xc7&\xfa\xe0?'
p1154
tp1155
Rp1156
s((I0
I0
I1
I0
I1
I1
I1
I1
I1
I0
I0
I0
I0
I0
I0
I0
I0
I0
I0
I0
I0
I0
I0
I0
I0
I0
I0
I0
I0
I1
I1
I0
I1
tp1157
g38
tp1158
g4
(g8
S'J\x04\xbe\xad!\x93\x9a?'
p1159
tp1160
Rp1161
s((I0
I0
I1
I0
I1
I1
I1
I1
I1
I1
I1
I1
I1
I1
I0
I0
I0
I0
I0
I0
I0
I0
I0
I0
I0
I0
I0
I0
I0
I1
I1
I1
I0
tp1162
g38
tp1163
g4
(g8
S'Z\x00)\xcbs>\xa4?'
p1164
tp1165
Rp1166
s((I0
I0
I1
I0
I1
I1
I1
I1
I1
I1
I1
I1
I1
I1
I1
I1
I1
I1
I1
I1
I1
I1
I1
I1
I0
I0
I0
I0
I0
I0
I1
I0
I0
tp1167
g107
tp1168
g4
(g8
S'zz*&P~\xc0?'
p1169
tp1170
Rp1171
s((I0
I0
I1
I0
I1
I1
I1
I1
I1
I1
I1
I1
I1
I1
I1
I1
I1
I1
I1
I1
I1
I1
I1
I1
I1
I1
I0
I0
I0
I0
I0
I1
I0
tp1172
g15
tp1173
g4
(g8
S'P\xa4\xf7\x9a\xa9\x86\xf9?'
p1174
tp1175
Rp1176
s((I0
I0
I0
I1
I1
I1
I1
I1
I1
I1
I1
I1
I1
I1
I1
I1
I1
I1
I1
I1
I1
I1
I1
I1
I1
I1
I1
I1
I0
I1
I1
I0
I1
tp1177
g32
tp1178
g4
(g8
S'\x00\x04\xd2\xc9if\xf5?'
p1179
tp1180
Rp1181
s((I0
I1
I0
I0
I1
I1
I1
I1
I1
I1
I1
I1
I1
I1
I1
I1
I0
I0
I0
I0
I0
I0
I0
I0
I0
I0
I0
I0
I0
I1
I0
I1
I0
tp1182
g50
tp1183
g4
(g8
S'K\xc9eIO\x1f\xf0?'
p1184
tp1185
Rp1186
s((I1
I0
I0
I0
I1
I1
I1
I1
I1
I0
I0
I0
I0
I0
I0
I0
I0
I0
I0
I0
I0
I0
I0
I0
I0
I0
I0
I0
I0
I0
I0
I1
I0
tp1187
g248
tp1188
g4
(g8
S'\xc6{\xc3\xc4q\xf4\xf9?'
p1189
tp1190
Rp1191
s((I1
I0
I0
I0
I1
I1
I1
I1
I1
I0
I0
I0
I0
I0
I0
I0
I0
I0
I0
I0
I0
I0
I0
I0
I0
I0
I0
I0
I0
I0
I0
I0
I0
tp1192
g44
tp1193
g4
(g8
S'\x0b\x0b|}\x1a9\xea?'
p1194
tp1195
Rp1196
s((I0
I1
I0
I0
I1
I1
I1
I1
I1
I1
I0
I0
I0
I0
I0
I0
I0
I0
I0
I0
I0
I0
I0
I0
I0
I0
I0
I0
I0
I0
I0
I1
I0
tp1197
g56
tp1198
g4
(g8
S'1Rt\xfe\xb7\x1b\x06@'
p1199
tp1200
Rp1201
s((I1
I0
I0
I0
I1
I1
I1
I1
I1
I1
I1
I1
I1
I1
I1
I1
I0
I0
I0
I0
I0
I0
I0
I0
I0
I0
I0
I0
I0
I1
I1
I1
I1
tp1202
g21
tp1203
g4
(g8
S'\xddm\xce\xd8\xdf\xd5\x04@'
p1204
tp1205
Rp1206
s((I1
I0
I0
I0
I1
I1
I1
I1
I0
I0
I0
I0
I0
I0
I0
I0
I0
I0
I0
I0
I0
I0
I0
I0
I0
I0
I0
I0
I0
I1
I0
I1
I0
tp1207
g119
tp1208
g4
(g8
S'0\xdc4\x9eu$\xe8?'
p1209
tp1210
Rp1211
s((I0
I1
I0
I0
I1
I1
I1
I1
I1
I1
I1
I1
I1
I1
I0
I0
I0
I0
I0
I0
I0
I0
I0
I0
I0
I0
I0
I0
I0
I0
I0
I1
I0
tp1212
g50
tp1213
g4
(g8
S'\xa3\xd1I\xd4!\xeb\xeb?'
p1214
tp1215
Rp1216
s((I0
I0
I1
I0
I1
I1
I1
I1
I1
I1
I1
I1
I1
I1
I1
I1
I1
I1
I1
I1
I1
I1
I1
I1
I1
I1
I1
I1
I1
I0
I1
I1
I0
tp1217
g107
tp1218
g4
(g8
S'\x95\xd3\x1c\xda\xf8\x8f\xff?'
p1219
tp1220
Rp1221
s((I0
I0
I1
I0
I1
I1
I1
I1
I1
I1
I1
I1
I1
I1
I0
I0
I0
I0
I0
I0
I0
I0
I0
I0
I0
I0
I0
I0
I0
I1
I1
I1
I1
tp1222
g15
tp1223
g4
(g8
S'\x92\x10c\xb3\x07\x83\xf3?'
p1224
tp1225
Rp1226
s((I1
I0
I0
I0
I1
I1
I1
I1
I0
I0
I0
I0
I0
I0
I0
I0
I0
I0
I0
I0
I0
I0
I0
I0
I0
I0
I0
I0
I0
I0
I0
I1
I0
tp1227
g248
tp1228
g4
(g8
S'\xed\x9c\x12\xefV\xca\xff?'
p1229
tp1230
Rp1231
s((I1
I0
I0
I0
I1
I1
I1
I1
I1
I1
I1
I1
I1
I1
I1
I1
I1
I1
I1
I0
I0
I0
I0
I0
I0
I0
I0
I0
I0
I1
I1
I1
I0
tp1232
g119
tp1233
g4
(g8
S'\xf4\xb2\x897\xf5j\x03@'
p1234
tp1235
Rp1236
s((I0
I0
I1
I0
I1
I1
I1
I1
I1
I1
I1
I1
I1
I1
I1
I1
I1
I1
I1
I1
I0
I0
I0
I0
I0
I0
I0
I0
I0
I0
I0
I0
I0
tp1237
g15
tp1238
g4
(g8
S'\x17\x9d\xb5Nr\x0b\xf2?'
p1239
tp1240
Rp1241
s((I0
I0
I1
I0
I1
I1
I1
I1
I1
I1
I1
I1
I1
I1
I0
I0
I0
I0
I0
I0
I0
I0
I0
I0
I0
I0
I0
I0
I0
I1
I1
I1
I1
tp1242
g38
tp1243
g4
(g8
S'\x7f8\xdb\xaf\xe6\x8c\x06@'
p1244
tp1245
Rp1246
s((I1
I0
I0
I0
I1
I1
I1
I1
I1
I0
I0
I0
I0
I0
I0
I0
I0
I0
I0
I0
I0
I0
I0
I0
I0
I0
I0
I0
I0
I0
I0
I1
I0
tp1247
g85
tp1248
g4
(g8
S'\xad\x10F\xfe\xdf\xf8\xe6?'
p1249
tp1250
Rp1251
s((I0
I0
I1
I0
I1
I1
I1
I1
I1
I1
I1
I1
I1
I1
I1
I1
I1
I1
I1
I1
I1
I1
I1
I1
I1
I1
I1
I1
I0
I1
I1
I1
I0
tp1252
g15
tp1253
g4
(g8
S'3\xa8\xe7\xb5\x07\xa0\xa4?'
p1254
tp1255
Rp1256
s((I1
I0
I0
I0
I1
I1
I1
I1
I1
I1
I1
I1
I1
I1
I1
I1
I1
I1
I1
I1
I1
I1
I1
I1
I1
I1
I1
I1
I1
I0
I1
I0
I1
tp1257
g174
tp1258
g4
(g8
S'Sq\xf8\x00#\xdb\x90\xbf'
p1259
tp1260
Rp1261
s((I0
I0
I1
I0
I1
I1
I1
I1
I1
I1
I1
I1
I1
I1
I1
I1
I1
I1
I1
I1
I1
I1
I1
I1
I1
I1
I1
I0
I0
I0
I0
I0
I0
tp1262
g15
tp1263
g4
(g8
S'>\x17\xab\x12\x12m\xf0?'
p1264
tp1265
Rp1266
s((I0
I0
I1
I0
I1
I1
I1
I1
I1
I1
I1
I1
I1
I1
I1
I1
I1
I1
I1
I1
I1
I1
I1
I1
I1
I1
I1
I0
I0
I1
I1
I0
I1
tp1267
g136
tp1268
g4
(g8
S'\xef\x86\x0f\x9d-\x0b\xa8?'
p1269
tp1270
Rp1271
s((I0
I0
I0
I1
I1
I1
I1
I1
I1
I1
I1
I1
I1
I1
I1
I1
I1
I1
I1
I1
I1
I1
I1
I1
I1
I1
I1
I0
I0
I1
I1
I0
I1
tp1272
g32
tp1273
g4
(g8
S'I\xba\xc2\xa0\x94Q\xec?'
p1274
tp1275
Rp1276
s((I1
I0
I0
I0
I1
I1
I1
I1
I1
I1
I1
I1
I1
I1
I1
I1
I1
I1
I1
I1
I1
I1
I1
I1
I1
I1
I1
I0
I0
I1
I1
I1
I0
tp1277
g1137
tp1278
g4
(g8
S'9\xb2Qu\x97\x06\xe3?'
p1279
tp1280
Rp1281
s((I1
I0
I0
I0
I1
I1
I1
I1
I1
I0
I0
I0
I0
I0
I0
I0
I0
I0
I0
I0
I0
I0
I0
I0
I0
I0
I0
I0
I0
I0
I1
I1
I1
tp1282
g119
tp1283
g4
(g8
S'\x08\x9e_\x1f\xb4\xae\xc8?'
p1284
tp1285
Rp1286
s((I0
I1
I0
I0
I1
I1
I1
I1
I1
I1
I1
I1
I0
I0
I0
I0
I0
I0
I0
I0
I0
I0
I0
I0
I0
I0
I0
I0
I0
I0
I0
I1
I0
tp1287
g50
tp1288
g4
(g8
S'\xfc x\xdeP\x19\xe5?'
p1289
tp1290
Rp1291
s((I0
I1
I0
I0
I1
I1
I1
I1
I1
I1
I1
I1
I1
I1
I1
I1
I1
I1
I0
I0
I0
I0
I0
I0
I0
I0
I0
I0
I0
I1
I1
I0
I1
tp1292
g50
tp1293
g4
(g8
S'\xb9<\\\x0b\x15\xd1\xf5?'
p1294
tp1295
Rp1296
s((I1
I0
I0
I0
I0
I0
I0
I0
I0
I0
I0
I0
I0
I0
I0
I0
I0
I0
I0
I0
I0
I0
I0
I0
I0
I0
I0
I0
I0
I0
I0
I0
I1
tp1297
g44
tp1298
g4
(g8
S'^\x8c\x96b\xfce\x03@'
p1299
tp1300
Rp1301
s((I1
I0
I0
I0
I1
I1
I1
I1
I1
I1
I1
I1
I1
I1
I1
I1
I1
I1
I1
I1
I1
I1
I1
I1
I0
I0
I0
I0
I0
I0
I0
I0
I0
tp1302
g174
tp1303
g4
(g8
S'\xf2\x9e\xcc\x01\xb3\xa1\xa6?'
p1304
tp1305
Rp1306
s((I0
I1
I0
I0
I1
I1
I1
I1
I1
I1
I1
I1
I1
I1
I1
I1
I1
I1
I1
I1
I1
I1
I1
I1
I1
I1
I1
I0
I0
I0
I0
I0
I0
tp1307
g147
tp1308
g4
(g8
S'\x91X\xce\x91\xa4s\x04@'
p1309
tp1310
Rp1311
s((I0
I1
I0
I0
I1
I1
I1
I1
I1
I0
I0
I0
I0
I0
I0
I0
I0
I0
I0
I0
I0
I0
I0
I0
I0
I0
I0
I0
I0
I0
I1
I1
I1
tp1312
g56
tp1313
g4
(g8
S'<\x00R\xbdSj\x03@'
p1314
tp1315
Rp1316
s((I0
I0
I1
I0
I1
I1
I1
I1
I1
I1
I1
I1
I1
I1
I1
I1
I1
I1
I1
I1
I1
I1
I1
I1
I1
I1
I1
I0
I0
I1
I0
I0
I1
tp1317
g274
tp1318
g4
(g8
S'|\xe4!O>\xd7\x06@'
p1319
tp1320
Rp1321
s((I0
I0
I0
I1
I1
I1
I1
I1
I1
I1
I1
I1
I1
I1
I1
I1
I1
I1
I1
I1
I1
I1
I1
I1
I0
I0
I0
I0
I0
I0
I0
I0
I0
tp1322
g32
tp1323
g4
(g8
S'\xdaY|!4(\xf3?'
p1324
tp1325
Rp1326
s((I0
I1
I0
I0
I1
I1
I1
I1
I1
I1
I1
I1
I1
I1
I1
I1
I1
I1
I1
I1
I1
I1
I1
I1
I1
I1
I1
I1
I1
I0
I0
I0
I0
tp1327
g91
tp1328
g4
(g8
S'\xe2"d\x10$\x96\xf3?'
p1329
tp1330
Rp1331
s((I0
I0
I1
I0
I1
I1
I1
I1
I1
I1
I1
I1
I1
I1
I1
I1
I1
I1
I1
I1
I1
I1
I1
I0
I0
I0
I0
I0
I0
I1
I1
I1
I1
tp1332
g38
tp1333
g4
(g8
S'\x04}Hy\x94,\x01@'
p1334
tp1335
Rp1336
s((I1
I0
I0
I0
I1
I1
I1
I1
I1
I1
I0
I0
I0
I0
I0
I0
I0
I0
I0
I0
I0
I0
I0
I0
I0
I0
I0
I0
I0
I0
I0
I0
I0
tp1337
g119
tp1338
g4
(g8
S'\xf6\xb0\x83\xb4\x1f\x9e\x03@'
p1339
tp1340
Rp1341
s((I0
I0
I1
I0
I1
I1
I1
I1
I1
I1
I1
I1
I1
I1
I1
I1
I1
I1
I1
I1
I1
I1
I1
I1
I0
I0
I0
I0
I0
I0
I1
I0
I1
tp1342
g38
tp1343
g4
(g8
S'\x84\xa7\xcd)t\xd0\xce?'
p1344
tp1345
Rp1346
s((I0
I0
I1
I0
I1
I1
I1
I1
I1
I1
I1
I1
I1
I1
I1
I1
I1
I1
I1
I1
I1
I1
I1
I1
I1
I1
I1
I1
I1
I1
I1
I1
I1
tp1347
g15
tp1348
g4
(g8
S'\x18\x7fP\xf4\x9b\xbb\xff?'
p1349
tp1350
Rp1351
s((I0
I1
I0
I0
I1
I1
I1
I1
I1
I0
I0
I0
I0
I0
I0
I0
I0
I0
I0
I0
I0
I0
I0
I0
I0
I0
I0
I0
I0
I1
I0
I1
I0
tp1352
g50
tp1353
g4
(g8
S'R\xb8\x81D\x9e\x1b\xac?'
p1354
tp1355
Rp1356
s((I1
I0
I0
I0
I1
I1
I1
I1
I1
I1
I1
I1
I1
I1
I1
I1
I1
I1
I1
I1
I1
I1
I1
I1
I0
I0
I0
I0
I0
I1
I1
I1
I0
tp1357
g73
tp1358
g4
(g8
S't\x9b\xc8$\x0cb\xcc?'
p1359
tp1360
Rp1361
s((I0
I0
I0
I1
I1
I1
I1
I1
I1
I1
I1
I1
I1
I1
I1
I1
I1
I1
I1
I1
I0
I0
I0
I0
I0
I0
I0
I0
I0
I1
I1
I1
I0
tp1362
g32
tp1363
g4
(g8
S'\x81\xeaq\xdf\xdbV\xf3?'
p1364
tp1365
Rp1366
s((I0
I0
I1
I0
I1
I1
I1
I1
I1
I1
I1
I1
I1
I1
I1
I1
I1
I1
I1
I1
I1
I1
I1
I0
I0
I0
I0
I0
I0
I1
I1
I1
I1
tp1367
g15
tp1368
g4
(g8
S'\xb2\xc5\x891\x9fR\xf8?'
p1369
tp1370
Rp1371
s((I0
I1
I0
I0
I1
I1
I1
I1
I1
I1
I1
I1
I1
I1
I1
I1
I1
I0
I0
I0
I0
I0
I0
I0
I0
I0
I0
I0
I0
I0
I0
I0
I0
tp1372
g91
tp1373
g4
(g8
S'G\xe0+\xa2s\xfd\xc0?'
p1374
tp1375
Rp1376
s((I0
I0
I0
I1
I1
I1
I1
I1
I1
I1
I1
I1
I1
I1
I1
I1
I1
I1
I0
I0
I0
I0
I0
I0
I0
I0
I0
I0
I0
I1
I0
I1
I0
tp1377
g32
tp1378
g4
(g8
S'G\xf2}\xe1\xfaH\xf6?'
p1379
tp1380
Rp1381
s((I0
I1
I0
I0
I1
I1
I1
I1
I1
I1
I1
I1
I1
I1
I1
I1
I1
I1
I1
I1
I1
I1
I1
I1
I1
I1
I1
I0
I0
I0
I1
I0
I1
tp1382
g317
tp1383
g4
(g8
S'\x9d\x16tK\xd1\x0e\xf7?'
p1384
tp1385
Rp1386
s((I0
I0
I1
I0
I1
I1
I1
I1
I1
I1
I1
I1
I1
I0
I0
I0
I0
I0
I0
I0
I0
I0
I0
I0
I0
I0
I0
I0
I0
I1
I1
I1
I0
tp1387
S'stay-short'
p1388
tp1389
g4
(g8
S'\x1b\x89O\xe4\xa7\x06\xc7?'
p1390
tp1391
Rp1392
s((I0
I1
I0
I0
I1
I1
I1
I1
I1
I1
I1
I1
I1
I1
I1
I1
I1
I1
I1
I1
I1
I1
I1
I1
I1
I1
I0
I0
I0
I0
I0
I0
I0
tp1393
g353
tp1394
g4
(g8
S'<\xf09\xcf3\x94\xc7?'
p1395
tp1396
Rp1397
s((I0
I0
I1
I0
I1
I1
I1
I1
I1
I1
I1
I1
I1
I1
I1
I1
I1
I1
I1
I1
I1
I1
I1
I1
I0
I0
I0
I0
I0
I0
I0
I0
I0
tp1398
g274
tp1399
g4
(g8
S'\xe8jiE}\xd5\n@'
p1400
tp1401
Rp1402
s((I1
I0
I0
I0
I1
I1
I1
I1
I1
I1
I1
I1
I0
I0
I0
I0
I0
I0
I0
I0
I0
I0
I0
I0
I0
I0
I0
I0
I0
I1
I1
I1
I1
tp1403
g79
tp1404
g4
(g8
S'Q<\xf9\x06\xa67\xf1?'
p1405
tp1406
Rp1407
s((I0
I0
I1
I0
I1
I1
I1
I1
I1
I1
I1
I1
I1
I1
I1
I1
I1
I1
I0
I0
I0
I0
I0
I0
I0
I0
I0
I0
I0
I0
I1
I0
I1
tp1408
g38
tp1409
F0.09090909090909091
s((I0
I0
I1
I0
I1
I1
I1
I1
I1
I1
I1
I1
I1
I1
I1
I1
I1
I1
I1
I1
I1
I1
I1
I1
I1
I1
I1
I0
I0
I0
I1
I1
I1
tp1410
g274
tp1411
g4
(g8
S'+\xce\x91\xbe\xcd\x19\xd5?'
p1412
tp1413
Rp1414
s((I1
I0
I0
I0
I1
I1
I1
I1
I1
I1
I1
I1
I1
I1
I0
I0
I0
I0
I0
I0
I0
I0
I0
I0
I0
I0
I0
I0
I0
I0
I1
I1
I1
tp1415
g44
tp1416
g4
(g8
S'\xea\x05\x82\xe2U\xc9\xe4?'
p1417
tp1418
Rp1419
s((I0
I1
I0
I0
I1
I1
I1
I1
I1
I1
I1
I1
I1
I1
I1
I1
I1
I1
I1
I1
I1
I1
I1
I1
I1
I1
I1
I1
I0
I1
I0
I1
I0
tp1420
g232
tp1421
g4
(g8
S'\xae\x92\xa4\x89J+\xa8?'
p1422
tp1423
Rp1424
s((I0
I0
I1
I0
I1
I1
I1
I1
I1
I1
I1
I1
I1
I1
I1
I1
I1
I1
I1
I1
I1
I1
I0
I0
I0
I0
I0
I0
I0
I1
I0
I1
I0
tp1425
g107
tp1426
g4
(g8
S'X\xd6\\M9\xa7\xf8?'
p1427
tp1428
Rp1429
s((I0
I1
I0
I0
I1
I1
I1
I1
I1
I1
I1
I1
I1
I1
I0
I0
I0
I0
I0
I0
I0
I0
I0
I0
I0
I0
I0
I0
I0
I1
I1
I0
I1
tp1430
g147
tp1431
g4
(g8
S'\xa8\xec\x9e7\xd6\xc3\x04@'
p1432
tp1433
Rp1434
s((I0
I0
I1
I0
I1
I1
I1
I1
I1
I1
I1
I1
I1
I1
I0
I0
I0
I0
I0
I0
I0
I0
I0
I0
I0
I0
I0
I0
I0
I1
I1
I0
I1
tp1435
g15
tp1436
g4
(g8
S'\x97@\xb8\x8e\x99z\xa8?'
p1437
tp1438
Rp1439
s((I0
I0
I0
I1
I1
I1
I1
I1
I1
I1
I1
I1
I1
I1
I1
I1
I1
I1
I1
I1
I1
I1
I1
I1
I1
I0
I0
I0
I0
I1
I1
I1
I1
tp1440
g32
tp1441
g4
(g8
S'u\xe1j9$y\xf7?'
p1442
tp1443
Rp1444
s((I1
I0
I0
I0
I1
I1
I1
I1
I1
I1
I1
I1
I1
I1
I1
I1
I1
I1
I1
I1
I1
I1
I1
I1
I1
I1
I1
I0
I0
I0
I0
I0
I0
tp1445
g73
tp1446
g4
(g8
S'I\x03/$\x8a\xf8\xf9?'
p1447
tp1448
Rp1449
s((I1
I0
I0
I0
I1
I1
I1
I1
I1
I1
I1
I1
I1
I1
I0
I0
I0
I0
I0
I0
I0
I0
I0
I0
I0
I0
I0
I0
I0
I0
I0
I1
I0
tp1450
g85
tp1451
g4
(g8
S'l\x1fG/l\xc5\xf0?'
p1452
tp1453
Rp1454
s((I0
I0
I1
I0
I1
I1
I1
I1
I1
I1
I1
I1
I1
I1
I1
I1
I1
I1
I1
I1
I1
I1
I1
I1
I1
I1
I1
I1
I0
I0
I0
I0
I1
tp1455
g38
tp1456
g4
(g8
S'\x0cy9\xbfa]\xa9?'
p1457
tp1458
Rp1459
s((I0
I0
I1
I0
I1
I1
I1
I1
I1
I1
I1
I1
I1
I1
I1
I1
I1
I1
I1
I1
I1
I1
I1
I1
I1
I1
I1
I1
I1
I1
I0
I1
I0
tp1460
g38
tp1461
g4
(g8
S'5Eh\x01\xbeZ\x0c@'
p1462
tp1463
Rp1464
s((I0
I1
I0
I0
I1
I1
I1
I1
I1
I1
I1
I1
I1
I1
I0
I0
I0
I0
I0
I0
I0
I0
I0
I0
I0
I0
I0
I0
I0
I1
I0
I0
I0
tp1465
g56
tp1466
g4
(g8
S'\xf4\xfe\xe9\xd0\x96y\xcb?'
p1467
tp1468
Rp1469
s((I1
I0
I0
I0
I1
I1
I1
I1
I1
I1
I1
I1
I1
I1
I1
I1
I1
I1
I1
I1
I1
I1
I1
I1
I0
I0
I0
I0
I0
I0
I0
I1
I0
tp1470
g248
tp1471
g4
(g8
S'\xbf\x06-U\x1e@\xd7?'
p1472
tp1473
Rp1474
s((I1
I0
I0
I0
I1
I1
I1
I1
I1
I1
I1
I1
I1
I1
I1
I1
I1
I1
I1
I1
I1
I1
I1
I1
I1
I1
I1
I1
I1
I1
I1
I1
I0
tp1475
g158
tp1476
g4
(g8
S'\x10|\x8dzwl\xf0?'
p1477
tp1478
Rp1479
s((I1
I0
I0
I0
I0
I0
I0
I0
I0
I0
I0
I0
I0
I0
I0
I0
I0
I0
I0
I0
I0
I0
I0
I0
I0
I0
I0
I0
I0
I1
I1
I1
I1
tp1480
g85
tp1481
g4
(g8
S'\x1bI\xfc\x9f\x13I\xfc?'
p1482
tp1483
Rp1484
s((I1
I0
I0
I0
I1
I1
I1
I1
I1
I1
I1
I1
I0
I0
I0
I0
I0
I0
I0
I0
I0
I0
I0
I0
I0
I0
I0
I0
I0
I1
I1
I1
I1
tp1485
g119
tp1486
g4
(g8
S'\x13]v\x10\xa0\x8a\xf2?'
p1487
tp1488
Rp1489
s((I0
I0
I1
I0
I1
I1
I1
I1
I1
I1
I1
I1
I1
I0
I0
I0
I0
I0
I0
I0
I0
I0
I0
I0
I0
I0
I0
I0
I0
I0
I1
I0
I1
tp1490
g38
tp1491
g4
(g8
S'W\xea\xa1\xf6\xce\xdb\x04@'
p1492
tp1493
Rp1494
s((I0
I1
I0
I0
I1
I1
I1
I1
I1
I1
I1
I1
I1
I1
I1
I1
I1
I1
I1
I1
I1
I1
I1
I1
I1
I1
I1
I1
I1
I1
I1
I0
I1
tp1495
g91
tp1496
g4
(g8
S':?\x153O<\xfd?'
p1497
tp1498
Rp1499
s((I0
I0
I1
I0
I1
I1
I1
I1
I1
I1
I1
I1
I1
I1
I1
I1
I1
I1
I1
I1
I1
I1
I1
I1
I1
I1
I1
I1
I1
I0
I0
I1
I0
tp1500
g38
tp1501
g4
(g8
S'}U\x98\x88t\x19\x0c@'
p1502
tp1503
Rp1504
s((I0
I0
I0
I1
I1
I1
I1
I1
I1
I1
I1
I1
I1
I1
I1
I1
I1
I1
I1
I1
I0
I0
I0
I0
I0
I0
I0
I0
I0
I0
I1
I0
I1
tp1505
S'completed'
p1506
tp1507
g4
(g8
S'W\xe7\x81\x04R)\xf0?'
p1508
tp1509
Rp1510
s((I1
I0
I0
I0
I1
I1
I1
I1
I1
I1
I1
I1
I1
I1
I1
I1
I1
I1
I0
I0
I0
I0
I0
I0
I0
I0
I0
I0
I0
I0
I0
I1
I0
tp1511
g119
tp1512
g4
(g8
S'\x88\xafk\xdb\xcc\xee\xd7?'
p1513
tp1514
Rp1515
s((I1
I0
I0
I0
I1
I1
I1
I1
I1
I1
I1
I1
I1
I1
I1
I1
I1
I1
I1
I1
I1
I1
I1
I0
I0
I0
I0
I0
I0
I1
I1
I0
I1
tp1516
g73
tp1517
g4
(g8
S'd\x9a\r\xa5\x13\x13\x03@'
p1518
tp1519
Rp1520
s((I0
I0
I1
I0
I1
I1
I1
I1
I1
I0
I0
I0
I0
I0
I0
I0
I0
I0
I0
I0
I0
I0
I0
I0
I0
I0
I0
I0
I0
I1
I1
I0
I1
tp1521
g15
tp1522
g4
(g8
S'JK\x16\xe2+S\xa7?'
p1523
tp1524
Rp1525
s((I1
I0
I0
I0
I1
I1
I1
I1
I1
I1
I0
I0
I0
I0
I0
I0
I0
I0
I0
I0
I0
I0
I0
I0
I0
I0
I0
I0
I0
I0
I0
I0
I0
tp1526
g73
tp1527
g4
(g8
S'\x8d\xee\x0e \x11<\xa7?'
p1528
tp1529
Rp1530
s((I0
I0
I1
I0
I1
I1
I1
I1
I1
I1
I1
I1
I1
I1
I1
I1
I1
I1
I1
I1
I1
I1
I1
I1
I0
I0
I0
I0
I0
I0
I0
I0
I1
tp1531
g15
tp1532
g4
(g8
S'\x9b\xbb\x1e?\xd0\xcb\xb8?'
p1533
tp1534
Rp1535
s((I0
I1
I0
I0
I1
I1
I1
I1
I1
I1
I1
I1
I1
I1
I1
I1
I1
I1
I1
I1
I1
I1
I1
I1
I1
I1
I1
I1
I0
I1
I0
I1
I0
tp1536
g56
tp1537
g4
(g8
S'\xc0\x9f\\}I\xe7\xd2?'
p1538
tp1539
Rp1540
s((I0
I0
I1
I0
I1
I1
I1
I1
I1
I0
I0
I0
I0
I0
I0
I0
I0
I0
I0
I0
I0
I0
I0
I0
I0
I0
I0
I0
I0
I1
I1
I1
I0
tp1541
g15
tp1542
g4
(g8
S'\xfd%\xa2d\xd4\xa1\xf2?'
p1543
tp1544
Rp1545
s((I1
I0
I0
I0
I1
I1
I1
I1
I1
I1
I1
I1
I1
I1
I1
I1
I1
I1
I1
I1
I1
I1
I1
I1
I0
I0
I0
I0
I0
I0
I0
I0
I0
tp1546
g119
tp1547
g4
(g8
S'\xc9<\x12Q%D\xf5?'
p1548
tp1549
Rp1550
s((I0
I0
I1
I0
I1
I1
I1
I1
I1
I1
I1
I1
I1
I1
I1
I1
I1
I1
I1
I1
I0
I0
I0
I0
I0
I0
I0
I0
I0
I0
I1
I0
I1
tp1551
g274
tp1552
g4
(g8
S'h\xab\xb1\xf0\x16\xdc\xc3?'
p1553
tp1554
Rp1555
s((I1
I0
I0
I0
I1
I1
I1
I1
I1
I1
I1
I1
I1
I1
I1
I1
I1
I1
I1
I1
I1
I0
I0
I0
I0
I0
I0
I0
I0
I1
I1
I1
I1
tp1556
g119
tp1557
g4
(g8
S'C!d\xbf1,\xdb?'
p1558
tp1559
Rp1560
s((I0
I1
I0
I0
I1
I1
I1
I1
I1
I1
I1
I1
I1
I1
I1
I1
I1
I1
I1
I1
I1
I1
I1
I1
I1
I1
I0
I0
I0
I1
I1
I1
I1
tp1561
g91
tp1562
g4
(g8
S'\xa7\xa5\xd0\xf20T\xf6?'
p1563
tp1564
Rp1565
s((I0
I0
I0
I1
I1
I1
I1
I1
I1
I1
I1
I1
I1
I1
I1
I1
I0
I0
I0
I0
I0
I0
I0
I0
I0
I0
I0
I0
I0
I0
I0
I0
I0
tp1566
g1506
tp1567
g4
(g8
S'h\x81)IO\x87\xec?'
p1568
tp1569
Rp1570
s((I1
I0
I0
I0
I1
I1
I1
I1
I0
I0
I0
I0
I0
I0
I0
I0
I0
I0
I0
I0
I0
I0
I0
I0
I0
I0
I0
I0
I0
I0
I0
I0
I0
tp1571
g21
tp1572
g4
(g8
S'D\xcc_\xc8\xb87\xe2?'
p1573
tp1574
Rp1575
s((I0
I1
I0
I0
I1
I1
I1
I1
I1
I1
I1
I1
I1
I1
I1
I1
I0
I0
I0
I0
I0
I0
I0
I0
I0
I0
I0
I0
I0
I0
I0
I0
I0
tp1576
g91
tp1577
g4
(g8
S'Pb)\xa30k\xed?'
p1578
tp1579
Rp1580
s((I0
I0
I1
I0
I1
I1
I1
I1
I1
I1
I1
I1
I1
I1
I1
I1
I1
I1
I1
I1
I1
I0
I0
I0
I0
I0
I0
I0
I0
I0
I0
I0
I0
tp1581
g107
tp1582
g4
(g8
S'\xb7CjR8}\xd8?'
p1583
tp1584
Rp1585
s((I1
I0
I0
I0
I1
I1
I1
I1
I1
I1
I1
I1
I1
I1
I1
I1
I1
I1
I1
I1
I1
I1
I1
I1
I1
I1
I1
I1
I0
I1
I1
I1
I0
tp1586
g119
tp1587
g4
(g8
S'A\xda2\xcb\x8f\x0e\xe3?'
p1588
tp1589
Rp1590
s((I1
I0
I0
I0
I1
I1
I1
I1
I1
I1
I1
I1
I1
I1
I1
I1
I1
I1
I1
I1
I1
I1
I1
I1
I1
I1
I1
I0
I0
I1
I1
I1
I0
tp1591
g226
tp1592
g4
(g8
S'B#\xf19\x93\xd5\x04@'
p1593
tp1594
Rp1595
s((I1
I0
I0
I0
I1
I1
I1
I1
I1
I1
I1
I1
I1
I1
I1
I1
I1
I1
I1
I1
I1
I1
I1
I1
I0
I0
I0
I0
I0
I1
I1
I1
I0
tp1596
g119
tp1597
g4
(g8
S'\xa2\xcc\xbeiy\x86\x06@'
p1598
tp1599
Rp1600
s((I1
I0
I0
I0
I1
I1
I1
I1
I1
I1
I1
I1
I1
I1
I1
I0
I0
I0
I0
I0
I0
I0
I0
I0
I0
I0
I0
I0
I0
I0
I0
I0
I1
tp1601
g73
tp1602
g4
(g8
S'D\x99g6\x9f\xba\xcc?'
p1603
tp1604
Rp1605
s((I0
I0
I1
I0
I1
I1
I1
I1
I1
I1
I1
I1
I1
I0
I0
I0
I0
I0
I0
I0
I0
I0
I0
I0
I0
I0
I0
I0
I0
I0
I0
I0
I0
tp1606
g107
tp1607
g4
(g8
S'OF\x94\x86\xa2J\xcc?'
p1608
tp1609
Rp1610
s((I1
I0
I0
I0
I0
I0
I0
I0
I0
I0
I0
I0
I0
I0
I0
I0
I0
I0
I0
I0
I0
I0
I0
I0
I0
I0
I0
I0
I0
I1
I1
I0
I1
tp1611
g44
tp1612
g4
(g8
S'8\xf6o\xd5\xb0\xce\x02@'
p1613
tp1614
Rp1615
s((I0
I0
I1
I0
I1
I1
I1
I1
I1
I1
I1
I1
I1
I1
I1
I1
I1
I1
I1
I1
I1
I1
I1
I1
I1
I1
I0
I0
I0
I0
I0
I1
I0
tp1616
g113
tp1617
g4
(g8
S'<\xef\x08\xe8\x97\xe3\t@'
p1618
tp1619
Rp1620
s((I1
I0
I0
I0
I1
I1
I1
I1
I1
I0
I0
I0
I0
I0
I0
I0
I0
I0
I0
I0
I0
I0
I0
I0
I0
I0
I0
I0
I0
I0
I0
I1
I0
tp1621
g44
tp1622
g4
(g8
S'X6\x97u\xee\xd7\xef?'
p1623
tp1624
Rp1625
s((I0
I0
I1
I0
I1
I1
I1
I1
I1
I1
I1
I1
I0
I0
I0
I0
I0
I0
I0
I0
I0
I0
I0
I0
I0
I0
I0
I0
I0
I0
I0
I0
I0
tp1626
g136
tp1627
g4
(g8
S'\x1e\xf2\xa5\xa5.\x9a\xd1?'
p1628
tp1629
Rp1630
s((I0
I1
I0
I0
I1
I1
I1
I1
I1
I1
I1
I1
I1
I1
I0
I0
I0
I0
I0
I0
I0
I0
I0
I0
I0
I0
I0
I0
I0
I0
I0
I0
I1
tp1631
g353
tp1632
g4
(g8
S'\x8d N\xf1e\x87\x01@'
p1633
tp1634
Rp1635
s((I1
I0
I0
I0
I1
I1
I1
I1
I1
I1
I1
I1
I1
I1
I1
I1
I1
I1
I1
I0
I0
I0
I0
I0
I0
I0
I0
I0
I0
I1
I1
I1
I0
tp1636
g79
tp1637
g4
(g8
S'\x0b%\xb8\x1a\x12\xf2\xf4?'
p1638
tp1639
Rp1640
s((I0
I0
I1
I0
I1
I1
I1
I1
I1
I1
I1
I1
I1
I0
I0
I0
I0
I0
I0
I0
I0
I0
I0
I0
I0
I0
I0
I0
I0
I1
I0
I0
I0
tp1641
g38
tp1642
g4
(g8
S'%z\xb9\xa3)\x1b\x05@'
p1643
tp1644
Rp1645
s((I0
I1
I0
I0
I1
I1
I1
I1
I1
I0
I0
I0
I0
I0
I0
I0
I0
I0
I0
I0
I0
I0
I0
I0
I0
I0
I0
I0
I0
I0
I1
I0
I1
tp1646
g91
tp1647
g4
(g8
S'\xc2w\x14\x03\xa2e\xc9?'
p1648
tp1649
Rp1650
s((I1
I0
I0
I0
I1
I1
I1
I1
I1
I1
I1
I1
I1
I1
I1
I1
I1
I1
I1
I1
I1
I1
I1
I1
I1
I1
I1
I1
I1
I0
I0
I0
I1
tp1651
g21
tp1652
g4
(g8
S'\x9d\x01\x16\x131?\x00@'
p1653
tp1654
Rp1655
s((I0
I0
I0
I1
I1
I1
I1
I1
I1
I1
I1
I1
I1
I1
I1
I1
I1
I1
I1
I1
I1
I1
I1
I0
I0
I0
I0
I0
I0
I1
I0
I0
I0
tp1656
g615
tp1657
g4
(g8
S'\xd5Q\xd2g\x07\xa6\xda?'
p1658
tp1659
Rp1660
s((I0
I0
I0
I1
I1
I1
I1
I1
I1
I1
I1
I1
I1
I1
I1
I1
I1
I1
I1
I1
I1
I1
I1
I1
I1
I1
I1
I0
I0
I1
I0
I0
I0
tp1661
g220
tp1662
g4
(g8
S'\x04\xa0\x94\x86\xb7\xfa\xed?'
p1663
tp1664
Rp1665
s((I0
I1
I0
I0
I1
I1
I1
I1
I1
I1
I1
I1
I1
I1
I1
I1
I1
I1
I1
I0
I0
I0
I0
I0
I0
I0
I0
I0
I0
I1
I1
I1
I1
tp1666
g353
tp1667
g4
(g8
S'\x17\x9d\x1d\x8d\x80\xb1\x05@'
p1668
tp1669
Rp1670
s((I0
I0
I0
I1
I1
I1
I1
I1
I1
I1
I1
I1
I1
I1
I0
I0
I0
I0
I0
I0
I0
I0
I0
I0
I0
I0
I0
I0
I0
I1
I0
I1
I0
tp1671
g32
tp1672
g4
(g8
S'\xac\x8f8Y\xba\xed\xf2?'
p1673
tp1674
Rp1675
s((I0
I0
I1
I0
I1
I1
I1
I1
I1
I1
I1
I1
I1
I1
I1
I1
I1
I1
I1
I0
I0
I0
I0
I0
I0
I0
I0
I0
I0
I0
I1
I0
I1
tp1676
g38
tp1677
g4
(g8
S'\x94\xa0}\xf9o5\xb1?'
p1678
tp1679
Rp1680
s((I0
I0
I0
I1
I1
I1
I1
I1
I1
I1
I1
I1
I1
I1
I1
I1
I1
I1
I1
I1
I1
I1
I1
I1
I0
I0
I0
I0
I0
I0
I1
I0
I1
tp1681
g32
tp1682
g4
(g8
S'\x16,\xab\xa7 \x04\xf3?'
p1683
tp1684
Rp1685
s((I0
I1
I0
I0
I1
I1
I1
I1
I1
I1
I1
I1
I1
I1
I1
I1
I1
I1
I0
I0
I0
I0
I0
I0
I0
I0
I0
I0
I0
I0
I1
I0
I1
tp1686
g147
tp1687
g4
(g8
S'"\x87\x16\x99\xc2a\x03@'
p1688
tp1689
Rp1690
s((I0
I1
I0
I0
I1
I1
I1
I1
I1
I1
I1
I1
I1
I1
I1
I1
I1
I1
I1
I0
I0
I0
I0
I0
I0
I0
I0
I0
I0
I0
I0
I0
I1
tp1691
g50
tp1692
g4
(g8
S'\xab\xfa\xd7\xff\x16\xfb\xf2?'
p1693
tp1694
Rp1695
s((I0
I1
I0
I0
I1
I1
I1
I1
I1
I1
I1
I1
I1
I1
I1
I1
I1
I1
I1
I1
I1
I1
I1
I1
I1
I1
I1
I1
I1
I0
I1
I1
I1
tp1696
g317
tp1697
g4
(g8
S'\x16\x10\x8d \xae\xae\xf4?'
p1698
tp1699
Rp1700
s((I1
I0
I0
I0
I1
I1
I1
I1
I1
I1
I1
I1
I0
I0
I0
I0
I0
I0
I0
I0
I0
I0
I0
I0
I0
I0
I0
I0
I0
I0
I0
I1
I0
tp1701
g248
tp1702
g4
(g8
S'\x0eY\x98\x91F\x9a\x01@'
p1703
tp1704
Rp1705
s((I0
I1
I0
I0
I1
I1
I1
I1
I1
I1
I1
I1
I1
I1
I1
I1
I1
I1
I1
I1
I1
I1
I1
I1
I1
I1
I1
I1
I1
I1
I0
I0
I0
tp1706
g147
tp1707
g4
(g8
S'Qj\xc43O\xc7\x02@'
p1708
tp1709
Rp1710
s((I1
I0
I0
I0
I1
I1
I1
I1
I1
I1
I1
I1
I1
I1
I0
I0
I0
I0
I0
I0
I0
I0
I0
I0
I0
I0
I0
I0
I0
I0
I0
I0
I1
tp1711
g44
tp1712
F0.09523809523809523
s((I0
I0
I0
I1
I1
I1
I1
I1
I1
I1
I1
I1
I1
I1
I1
I1
I1
I1
I1
I1
I1
I1
I0
I0
I0
I0
I0
I0
I0
I1
I1
I1
I1
tp1713
g32
tp1714
g4
(g8
S'\x0e\xfb\x8c\xff\xa7\x85\xf2?'
p1715
tp1716
Rp1717
s((I0
I0
I1
I0
I1
I1
I1
I1
I1
I1
I1
I1
I1
I1
I1
I1
I1
I1
I1
I1
I1
I1
I1
I1
I1
I1
I1
I1
I1
I0
I0
I0
I1
tp1718
g38
tp1719
g4
(g8
S'+\xcf\x9dVT%\t@'
p1720
tp1721
Rp1722
s((I1
I0
I0
I0
I1
I1
I1
I1
I1
I1
I1
I1
I1
I0
I0
I0
I0
I0
I0
I0
I0
I0
I0
I0
I0
I0
I0
I0
I0
I1
I0
I1
I0
tp1723
g248
tp1724
g4
(g8
S'\xd4\x7fHCl\xda\xc0?'
p1725
tp1726
Rp1727
s((I1
I0
I0
I0
I1
I1
I1
I1
I1
I1
I1
I1
I1
I1
I1
I1
I1
I1
I0
I0
I0
I0
I0
I0
I0
I0
I0
I0
I0
I1
I1
I1
I1
tp1728
g73
tp1729
g4
(g8
S'\xcd\xe2\x96\x1c\x8fq\x04@'
p1730
tp1731
Rp1732
s((I1
I0
I0
I0
I0
I0
I0
I0
I0
I0
I0
I0
I0
I0
I0
I0
I0
I0
I0
I0
I0
I0
I0
I0
I0
I0
I0
I0
I0
I1
I1
I1
I0
tp1733
g119
tp1734
g4
(g8
S'\xd4\xf8a\xbe\x92V\xa5?'
p1735
tp1736
Rp1737
s((I0
I0
I1
I0
I1
I1
I1
I1
I1
I1
I1
I1
I1
I1
I1
I1
I1
I1
I1
I1
I1
I1
I1
I0
I0
I0
I0
I0
I0
I0
I1
I1
I1
tp1738
g274
tp1739
g4
(g8
S'^\xa4$\x16kk\xd1?'
p1740
tp1741
Rp1742
s((I1
I0
I0
I0
I1
I1
I1
I1
I1
I1
I1
I1
I1
I1
I0
I0
I0
I0
I0
I0
I0
I0
I0
I0
I0
I0
I0
I0
I0
I1
I0
I0
I0
tp1743
g119
tp1744
g4
(g8
S'\x8e\x8d\xb6\xc0\xfb"\xe7?'
p1745
tp1746
Rp1747
s((I0
I1
I0
I0
I1
I1
I1
I1
I1
I1
I1
I1
I1
I1
I1
I1
I1
I1
I1
I1
I1
I1
I1
I0
I0
I0
I0
I0
I0
I1
I1
I1
I0
tp1748
g56
tp1749
g4
(g8
S'\x8c/\x18/\xfa&\x06@'
p1750
tp1751
Rp1752
s((I0
I0
I0
I1
I1
I1
I1
I1
I1
I1
I1
I1
I1
I1
I1
I1
I1
I1
I1
I1
I1
I1
I1
I1
I1
I1
I1
I1
I1
I1
I1
I1
I1
tp1753
g32
tp1754
g4
(g8
S';\xed$\xe6\xef}\xf7?'
p1755
tp1756
Rp1757
s((I0
I0
I1
I0
I1
I1
I1
I1
I1
I1
I1
I1
I1
I1
I1
I1
I1
I1
I1
I1
I1
I1
I1
I1
I0
I0
I0
I0
I0
I0
I1
I1
I1
tp1758
g38
tp1759
g4
(g8
S'\xe2\xc4\xedn\x11<\xc6?'
p1760
tp1761
Rp1762
s((I0
I0
I1
I0
I1
I1
I1
I1
I1
I0
I0
I0
I0
I0
I0
I0
I0
I0
I0
I0
I0
I0
I0
I0
I0
I0
I0
I0
I0
I0
I1
I0
I1
tp1763
g38
tp1764
g4
(g8
S'8p)2ZD\xec?'
p1765
tp1766
Rp1767
s((I0
I1
I0
I0
I1
I1
I1
I1
I1
I1
I1
I1
I1
I1
I1
I1
I1
I1
I1
I1
I1
I0
I0
I0
I0
I0
I0
I0
I0
I0
I1
I1
I1
tp1768
g317
tp1769
g4
(g8
S'\x98\x84\x18E4\x8c\xf6?'
p1770
tp1771
Rp1772
s((I1
I0
I0
I0
I1
I1
I1
I1
I1
I1
I1
I1
I1
I1
I1
I1
I1
I1
I1
I1
I0
I0
I0
I0
I0
I0
I0
I0
I0
I0
I0
I0
I1
tp1773
g73
tp1774
g4
(g8
S'\xe2}#P\xa3\xb5\xd5?'
p1775
tp1776
Rp1777
s((I1
I0
I0
I0
I1
I1
I1
I1
I1
I1
I0
I0
I0
I0
I0
I0
I0
I0
I0
I0
I0
I0
I0
I0
I0
I0
I0
I0
I0
I0
I1
I0
I1
tp1778
g73
tp1779
g4
(g8
S'-\xd4\x18\xab`\xeb\xc3?'
p1780
tp1781
Rp1782
s((I0
I0
I1
I0
I1
I1
I1
I1
I1
I1
I1
I1
I1
I1
I1
I1
I1
I1
I1
I1
I1
I1
I1
I0
I0
I0
I0
I0
I0
I0
I1
I1
I1
tp1783
g125
tp1784
g4
(g8
S"Q\xca\x8bc\x89'\xe4?"
p1785
tp1786
Rp1787
s((I1
I0
I0
I0
I1
I1
I1
I1
I1
I1
I1
I1
I1
I1
I1
I1
I1
I1
I1
I1
I1
I1
I1
I1
I1
I1
I1
I1
I1
I1
I0
I0
I0
tp1788
g1101
tp1789
g4
(g8
S'\xd5\x08oK\x11\x82\xe3?'
p1790
tp1791
Rp1792
s((I0
I0
I1
I0
I1
I1
I1
I1
I1
I1
I1
I1
I1
I1
I1
I1
I1
I0
I0
I0
I0
I0
I0
I0
I0
I0
I0
I0
I0
I1
I1
I1
I1
tp1793
g626
tp1794
g4
(g8
S'\x1e\xd3\xd97\xf1\x8c\xf2?'
p1795
tp1796
Rp1797
s((I0
I0
I0
I1
I1
I1
I1
I1
I1
I1
I1
I1
I1
I1
I0
I0
I0
I0
I0
I0
I0
I0
I0
I0
I0
I0
I0
I0
I0
I1
I1
I1
I1
tp1798
g32
tp1799
g4
(g8
S'[\xbf0\xf6\x1f(\xf3?'
p1800
tp1801
Rp1802
s((I1
I0
I0
I0
I1
I1
I1
I1
I1
I1
I1
I1
I1
I1
I1
I1
I1
I1
I0
I0
I0
I0
I0
I0
I0
I0
I0
I0
I0
I1
I1
I0
I1
tp1803
g73
tp1804
g4
(g8
S'Y\xffD\xc4\xb9\xc8\x06@'
p1805
tp1806
Rp1807
s((I0
I1
I0
I0
I1
I1
I1
I1
I1
I1
I1
I1
I1
I1
I1
I1
I1
I1
I1
I1
I1
I1
I1
I1
I0
I0
I0
I0
I0
I1
I1
I1
I0
tp1808
g147
tp1809
g4
(g8
S's\x80sJ\x01]\xa3?'
p1810
tp1811
Rp1812
s((I0
I0
I1
I0
I1
I1
I1
I1
I1
I1
I1
I1
I1
I1
I1
I1
I1
I1
I1
I1
I1
I1
I1
I1
I1
I1
I0
I0
I0
I0
I0
I0
I1
tp1813
g38
tp1814
g4
(g8
S'"3\xd9\tA.\x0b@'
p1815
tp1816
Rp1817
s((I0
I0
I1
I0
I1
I1
I1
I1
I1
I1
I1
I1
I1
I1
I1
I1
I1
I1
I1
I1
I1
I1
I1
I1
I0
I0
I0
I0
I0
I1
I1
I1
I0
tp1818
g136
tp1819
g4
(g8
S'u\xfe\r\xfe\xd0`\xf9?'
p1820
tp1821
Rp1822
s((I1
I0
I0
I0
I1
I1
I1
I1
I1
I1
I1
I1
I1
I1
I1
I1
I1
I1
I1
I1
I1
I1
I1
I1
I1
I1
I1
I1
I0
I0
I0
I0
I0
tp1823
g248
tp1824
g4
(g8
S'\xee066\x99\xbf\xd9?'
p1825
tp1826
Rp1827
s((I0
I0
I0
I1
I1
I1
I1
I1
I1
I1
I1
I1
I1
I1
I1
I1
I1
I1
I1
I1
I1
I1
I1
I0
I0
I0
I0
I0
I0
I0
I0
I0
I1
tp1828
g32
tp1829
g4
(g8
S'\x93\xbe\xa6;l\x13\xf2?'
p1830
tp1831
Rp1832
s((I0
I0
I1
I0
I1
I1
I1
I1
I1
I1
I1
I1
I1
I1
I1
I1
I1
I1
I1
I1
I1
I1
I0
I0
I0
I0
I0
I0
I0
I0
I0
I0
I0
tp1833
g38
tp1834
g4
(g8
S'\xc9\x94\x03\x7f\x18\x84\t@'
p1835
tp1836
Rp1837
s((I0
I1
I0
I0
I1
I1
I1
I1
I1
I1
I1
I1
I1
I1
I0
I0
I0
I0
I0
I0
I0
I0
I0
I0
I0
I0
I0
I0
I0
I0
I0
I1
I0
tp1838
g147
tp1839
g4
(g8
S's\xdc\xd1\x12\x80#\xd6?'
p1840
tp1841
Rp1842
s((I0
I0
I0
I1
I1
I1
I1
I1
I1
I1
I1
I1
I1
I1
I1
I1
I1
I1
I1
I1
I1
I1
I0
I0
I0
I0
I0
I0
I0
I0
I1
I0
I1
tp1843
g32
tp1844
g4
(g8
S'5\x02\x1b\x84[\xfc\xf5?'
p1845
tp1846
Rp1847
s((I1
I0
I0
I0
I1
I1
I1
I1
I1
I1
I1
I1
I1
I1
I1
I1
I1
I1
I1
I0
I0
I0
I0
I0
I0
I0
I0
I0
I0
I1
I1
I1
I1
tp1848
g248
tp1849
g4
(g8
S'\x9e\x93\xc4/B\xf9\x04@'
p1850
tp1851
Rp1852
s((I1
I0
I0
I0
I1
I1
I1
I1
I0
I0
I0
I0
I0
I0
I0
I0
I0
I0
I0
I0
I0
I0
I0
I0
I0
I0
I0
I0
I0
I1
I0
I1
I0
tp1853
g79
tp1854
g4
(g8
S"30\x85\x1e\xb4'\x02@"
p1855
tp1856
Rp1857
s((I0
I0
I1
I0
I1
I1
I1
I1
I1
I1
I1
I1
I1
I1
I1
I1
I1
I1
I1
I1
I1
I0
I0
I0
I0
I0
I0
I0
I0
I1
I1
I1
I1
tp1858
g136
tp1859
g4
(g8
S'\x8d5\xaa\xe6fY\xf5?'
p1860
tp1861
Rp1862
s((I1
I0
I0
I0
I1
I1
I1
I1
I1
I1
I1
I1
I1
I1
I1
I1
I0
I0
I0
I0
I0
I0
I0
I0
I0
I0
I0
I0
I0
I1
I1
I1
I0
tp1863
g85
tp1864
g4
(g8
S'\x89\x9142G\xf1\xd9?'
p1865
tp1866
Rp1867
s((I0
I1
I0
I0
I1
I1
I1
I1
I1
I1
I1
I1
I1
I1
I1
I0
I0
I0
I0
I0
I0
I0
I0
I0
I0
I0
I0
I0
I0
I0
I0
I0
I1
tp1868
g317
tp1869
g4
(g8
S'\xd4\x1et8\xe9\xd5\xf1?'
p1870
tp1871
Rp1872
s((I0
I0
I0
I1
I1
I1
I1
I1
I1
I1
I1
I1
I1
I1
I1
I1
I1
I1
I1
I1
I1
I1
I1
I1
I1
I1
I1
I0
I0
I1
I0
I0
I1
tp1873
g220
tp1874
g4
(g8
S'\xb7\xa1\xb6X\x01y\xf7?'
p1875
tp1876
Rp1877
s((I0
I0
I1
I0
I1
I1
I1
I1
I1
I1
I1
I1
I1
I1
I1
I1
I1
I1
I0
I0
I0
I0
I0
I0
I0
I0
I0
I0
I0
I0
I0
I0
I0
tp1878
g38
tp1879
g4
(g8
S'\xec\xd1l\xfcF7\x07@'
p1880
tp1881
Rp1882
s((I0
I1
I0
I0
I1
I1
I1
I1
I1
I1
I1
I1
I1
I1
I1
I1
I1
I1
I1
I1
I1
I1
I1
I1
I1
I0
I0
I0
I0
I1
I1
I1
I1
tp1883
g1080
tp1884
g4
(g8
S'\xdbu\x1e0\x13h\xe4?'
p1885
tp1886
Rp1887
s((I0
I0
I1
I0
I1
I1
I1
I1
I1
I1
I1
I1
I1
I0
I0
I0
I0
I0
I0
I0
I0
I0
I0
I0
I0
I0
I0
I0
I0
I1
I0
I0
I0
tp1888
g107
tp1889
g4
(g8
S'/\xc4n\x8c\x14\x12\xf0?'
p1890
tp1891
Rp1892
s((I0
I0
I1
I0
I1
I1
I1
I1
I1
I1
I1
I1
I1
I1
I0
I0
I0
I0
I0
I0
I0
I0
I0
I0
I0
I0
I0
I0
I0
I1
I1
I0
I1
tp1893
g38
tp1894
g4
(g8
S'\x7f\x82\x0b\xd3\xdc\xb2\xda?'
p1895
tp1896
Rp1897
s((I0
I0
I0
I1
I1
I1
I1
I1
I1
I1
I1
I1
I1
I0
I0
I0
I0
I0
I0
I0
I0
I0
I0
I0
I0
I0
I0
I0
I0
I1
I0
I0
I0
tp1898
S'completed'
p1899
tp1900
g4
(g8
S'G\x8d5\x03Zr\xce?'
p1901
tp1902
Rp1903
s((I0
I1
I0
I0
I1
I1
I1
I1
I1
I1
I1
I1
I1
I1
I1
I1
I1
I1
I1
I1
I1
I1
I0
I0
I0
I0
I0
I0
I0
I1
I1
I1
I1
tp1904
g147
tp1905
g4
(g8
S'\x86E\x19Z\xa61\x07@'
p1906
tp1907
Rp1908
s((I1
I0
I0
I0
I1
I1
I1
I1
I1
I1
I1
I1
I1
I1
I1
I1
I1
I1
I1
I1
I1
I1
I0
I0
I0
I0
I0
I0
I0
I0
I0
I0
I0
tp1909
g158
tp1910
g4
(g8
S'\x9a\x0cc\xa9}\x0b\xe1?'
p1911
tp1912
Rp1913
s((I0
I1
I0
I0
I1
I1
I1
I1
I1
I1
I1
I1
I1
I1
I1
I1
I1
I1
I1
I1
I1
I1
I1
I1
I1
I1
I1
I1
I1
I0
I1
I1
I0
tp1914
g91
tp1915
g4
(g8
S'{\x80A\xca[~\xf1?'
p1916
tp1917
Rp1918
s((I0
I0
I1
I0
I1
I1
I1
I1
I1
I1
I1
I1
I1
I1
I1
I1
I1
I1
I1
I1
I1
I1
I1
I1
I1
I1
I1
I1
I1
I0
I1
I0
I1
tp1919
g15
tp1920
g4
(g8
S'\xa0\xb9\xe7Tgc\xfb?'
p1921
tp1922
Rp1923
s((I0
I1
I0
I0
I1
I1
I1
I1
I1
I1
I1
I1
I1
I1
I1
I1
I1
I1
I1
I0
I0
I0
I0
I0
I0
I0
I0
I0
I0
I0
I0
I0
I0
tp1924
g91
tp1925
g4
(g8
S'\x94\x18\xb5z\xcf-\xf0?'
p1926
tp1927
Rp1928
s((I1
I0
I0
I0
I1
I1
I1
I1
I1
I1
I1
I1
I1
I1
I1
I1
I1
I1
I1
I1
I1
I1
I1
I1
I1
I0
I0
I0
I0
I1
I1
I1
I1
tp1929
g1101
tp1930
g4
(g8
S'\xbb~ea\x93f\xed?'
p1931
tp1932
Rp1933
s((I0
I0
I1
I0
I1
I1
I1
I1
I1
I1
I1
I1
I1
I0
I0
I0
I0
I0
I0
I0
I0
I0
I0
I0
I0
I0
I0
I0
I0
I0
I0
I0
I1
tp1934
g1388
tp1935
g4
(g8
S'\x0ei_l\xb6.\xc0?'
p1936
tp1937
Rp1938
s((I0
I0
I0
I1
I1
I1
I1
I1
I1
I1
I1
I1
I1
I1
I1
I1
I1
I1
I0
I0
I0
I0
I0
I0
I0
I0
I0
I0
I0
I0
I1
I0
I1
tp1939
g32
tp1940
g4
(g8
S'\x0c1[b\xa4=\xf3?'
p1941
tp1942
Rp1943
s((I0
I1
I0
I0
I1
I1
I1
I1
I1
I0
I0
I0
I0
I0
I0
I0
I0
I0
I0
I0
I0
I0
I0
I0
I0
I0
I0
I0
I0
I0
I0
I0
I1
tp1944
g147
tp1945
g4
(g8
S'\xd9\xe8\x17\xb5\xc1\x8e\x01@'
p1946
tp1947
Rp1948
s((I0
I1
I0
I0
I1
I1
I1
I1
I1
I1
I1
I1
I1
I1
I1
I1
I1
I1
I1
I1
I1
I1
I1
I1
I1
I1
I1
I1
I0
I0
I1
I0
I1
tp1949
g147
tp1950
g4
(g8
S'\x00\x83\x82\xc513\x05@'
p1951
tp1952
Rp1953
s((I0
I0
I1
I0
I1
I1
I1
I1
I1
I1
I1
I1
I1
I1
I1
I1
I1
I1
I1
I1
I1
I0
I0
I0
I0
I0
I0
I0
I0
I0
I0
I0
I0
tp1954
g38
tp1955
g4
(g8
S'n\xb2\xbaB\xe6\xb9\xcf?'
p1956
tp1957
Rp1958
s((I0
I1
I0
I0
I1
I1
I1
I1
I1
I1
I1
I1
I1
I1
I1
I1
I1
I1
I1
I1
I1
I1
I1
I1
I1
I1
I0
I0
I0
I0
I1
I0
I1
tp1959
g50
tp1960
g4
(g8
S'\xf56/A\x8b\xe9\xf2?'
p1961
tp1962
Rp1963
s((I0
I1
I0
I0
I1
I1
I1
I1
I1
I1
I1
I1
I1
I0
I0
I0
I0
I0
I0
I0
I0
I0
I0
I0
I0
I0
I0
I0
I0
I1
I1
I1
I0
tp1964
g91
tp1965
g4
(g8
S"\xd8\r\xf4\xe3h'\xf1?"
p1966
tp1967
Rp1968
s((I0
I0
I1
I0
I1
I1
I1
I1
I1
I1
I1
I1
I1
I1
I1
I1
I1
I1
I1
I1
I1
I1
I1
I0
I0
I0
I0
I0
I0
I1
I1
I0
I1
tp1969
g107
tp1970
g4
(g8
S'\xfcn\xb1\x90g\x8a\xf0?'
p1971
tp1972
Rp1973
s((I0
I0
I1
I0
I1
I1
I1
I1
I1
I1
I1
I1
I1
I1
I1
I0
I0
I0
I0
I0
I0
I0
I0
I0
I0
I0
I0
I0
I0
I0
I0
I0
I1
tp1974
g15
tp1975
g4
(g8
S'\xff\xefA\x1d\x9e\xf0\xef?'
p1976
tp1977
Rp1978
s((I0
I1
I0
I0
I1
I1
I1
I1
I1
I1
I1
I1
I1
I1
I1
I1
I1
I1
I1
I1
I1
I1
I1
I1
I1
I1
I1
I0
I0
I1
I0
I0
I1
tp1979
g50
tp1980
g4
(g8
S'\\+\x12\xc91\r\xe0?'
p1981
tp1982
Rp1983
s((I0
I0
I0
I1
I1
I1
I1
I1
I1
I1
I1
I1
I1
I1
I1
I1
I1
I1
I1
I1
I1
I1
I1
I1
I1
I1
I1
I0
I0
I0
I1
I1
I1
tp1984
g220
tp1985
g4
(g8
S'\x8e\x1b\xef\xbd2\xa3\xf5?'
p1986
tp1987
Rp1988
s((I1
I0
I0
I0
I1
I1
I1
I1
I1
I0
I0
I0
I0
I0
I0
I0
I0
I0
I0
I0
I0
I0
I0
I0
I0
I0
I0
I0
I0
I1
I1
I1
I1
tp1989
g85
tp1990
g4
(g8
S'\xb6]\xc0\x19\x18\xfb\xff?'
p1991
tp1992
Rp1993
s((I1
I0
I0
I0
I0
I0
I0
I0
I0
I0
I0
I0
I0
I0
I0
I0
I0
I0
I0
I0
I0
I0
I0
I0
I0
I0
I0
I0
I0
I1
I1
I1
I0
tp1994
g248
tp1995
g4
(g8
S'\xb0/\xb3\xfe\xf4/\x00@'
p1996
tp1997
Rp1998
s((I0
I0
I0
I1
I1
I1
I1
I1
I1
I1
I1
I1
I1
I1
I1
I1
I1
I1
I1
I1
I1
I1
I0
I0
I0
I0
I0
I0
I0
I1
I0
I1
I0
tp1999
g32
tp2000
g4
(g8
S'c\xc9\xce\xfb\rt\xf6?'
p2001
tp2002
Rp2003
s((I0
I1
I0
I0
I1
I1
I1
I1
I1
I1
I1
I1
I1
I1
I0
I0
I0
I0
I0
I0
I0
I0
I0
I0
I0
I0
I0
I0
I0
I1
I0
I1
I0
tp2004
g50
tp2005
g4
(g8
S'\x80\xdf\xc0G\xaeq\x99?'
p2006
tp2007
Rp2008
s((I1
I0
I0
I0
I1
I1
I1
I1
I1
I1
I1
I1
I1
I1
I1
I1
I1
I1
I1
I0
I0
I0
I0
I0
I0
I0
I0
I0
I0
I0
I0
I0
I0
tp2009
g85
tp2010
g4
(g8
S'\xc9+)w\xe7\x18\xfb?'
p2011
tp2012
Rp2013
s((I0
I0
I0
I1
I1
I1
I1
I1
I1
I1
I1
I1
I1
I1
I1
I1
I1
I1
I0
I0
I0
I0
I0
I0
I0
I0
I0
I0
I0
I1
I0
I0
I0
tp2014
g1899
tp2015
g4
(g8
S'G\xc4`Z^(\xbd?'
p2016
tp2017
Rp2018
s((I1
I0
I0
I0
I1
I1
I1
I1
I1
I0
I0
I0
I0
I0
I0
I0
I0
I0
I0
I0
I0
I0
I0
I0
I0
I0
I0
I0
I0
I1
I0
I1
I0
tp2019
g85
tp2020
g4
(g8
S'\xd4\xe8\xfa\x00\x9e\xd5\xf0?'
p2021
tp2022
Rp2023
s((I0
I0
I1
I0
I1
I1
I1
I1
I1
I1
I1
I1
I1
I1
I1
I1
I1
I1
I1
I1
I1
I1
I1
I1
I1
I1
I1
I1
I0
I0
I0
I0
I0
tp2024
g15
tp2025
g4
(g8
S'\x04\xa5\xcfBX\\\xf8?'
p2026
tp2027
Rp2028
s((I0
I1
I0
I0
I1
I1
I1
I1
I1
I1
I1
I1
I1
I1
I1
I1
I1
I1
I1
I1
I1
I1
I1
I1
I1
I1
I0
I0
I0
I1
I1
I1
I0
tp2029
g56
tp2030
g4
(g8
S'\x8d\x98\xeds\x0ek\xe3?'
p2031
tp2032
Rp2033
s((I0
I0
I0
I1
I1
I1
I1
I1
I1
I1
I1
I1
I1
I1
I1
I1
I1
I1
I1
I1
I1
I1
I1
I1
I1
I1
I1
I1
I1
I1
I1
I0
I1
tp2034
g32
tp2035
g4
(g8
S'5\x07\xb5\x8e\x18\xe2\xfb?'
p2036
tp2037
Rp2038
s((I1
I0
I0
I0
I1
I1
I1
I1
I1
I1
I1
I1
I1
I1
I1
I1
I1
I1
I1
I1
I1
I1
I1
I1
I1
I1
I1
I1
I1
I0
I0
I1
I0
tp2039
g1101
tp2040
g4
(g8
S' \xd2i\xf5\xadr\xea?'
p2041
tp2042
Rp2043
s((I0
I0
I1
I0
I1
I1
I1
I1
I1
I1
I1
I1
I1
I1
I1
I1
I1
I1
I1
I1
I1
I1
I1
I1
I1
I1
I1
I0
I0
I1
I1
I0
I1
tp2044
g274
tp2045
g4
(g8
S'\xc0H\x0bU\xb8T\xa7?'
p2046
tp2047
Rp2048
s((I0
I1
I0
I0
I1
I1
I1
I1
I1
I1
I1
I1
I1
I1
I1
I1
I0
I0
I0
I0
I0
I0
I0
I0
I0
I0
I0
I0
I0
I1
I1
I1
I1
tp2049
g317
tp2050
g4
(g8
S"\xf5i$'a\xab\xf2?"
p2051
tp2052
Rp2053
s((I1
I0
I0
I0
I1
I1
I1
I1
I1
I1
I1
I1
I1
I1
I1
I1
I1
I1
I1
I0
I0
I0
I0
I0
I0
I0
I0
I0
I0
I0
I0
I0
I0
tp2054
g248
tp2055
g4
(g8
S"O'\xae;A\xce\x04@"
p2056
tp2057
Rp2058
s((I1
I0
I0
I0
I0
I0
I0
I0
I0
I0
I0
I0
I0
I0
I0
I0
I0
I0
I0
I0
I0
I0
I0
I0
I0
I0
I0
I0
I0
I1
I1
I1
I1
tp2059
g44
tp2060
g4
(g8
S'\xc6\xca\xd4%\xf6\xfe\x02@'
p2061
tp2062
Rp2063
s((I0
I1
I0
I0
I1
I1
I1
I1
I1
I1
I1
I1
I1
I1
I1
I1
I0
I0
I0
I0
I0
I0
I0
I0
I0
I0
I0
I0
I0
I1
I1
I1
I0
tp2064
g50
tp2065
g4
(g8
S'\xef\x11\xadl\x15v\xf5?'
p2066
tp2067
Rp2068
s((I0
I1
I0
I0
I1
I1
I1
I1
I1
I1
I1
I1
I1
I1
I1
I1
I1
I1
I1
I1
I1
I1
I1
I1
I1
I1
I1
I1
I1
I1
I1
I1
I1
tp2069
g91
tp2070
g4
(g8
S'\x96\x825\xc0\x95\x91\xfc?'
p2071
tp2072
Rp2073
s((I0
I0
I1
I0
I1
I1
I1
I1
I1
I1
I1
I1
I1
I1
I1
I0
I0
I0
I0
I0
I0
I0
I0
I0
I0
I0
I0
I0
I0
I0
I0
I0
I0
tp2074
g15
tp2075
g4
(g8
S'v;O\xed\x7f\xbd\xf0?'
p2076
tp2077
Rp2078
s((I1
I0
I0
I0
I1
I1
I1
I1
I1
I1
I1
I1
I1
I1
I1
I1
I1
I1
I0
I0
I0
I0
I0
I0
I0
I0
I0
I0
I0
I1
I0
I0
I0
tp2079
g119
tp2080
g4
(g8
S'\xef\xb4h\xfc<h\xd3?'
p2081
tp2082
Rp2083
s((I0
I1
I0
I0
I1
I1
I1
I1
I1
I1
I1
I1
I1
I1
I1
I1
I1
I1
I1
I1
I1
I1
I1
I1
I0
I0
I0
I0
I0
I0
I1
I0
I0
tp2084
S'stay-long'
p2085
tp2086
g4
(g8
S'\xe4B\xcb\x91>_\xa4?'
p2087
tp2088
Rp2089
s((I0
I0
I1
I0
I1
I1
I1
I1
I1
I1
I1
I1
I1
I1
I1
I1
I1
I1
I1
I1
I0
I0
I0
I0
I0
I0
I0
I0
I0
I1
I1
I1
I1
tp2090
g626
tp2091
g4
(g8
S'wb\xf4\x16\x8b\x1b\xd9?'
p2092
tp2093
Rp2094
s((I0
I0
I1
I0
I1
I1
I1
I1
I1
I0
I0
I0
I0
I0
I0
I0
I0
I0
I0
I0
I0
I0
I0
I0
I0
I0
I0
I0
I0
I0
I0
I1
I0
tp2095
g15
tp2096
g4
(g8
S'O\t\xcf^\xab\x88\xf0?'
p2097
tp2098
Rp2099
s((I0
I1
I0
I0
I1
I1
I1
I1
I1
I1
I1
I1
I1
I1
I1
I1
I1
I1
I1
I1
I1
I1
I1
I1
I1
I1
I1
I1
I0
I0
I0
I0
I1
tp2100
g56
tp2101
g4
(g8
S'\xb8\xef2\x1a~\x99\xe0?'
p2102
tp2103
Rp2104
s((I0
I1
I0
I0
I1
I1
I1
I1
I1
I1
I1
I1
I1
I1
I1
I1
I1
I1
I1
I1
I1
I1
I1
I1
I1
I1
I1
I0
I0
I1
I1
I1
I1
tp2105
g91
tp2106
g4
(g8
S'\xb1\x0ep!\xe5\x01\xf8?'
p2107
tp2108
Rp2109
s((I0
I1
I0
I0
I1
I1
I1
I1
I1
I1
I1
I1
I1
I1
I1
I1
I1
I1
I1
I1
I0
I0
I0
I0
I0
I0
I0
I0
I0
I0
I1
I0
I1
tp2110
g147
tp2111
g4
(g8
S'\xc1\xafaHdx\x03@'
p2112
tp2113
Rp2114
s((I1
I0
I0
I0
I1
I1
I1
I1
I1
I1
I1
I1
I1
I1
I1
I1
I1
I1
I1
I1
I1
I1
I1
I1
I0
I0
I0
I0
I0
I1
I1
I1
I1
tp2115
g73
tp2116
g4
(g8
S'd\xcd\xc30\x12\x8c\x05@'
p2117
tp2118
Rp2119
s((I1
I0
I0
I0
I1
I1
I1
I1
I1
I0
I0
I0
I0
I0
I0
I0
I0
I0
I0
I0
I0
I0
I0
I0
I0
I0
I0
I0
I0
I0
I0
I0
I1
tp2120
g21
tp2121
g4
(g8
S'\x18\x01\x7f\xad\xfe\x80\xfc?'
p2122
tp2123
Rp2124
s((I0
I0
I1
I0
I1
I1
I1
I1
I1
I1
I1
I1
I1
I1
I1
I1
I1
I1
I1
I1
I0
I0
I0
I0
I0
I0
I0
I0
I0
I1
I1
I1
I1
tp2125
g125
tp2126
g4
(g8
S'<W\x06\xcd"Q\xf3?'
p2127
tp2128
Rp2129
s((I0
I1
I0
I0
I1
I1
I1
I1
I1
I1
I1
I1
I1
I0
I0
I0
I0
I0
I0
I0
I0
I0
I0
I0
I0
I0
I0
I0
I0
I0
I1
I0
I1
tp2130
g147
tp2131
g4
(g8
S'\xbe\x18ol\x18\xb6\x02@'
p2132
tp2133
Rp2134
s((I0
I0
I0
I1
I1
I1
I1
I1
I1
I1
I1
I1
I1
I1
I0
I0
I0
I0
I0
I0
I0
I0
I0
I0
I0
I0
I0
I0
I0
I1
I1
I0
I1
tp2135
g32
tp2136
g4
(g8
S'\xde\x8b\x96\xfd{\x01\xe7?'
p2137
tp2138
Rp2139
s((I0
I0
I1
I0
I1
I1
I1
I1
I1
I1
I1
I1
I1
I1
I1
I1
I1
I1
I1
I1
I1
I1
I1
I1
I1
I0
I0
I0
I0
I0
I0
I0
I0
tp2140
g15
tp2141
g4
(g8
S'\xa88\x19_\x9d\xb4\xd2?'
p2142
tp2143
Rp2144
s((I0
I0
I1
I0
I1
I1
I1
I1
I1
I1
I1
I1
I1
I1
I1
I1
I1
I1
I1
I1
I1
I1
I1
I1
I0
I0
I0
I0
I0
I0
I0
I0
I0
tp2145
g107
tp2146
g4
(g8
S'@&8\xf8\xae.\xf7?'
p2147
tp2148
Rp2149
s((I0
I0
I1
I0
I1
I1
I1
I1
I1
I1
I1
I1
I1
I1
I1
I1
I1
I1
I1
I1
I1
I1
I1
I1
I1
I1
I1
I1
I0
I0
I1
I0
I1
tp2150
g274
tp2151
g4
(g8
S'\x83B\x06!\xe8z\xd3?'
p2152
tp2153
Rp2154
s((I1
I0
I0
I0
I1
I1
I1
I1
I1
I1
I1
I1
I1
I0
I0
I0
I0
I0
I0
I0
I0
I0
I0
I0
I0
I0
I0
I0
I0
I1
I1
I1
I0
tp2155
g1137
tp2156
g4
(g8
S'\xa7,\x86\xc6=$\xfe?'
p2157
tp2158
Rp2159
s((I1
I0
I0
I0
I1
I1
I1
I1
I1
I1
I1
I1
I1
I1
I0
I0
I0
I0
I0
I0
I0
I0
I0
I0
I0
I0
I0
I0
I0
I1
I0
I1
I0
tp2160
g62
tp2161
g4
(g8
S'7\xbcJ\x0b~`\xf3?'
p2162
tp2163
Rp2164
s((I0
I0
I1
I0
I1
I1
I1
I1
I1
I1
I1
I1
I1
I1
I1
I1
I1
I1
I1
I1
I1
I1
I0
I0
I0
I0
I0
I0
I0
I0
I0
I0
I0
tp2165
g107
tp2166
g4
(g8
S'HX\xf5\x95SM\xf1?'
p2167
tp2168
Rp2169
s((I0
I1
I0
I0
I1
I1
I1
I1
I1
I1
I1
I1
I1
I1
I1
I1
I1
I1
I1
I1
I1
I1
I1
I1
I1
I1
I1
I1
I0
I0
I1
I1
I1
tp2170
g147
tp2171
g4
(g8
S'\xe1Z(\xd6\x9e&\t@'
p2172
tp2173
Rp2174
s((I1
I0
I0
I0
I1
I1
I1
I1
I1
I1
I1
I1
I1
I0
I0
I0
I0
I0
I0
I0
I0
I0
I0
I0
I0
I0
I0
I0
I0
I0
I0
I0
I0
tp2175
g44
tp2176
g4
(g8
S'\x7f\xb7\xa2f\xfe\xe3\xd0?'
p2177
tp2178
Rp2179
s((I0
I0
I0
I1
I1
I1
I1
I1
I1
I1
I1
I1
I1
I1
I1
I1
I1
I1
I1
I1
I1
I1
I1
I1
I1
I1
I1
I1
I1
I0
I1
I0
I1
tp2180
g32
tp2181
g4
(g8
S'\xd3\xf5\rI\t\x06\xf7?'
p2182
tp2183
Rp2184
s((I0
I1
I0
I0
I1
I1
I1
I1
I1
I1
I1
I1
I1
I1
I1
I0
I0
I0
I0
I0
I0
I0
I0
I0
I0
I0
I0
I0
I0
I0
I0
I0
I0
tp2185
g353
tp2186
g4
(g8
S"'\xef\xdb\x0b\x1bx\xc7?"
p2187
tp2188
Rp2189
s((I0
I1
I0
I0
I1
I1
I1
I1
I1
I1
I1
I1
I1
I1
I1
I1
I1
I1
I1
I1
I1
I1
I1
I1
I1
I1
I0
I0
I0
I1
I1
I0
I1
tp2190
g147
tp2191
g4
(g8
S'4I\x11\xee\xec\xa6\x06@'
p2192
tp2193
Rp2194
s((I1
I0
I0
I0
I1
I1
I1
I1
I1
I1
I1
I1
I1
I1
I1
I1
I1
I1
I1
I1
I1
I1
I1
I0
I0
I0
I0
I0
I0
I0
I1
I1
I1
tp2195
g389
tp2196
g4
(g8
S'a\xd6\xe9\x12bU\xdd?'
p2197
tp2198
Rp2199
s((I0
I0
I1
I0
I1
I1
I1
I1
I1
I1
I1
I1
I1
I1
I1
I1
I0
I0
I0
I0
I0
I0
I0
I0
I0
I0
I0
I0
I0
I1
I0
I1
I0
tp2200
g107
tp2201
g4
(g8
S'i\xfa\xed\xd1jf\xa3?'
p2202
tp2203
Rp2204
s((I1
I0
I0
I0
I1
I1
I1
I1
I1
I0
I0
I0
I0
I0
I0
I0
I0
I0
I0
I0
I0
I0
I0
I0
I0
I0
I0
I0
I0
I1
I1
I0
I1
tp2205
g21
tp2206
g4
(g8
S'\xd1\x08\xc0\xf1\x7f\xb8\xf0?'
p2207
tp2208
Rp2209
s((I1
I0
I0
I0
I1
I1
I1
I1
I1
I1
I0
I0
I0
I0
I0
I0
I0
I0
I0
I0
I0
I0
I0
I0
I0
I0
I0
I0
I0
I0
I0
I1
I0
tp2210
g248
tp2211
g4
(g8
S'\xd2\x7f\xc9C\x8b\xc3\xc4?'
p2212
tp2213
Rp2214
s((I0
I1
I0
I0
I1
I1
I1
I1
I1
I1
I1
I1
I1
I1
I1
I1
I0
I0
I0
I0
I0
I0
I0
I0
I0
I0
I0
I0
I0
I0
I0
I0
I1
tp2215
g147
tp2216
g4
(g8
S'y@\xf5\xec\xe1\xf7\x01@'
p2217
tp2218
Rp2219
s((I0
I0
I1
I0
I1
I1
I1
I1
I1
I1
I1
I1
I1
I1
I1
I1
I1
I1
I0
I0
I0
I0
I0
I0
I0
I0
I0
I0
I0
I1
I1
I1
I0
tp2220
g38
tp2221
g4
(g8
S'\xb9\xa6\x998\x1b=\xb0?'
p2222
tp2223
Rp2224
s((I0
I0
I1
I0
I1
I1
I1
I1
I1
I1
I1
I1
I1
I1
I1
I1
I1
I1
I0
I0
I0
I0
I0
I0
I0
I0
I0
I0
I0
I1
I0
I1
I0
tp2225
g274
tp2226
g4
(g8
S'h\xf1 vL\xf0\x07@'
p2227
tp2228
Rp2229
s((I0
I0
I0
I1
I1
I1
I1
I1
I1
I1
I1
I1
I1
I1
I1
I1
I1
I1
I1
I1
I1
I1
I1
I1
I1
I1
I1
I1
I1
I1
I1
I0
I0
tp2230
g32
tp2231
g4
(g8
S'\xcc\x9fL\xe4z\xc8\xf6?'
p2232
tp2233
Rp2234
s((I0
I0
I1
I0
I1
I1
I1
I1
I1
I1
I1
I1
I1
I1
I1
I1
I1
I1
I1
I1
I1
I1
I1
I1
I1
I1
I1
I1
I1
I0
I1
I1
I1
tp2235
g15
tp2236
g4
(g8
S'!\xefD\x06\x94W\xfc?'
p2237
tp2238
Rp2239
s((I1
I0
I0
I0
I1
I1
I1
I1
I1
I1
I1
I1
I1
I1
I0
I0
I0
I0
I0
I0
I0
I0
I0
I0
I0
I0
I0
I0
I0
I1
I1
I1
I1
tp2240
g248
tp2241
g4
(g8
S'\xb2BI\x88\x92[\x03@'
p2242
tp2243
Rp2244
s((I1
I0
I0
I0
I1
I1
I1
I1
I1
I1
I1
I1
I1
I1
I1
I1
I1
I1
I1
I1
I1
I1
I1
I1
I1
I1
I1
I1
I1
I1
I0
I1
I0
tp2245
g1101
tp2246
g4
(g8
S'I\xce\r\xbc\xb9\xf9\x06@'
p2247
tp2248
Rp2249
s((I1
I0
I0
I0
I1
I1
I1
I1
I1
I1
I1
I1
I1
I1
I1
I1
I1
I1
I1
I1
I1
I1
I1
I1
I0
I0
I0
I0
I0
I0
I0
I1
I0
tp2250
g119
tp2251
g4
(g8
S'\xa0\xda%\x94\x16\xd9\xff?'
p2252
tp2253
Rp2254
s((I0
I0
I0
I1
I1
I1
I1
I1
I1
I1
I1
I1
I1
I1
I1
I1
I1
I1
I1
I1
I1
I1
I1
I1
I1
I1
I0
I0
I0
I1
I1
I1
I0
tp2255
g1506
tp2256
g4
(g8
S'\xbf\xe3O\x83\xa7/\xea?'
p2257
tp2258
Rp2259
s((I1
I0
I0
I0
I1
I1
I1
I1
I1
I1
I1
I1
I1
I1
I1
I1
I1
I1
I1
I1
I1
I1
I1
I1
I0
I0
I0
I0
I0
I1
I1
I1
I1
tp2260
g85
tp2261
g4
(g8
S']\xa4w\x95\xda\xc9\x04@'
p2262
tp2263
Rp2264
s((I1
I0
I0
I0
I1
I1
I1
I1
I1
I1
I1
I1
I1
I1
I0
I0
I0
I0
I0
I0
I0
I0
I0
I0
I0
I0
I0
I0
I0
I0
I0
I0
I0
tp2265
g174
tp2266
g4
(g8
S'\\Y\xc35h:\xf0?'
p2267
tp2268
Rp2269
s((I0
I1
I0
I0
I1
I1
I1
I1
I1
I1
I1
I1
I1
I1
I1
I1
I1
I1
I1
I1
I1
I1
I1
I1
I0
I0
I0
I0
I0
I0
I1
I0
I1
tp2270
g317
tp2271
g4
(g8
S'\xd2H\xfeV*\xe1\xf5?'
p2272
tp2273
Rp2274
s((I0
I1
I0
I0
I1
I1
I1
I1
I1
I1
I1
I1
I1
I1
I1
I1
I1
I1
I1
I1
I1
I1
I1
I1
I0
I0
I0
I0
I0
I0
I0
I0
I1
tp2275
g687
tp2276
g4
(g8
S'\xfc\x00\xc0v\xe6\x8c\xee?'
p2277
tp2278
Rp2279
s((I0
I0
I1
I0
I1
I1
I1
I1
I1
I1
I1
I1
I1
I1
I1
I1
I1
I1
I1
I0
I0
I0
I0
I0
I0
I0
I0
I0
I0
I0
I0
I1
I0
tp2280
g274
tp2281
g4
(g8
S'\x1a\x10\x15\xd5ZG\x03@'
p2282
tp2283
Rp2284
s((I0
I1
I0
I0
I1
I1
I1
I1
I1
I1
I1
I1
I1
I1
I1
I1
I1
I1
I0
I0
I0
I0
I0
I0
I0
I0
I0
I0
I0
I1
I1
I0
I1
tp2285
g56
tp2286
g4
(g8
S'"\xc6_~\xa6P\xda?'
p2287
tp2288
Rp2289
s((I0
I0
I1
I0
I1
I1
I1
I1
I0
I0
I0
I0
I0
I0
I0
I0
I0
I0
I0
I0
I0
I0
I0
I0
I0
I0
I0
I0
I0
I1
I0
I1
I0
tp2290
g626
tp2291
g4
(g8
S'y\xa6\x95\x91D\xa7\x97?'
p2292
tp2293
Rp2294
s((I0
I1
I0
I0
I1
I1
I1
I1
I1
I1
I1
I1
I1
I0
I0
I0
I0
I0
I0
I0
I0
I0
I0
I0
I0
I0
I0
I0
I0
I0
I0
I0
I1
tp2295
g147
tp2296
g4
(g8
S'\x00Lh\xa5\xb3\xa4\x01@'
p2297
tp2298
Rp2299
s((I0
I0
I1
I0
I1
I1
I1
I1
I1
I1
I1
I1
I0
I0
I0
I0
I0
I0
I0
I0
I0
I0
I0
I0
I0
I0
I0
I0
I0
I1
I1
I1
I1
tp2300
g107
tp2301
g4
(g8
S'\xed1\x98\xc1\x1a\xaa\xf0?'
p2302
tp2303
Rp2304
s((I1
I0
I0
I0
I1
I1
I1
I1
I1
I0
I0
I0
I0
I0
I0
I0
I0
I0
I0
I0
I0
I0
I0
I0
I0
I0
I0
I0
I0
I1
I1
I1
I1
tp2305
g44
tp2306
g4
(g8
S'\x86\x02P\x11\xbfX\x00@'
p2307
tp2308
Rp2309
s((I0
I0
I1
I0
I1
I1
I1
I1
I1
I1
I1
I1
I1
I1
I0
I0
I0
I0
I0
I0
I0
I0
I0
I0
I0
I0
I0
I0
I0
I1
I0
I0
I0
tp2310
g136
tp2311
g4
(g8
S'\xfe\xf6\xf2\x98\xaf\xce\xed?'
p2312
tp2313
Rp2314
s((I0
I0
I1
I0
I1
I1
I1
I1
I1
I1
I1
I1
I1
I1
I1
I1
I1
I1
I1
I1
I1
I1
I1
I0
I0
I0
I0
I0
I0
I1
I0
I1
I0
tp2315
g107
tp2316
g4
(g8
S'\xd3\n:\xc9{\xf4\xfa?'
p2317
tp2318
Rp2319
s((I0
I1
I0
I0
I1
I1
I1
I1
I1
I1
I1
I1
I1
I1
I1
I1
I1
I1
I1
I1
I1
I1
I1
I0
I0
I0
I0
I0
I0
I0
I0
I0
I0
tp2320
g50
tp2321
g4
(g8
S'!f\xa3Q\x8d0\xe0?'
p2322
tp2323
Rp2324
s((I1
I0
I0
I0
I1
I1
I1
I1
I1
I1
I1
I1
I1
I0
I0
I0
I0
I0
I0
I0
I0
I0
I0
I0
I0
I0
I0
I0
I0
I0
I0
I0
I0
tp2325
g21
tp2326
g4
(g8
S'\xde\x95\x12\x9e\xd5p\xcc?'
p2327
tp2328
Rp2329
s((I0
I0
I0
I1
I1
I1
I1
I1
I1
I1
I1
I1
I1
I1
I1
I1
I1
I1
I1
I1
I1
I1
I1
I1
I0
I0
I0
I0
I0
I0
I1
I0
I0
tp2330
g220
tp2331
g4
(g8
S'6\xa7\xa4\xde%\xd2\xc8?'
p2332
tp2333
Rp2334
s((I0
I0
I1
I0
I1
I1
I1
I1
I1
I1
I1
I1
I1
I1
I1
I1
I0
I0
I0
I0
I0
I0
I0
I0
I0
I0
I0
I0
I0
I1
I1
I1
I1
tp2335
g107
tp2336
g4
(g8
S'D\xbd\x0e\x15\xadm\xf3?'
p2337
tp2338
Rp2339
s((I1
I0
I0
I0
I1
I1
I1
I1
I1
I0
I0
I0
I0
I0
I0
I0
I0
I0
I0
I0
I0
I0
I0
I0
I0
I0
I0
I0
I0
I1
I1
I0
I1
tp2340
g119
tp2341
g4
(g8
S'}\xaa\x81\xda\xbb\xe3\xc2?'
p2342
tp2343
Rp2344
s((I0
I0
I1
I0
I1
I1
I1
I1
I1
I1
I1
I1
I1
I1
I1
I1
I1
I1
I1
I1
I1
I1
I1
I1
I1
I1
I1
I1
I1
I1
I1
I1
I0
tp2345
g15
tp2346
g4
(g8
S'\x13\x00\xb74\xb7\xaf\xfc?'
p2347
tp2348
Rp2349
s((I0
I0
I1
I0
I1
I1
I1
I1
I1
I1
I1
I1
I1
I1
I0
I0
I0
I0
I0
I0
I0
I0
I0
I0
I0
I0
I0
I0
I0
I0
I0
I0
I0
tp2350
g38
tp2351
g4
(g8
S'\xbfN$\xb4\x8a}\xa8?'
p2352
tp2353
Rp2354
s((I0
I1
I0
I0
I1
I1
I1
I1
I1
I1
I1
I1
I1
I1
I1
I1
I1
I1
I1
I1
I1
I1
I0
I0
I0
I0
I0
I0
I0
I0
I0
I0
I1
tp2355
g56
tp2356
g4
(g8
S'\xdc\xbfz(\x1e\xed\xf0?'
p2357
tp2358
Rp2359
s((I0
I0
I1
I0
I1
I1
I1
I1
I1
I1
I1
I1
I1
I0
I0
I0
I0
I0
I0
I0
I0
I0
I0
I0
I0
I0
I0
I0
I0
I1
I0
I1
I0
tp2360
g274
tp2361
g4
(g8
S'\xea@H\x80\xa1=\x05@'
p2362
tp2363
Rp2364
s((I0
I1
I0
I0
I1
I1
I1
I1
I1
I1
I1
I1
I1
I1
I1
I1
I1
I1
I1
I1
I1
I1
I0
I0
I0
I0
I0
I0
I0
I0
I0
I0
I0
tp2365
g50
tp2366
g4
(g8
S'\xde\xaa\xb2t4\x14\xef?'
p2367
tp2368
Rp2369
s((I0
I1
I0
I0
I1
I1
I1
I1
I1
I1
I1
I1
I1
I1
I1
I1
I1
I1
I1
I1
I1
I1
I1
I0
I0
I0
I0
I0
I0
I0
I1
I0
I1
tp2370
g353
tp2371
g4
(g8
S'/\x1ay\xc77\xca\x03@'
p2372
tp2373
Rp2374
s((I0
I0
I0
I1
I1
I1
I1
I1
I1
I1
I1
I1
I1
I1
I0
I0
I0
I0
I0
I0
I0
I0
I0
I0
I0
I0
I0
I0
I0
I0
I0
I0
I1
tp2375
g32
tp2376
g4
(g8
S'A\xbe\x1e\x86\xa6\x06\xca?'
p2377
tp2378
Rp2379
s((I1
I0
I0
I0
I1
I1
I1
I1
I1
I1
I1
I1
I1
I1
I1
I1
I1
I1
I1
I1
I1
I1
I1
I1
I1
I1
I1
I0
I0
I1
I1
I1
I0
tp2380
g2
tp2381
g4
(g8
S'q\xba\x82\xf1k\x8a\xe3?'
p2382
tp2383
Rp2384
s((I0
I0
I1
I0
I1
I1
I1
I1
I1
I1
I1
I1
I1
I1
I1
I1
I1
I1
I1
I1
I0
I0
I0
I0
I0
I0
I0
I0
I0
I1
I1
I1
I0
tp2385
g113
tp2386
g4
(g8
S'\xd7\xea\xd7\x18\xf2\xfd\xa7\xbf'
p2387
tp2388
Rp2389
s((I0
I0
I0
I1
I1
I1
I1
I1
I1
I1
I1
I1
I1
I1
I1
I1
I1
I1
I1
I1
I1
I1
I1
I1
I0
I0
I0
I0
I0
I1
I0
I1
I0
tp2390
g32
tp2391
g4
(g8
S'\x00\tl\xaa\xd7u\xf6?'
p2392
tp2393
Rp2394
s((I1
I0
I0
I0
I1
I1
I1
I1
I1
I1
I0
I0
I0
I0
I0
I0
I0
I0
I0
I0
I0
I0
I0
I0
I0
I0
I0
I0
I0
I0
I1
I0
I1
tp2395
g119
tp2396
g4
(g8
S'\xf8\x87\x00T\xe2b\xec?'
p2397
tp2398
Rp2399
s((I1
I0
I0
I0
I1
I1
I1
I1
I1
I1
I1
I1
I1
I1
I0
I0
I0
I0
I0
I0
I0
I0
I0
I0
I0
I0
I0
I0
I0
I1
I0
I0
I0
tp2400
g21
tp2401
g4
(g8
S'\xba}F+\xd6\x16\xd5?'
p2402
tp2403
Rp2404
s((I0
I0
I0
I1
I1
I1
I1
I1
I1
I1
I1
I1
I1
I1
I1
I1
I1
I1
I1
I1
I1
I1
I1
I0
I0
I0
I0
I0
I0
I1
I1
I1
I1
tp2405
g32
tp2406
g4
(g8
S'\xe2t\xa8\xf2/Y\xf4?'
p2407
tp2408
Rp2409
s((I0
I0
I1
I0
I1
I1
I1
I1
I1
I1
I1
I1
I1
I1
I1
I1
I1
I1
I1
I1
I1
I1
I1
I1
I0
I0
I0
I0
I0
I0
I1
I1
I1
tp2410
g107
tp2411
g4
(g8
S'\x96W\xba3\x01\xa3\xef?'
p2412
tp2413
Rp2414
s((I0
I0
I0
I1
I1
I1
I1
I1
I1
I1
I1
I1
I1
I1
I1
I1
I1
I1
I1
I1
I1
I1
I1
I1
I1
I1
I0
I0
I0
I0
I0
I1
I0
tp2415
g32
tp2416
g4
(g8
S'\x96\xe6HP]\x16\xf7?'
p2417
tp2418
Rp2419
s((I0
I1
I0
I0
I1
I1
I1
I1
I1
I1
I1
I1
I1
I1
I1
I1
I1
I1
I1
I1
I1
I1
I1
I1
I0
I0
I0
I0
I0
I0
I1
I1
I1
tp2420
g147
tp2421
g4
(g8
S'\x8f\r\xee\xaf\x94\xb9\x07@'
p2422
tp2423
Rp2424
s((I0
I0
I1
I0
I1
I1
I1
I1
I1
I1
I0
I0
I0
I0
I0
I0
I0
I0
I0
I0
I0
I0
I0
I0
I0
I0
I0
I0
I0
I0
I0
I0
I0
tp2425
g38
tp2426
g4
(g8
S'\xab\xb5\x89\xb4"\x02\x06@'
p2427
tp2428
Rp2429
s((I1
I0
I0
I0
I1
I1
I1
I1
I1
I1
I1
I1
I1
I1
I0
I0
I0
I0
I0
I0
I0
I0
I0
I0
I0
I0
I0
I0
I0
I1
I0
I1
I0
tp2430
g174
tp2431
g4
(g8
S'\xfe\xaa;\x81Oq\xe6?'
p2432
tp2433
Rp2434
s((I1
I0
I0
I0
I1
I1
I1
I1
I1
I1
I1
I1
I1
I1
I1
I1
I1
I1
I1
I1
I1
I1
I1
I1
I1
I1
I1
I1
I1
I1
I0
I1
I0
tp2435
g158
tp2436
g4
(g8
S'\x9bg5\xec-C\xfa?'
p2437
tp2438
Rp2439
s((I0
I1
I0
I0
I1
I1
I1
I1
I1
I1
I1
I1
I1
I1
I0
I0
I0
I0
I0
I0
I0
I0
I0
I0
I0
I0
I0
I0
I0
I1
I1
I1
I1
tp2440
g147
tp2441
g4
(g8
S'\xf3\x03=k\xa7\xe1\x02@'
p2442
tp2443
Rp2444
s((I1
I0
I0
I0
I1
I1
I1
I1
I1
I1
I1
I1
I1
I1
I1
I1
I1
I1
I0
I0
I0
I0
I0
I0
I0
I0
I0
I0
I0
I1
I1
I1
I0
tp2445
g79
tp2446
g4
(g8
S'\xd3G\xdf[\xf7\xd0\xe7?'
p2447
tp2448
Rp2449
s((I1
I0
I0
I0
I1
I1
I1
I1
I1
I0
I0
I0
I0
I0
I0
I0
I0
I0
I0
I0
I0
I0
I0
I0
I0
I0
I0
I0
I0
I0
I0
I0
I1
tp2450
g248
tp2451
F0.09523809523809523
s((I0
I0
I1
I0
I1
I1
I1
I1
I1
I1
I1
I1
I1
I1
I1
I1
I1
I1
I0
I0
I0
I0
I0
I0
I0
I0
I0
I0
I0
I1
I1
I0
I1
tp2452
g38
tp2453
g4
(g8
S'\x9e\xcaR\x04Z\x0e\x04@'
p2454
tp2455
Rp2456
s((I0
I0
I1
I0
I1
I1
I1
I1
I1
I1
I1
I1
I0
I0
I0
I0
I0
I0
I0
I0
I0
I0
I0
I0
I0
I0
I0
I0
I0
I1
I1
I1
I0
tp2457
S'exit-short'
p2458
tp2459
g4
(g8
S'&\xe2\xda\xfd\xe6z\xc8?'
p2460
tp2461
Rp2462
s((I0
I0
I0
I1
I1
I1
I1
I1
I1
I1
I1
I1
I1
I1
I1
I1
I1
I1
I1
I1
I1
I1
I1
I0
I0
I0
I0
I0
I0
I0
I0
I0
I0
tp2463
g32
tp2464
g4
(g8
S'\xb2\xe7\xfb\xba\xbb\x8d\xed?'
p2465
tp2466
Rp2467
s((I0
I1
I0
I0
I1
I1
I1
I1
I1
I1
I1
I1
I1
I1
I1
I1
I1
I1
I1
I1
I1
I1
I0
I0
I0
I0
I0
I0
I0
I0
I1
I0
I1
tp2468
g91
tp2469
g4
(g8
S'\x0ch+\x12\x0f&\xf6?'
p2470
tp2471
Rp2472
s((I0
I1
I0
I0
I1
I1
I1
I1
I1
I1
I1
I1
I1
I1
I1
I1
I1
I1
I1
I1
I1
I1
I1
I1
I1
I1
I1
I1
I0
I0
I1
I1
I1
tp2473
g91
tp2474
g4
(g8
S'\xf6\x8d\x95S\xa8=\xf8?'
p2475
tp2476
Rp2477
s((I0
I0
I1
I0
I1
I1
I1
I1
I1
I1
I1
I1
I1
I1
I1
I1
I1
I1
I1
I1
I1
I1
I1
I1
I0
I0
I0
I0
I0
I1
I1
I1
I1
tp2478
g15
tp2479
g4
(g8
S'\xad\x9a\xc2\x1c\xf5\x1a\xf4?'
p2480
tp2481
Rp2482
s((I0
I1
I0
I0
I1
I1
I1
I1
I1
I1
I1
I1
I1
I1
I1
I1
I1
I1
I1
I0
I0
I0
I0
I0
I0
I0
I0
I0
I0
I1
I1
I1
I0
tp2483
g687
tp2484
g4
(g8
S'\x15-\xbe\x7f\xebU\xf2?'
p2485
tp2486
Rp2487
s((I1
I0
I0
I0
I1
I1
I1
I1
I1
I0
I0
I0
I0
I0
I0
I0
I0
I0
I0
I0
I0
I0
I0
I0
I0
I0
I0
I0
I0
I1
I0
I0
I0
tp2488
g119
tp2489
g4
(g8
S'\x07i\xf2\xf3$\x8a\xe3?'
p2490
tp2491
Rp2492
s((I0
I0
I1
I0
I1
I1
I1
I1
I1
I1
I1
I1
I1
I1
I1
I1
I1
I1
I1
I1
I1
I1
I1
I1
I1
I1
I1
I0
I0
I1
I1
I1
I0
tp2493
g15
tp2494
g4
(g8
S'=\xd6;\xb9t\x9f\xf7?'
p2495
tp2496
Rp2497
s((I0
I0
I1
I0
I1
I1
I1
I1
I1
I1
I1
I1
I1
I1
I0
I0
I0
I0
I0
I0
I0
I0
I0
I0
I0
I0
I0
I0
I0
I0
I1
I1
I1
tp2498
g15
tp2499
g4
(g8
S'\x88C\x1e\xd3\x0e\x1c\xf0?'
p2500
tp2501
Rp2502
s((I0
I0
I0
I1
I1
I1
I1
I1
I1
I1
I1
I1
I1
I1
I1
I1
I1
I0
I0
I0
I0
I0
I0
I0
I0
I0
I0
I0
I0
I0
I0
I0
I0
tp2503
g32
tp2504
g4
(g8
S')\xe1\x91\xe5\xc9\xbd\xa1?'
p2505
tp2506
Rp2507
s((I0
I0
I1
I0
I1
I1
I1
I1
I1
I1
I1
I1
I1
I1
I1
I1
I1
I1
I1
I1
I1
I1
I1
I1
I0
I0
I0
I0
I0
I0
I0
I0
I1
tp2508
g38
tp2509
g4
(g8
S'\xcar\xb2\xa2\x18\x04\xaa?'
p2510
tp2511
Rp2512
s((I1
I0
I0
I0
I0
I0
I0
I0
I0
I0
I0
I0
I0
I0
I0
I0
I0
I0
I0
I0
I0
I0
I0
I0
I0
I0
I0
I0
I0
I0
I1
I0
I1
tp2513
g248
tp2514
g4
(g8
S'\xf4Bs^xR\xf9?'
p2515
tp2516
Rp2517
s((I0
I0
I0
I1
I1
I1
I1
I1
I1
I1
I1
I1
I1
I1
I1
I1
I1
I1
I1
I1
I1
I1
I1
I1
I1
I1
I1
I0
I0
I1
I1
I1
I0
tp2518
g32
tp2519
g4
(g8
S'\xdc\xf6zJ\x15f\xf4?'
p2520
tp2521
Rp2522
s((I0
I1
I0
I0
I1
I1
I1
I1
I1
I1
I1
I1
I1
I1
I1
I1
I0
I0
I0
I0
I0
I0
I0
I0
I0
I0
I0
I0
I0
I0
I0
I0
I1
tp2523
g50
tp2524
g4
(g8
S'>cB\xf7\xa9\xbe\xe7?'
p2525
tp2526
Rp2527
s((I0
I0
I0
I1
I1
I1
I1
I1
I1
I1
I1
I1
I1
I1
I1
I1
I1
I1
I1
I1
I1
I1
I1
I1
I0
I0
I0
I0
I0
I1
I1
I1
I0
tp2528
g32
tp2529
g4
(g8
S'd\xd7\x13\t\xe7\xf0\xf5?'
p2530
tp2531
Rp2532
s((I1
I0
I0
I0
I1
I1
I1
I1
I1
I1
I1
I1
I0
I0
I0
I0
I0
I0
I0
I0
I0
I0
I0
I0
I0
I0
I0
I0
I0
I0
I0
I1
I0
tp2533
g85
tp2534
g4
(g8
S'\xd6&\xd1b\x06j\xea?'
p2535
tp2536
Rp2537
s((I1
I0
I0
I0
I1
I1
I1
I1
I1
I1
I1
I1
I1
I1
I0
I0
I0
I0
I0
I0
I0
I0
I0
I0
I0
I0
I0
I0
I0
I1
I0
I0
I0
tp2538
g73
tp2539
g4
(g8
S'\xc7\x12\x93\xbe\xf9W\x03@'
p2540
tp2541
Rp2542
s((I0
I1
I0
I0
I1
I1
I1
I1
I1
I1
I1
I1
I1
I0
I0
I0
I0
I0
I0
I0
I0
I0
I0
I0
I0
I0
I0
I0
I0
I1
I1
I1
I0
tp2543
g147
tp2544
g4
(g8
S'\xdd\x14\x9b:\xd0E\x04@'
p2545
tp2546
Rp2547
s((I1
I0
I0
I0
I1
I1
I1
I1
I1
I1
I1
I1
I1
I1
I1
I1
I1
I1
I1
I1
I0
I0
I0
I0
I0
I0
I0
I0
I0
I0
I1
I0
I1
tp2548
g73
tp2549
g4
(g8
S'0P\x1a \xf1v\xc6?'
p2550
tp2551
Rp2552
s((I1
I0
I0
I0
I1
I1
I1
I1
I1
I1
I1
I1
I0
I0
I0
I0
I0
I0
I0
I0
I0
I0
I0
I0
I0
I0
I0
I0
I0
I0
I0
I0
I0
tp2553
g21
tp2554
g4
(g8
S"'o\xf6\x1d+&\xcb?"
p2555
tp2556
Rp2557
s((I1
I0
I0
I0
I1
I1
I1
I1
I1
I1
I1
I1
I1
I1
I1
I1
I1
I1
I1
I1
I1
I1
I1
I1
I1
I1
I0
I0
I0
I1
I1
I1
I0
tp2558
g1101
tp2559
g4
(g8
S'\x90\x0bB9\xf3`\xe1?'
p2560
tp2561
Rp2562
s((I0
I0
I1
I0
I1
I1
I1
I1
I1
I1
I1
I1
I1
I1
I1
I1
I1
I1
I0
I0
I0
I0
I0
I0
I0
I0
I0
I0
I0
I1
I1
I1
I1
tp2563
g15
tp2564
g4
(g8
S'c\xf9\x12\xb3\xf0`\xf3?'
p2565
tp2566
Rp2567
s((I1
I0
I0
I0
I1
I1
I1
I1
I1
I1
I1
I1
I1
I1
I1
I1
I1
I1
I1
I1
I1
I1
I1
I0
I0
I0
I0
I0
I0
I1
I1
I1
I0
tp2568
g73
tp2569
g4
(g8
S'b\x83\x0b\x17\xa5A\xe4?'
p2570
tp2571
Rp2572
s((I0
I1
I0
I0
I1
I1
I1
I1
I1
I1
I1
I1
I1
I1
I1
I1
I1
I1
I1
I1
I1
I0
I0
I0
I0
I0
I0
I0
I0
I0
I0
I0
I0
tp2573
g91
tp2574
g4
(g8
S'\x93\xcd\xcc\xea\xfe\xc8\xec?'
p2575
tp2576
Rp2577
s((I0
I1
I0
I0
I1
I1
I1
I1
I1
I1
I1
I1
I1
I1
I1
I1
I1
I1
I1
I1
I1
I0
I0
I0
I0
I0
I0
I0
I0
I1
I1
I1
I1
tp2578
g50
tp2579
g4
(g8
S'M\xf6\x80C\xe4\xdd\xd2?'
p2580
tp2581
Rp2582
s((I0
I0
I1
I0
I1
I1
I1
I1
I1
I1
I1
I1
I0
I0
I0
I0
I0
I0
I0
I0
I0
I0
I0
I0
I0
I0
I0
I0
I0
I1
I0
I1
I0
tp2583
g274
tp2584
g4
(g8
S'd\xee\xf4\xc6@d\xed?'
p2585
tp2586
Rp2587
s((I0
I0
I1
I0
I1
I1
I1
I1
I1
I1
I1
I1
I1
I1
I0
I0
I0
I0
I0
I0
I0
I0
I0
I0
I0
I0
I0
I0
I0
I0
I0
I0
I0
tp2588
g107
tp2589
g4
(g8
S'\xa9>D\xf1\x1b\x82\xef?'
p2590
tp2591
Rp2592
s((I1
I0
I0
I0
I0
I0
I0
I0
I0
I0
I0
I0
I0
I0
I0
I0
I0
I0
I0
I0
I0
I0
I0
I0
I0
I0
I0
I0
I0
I1
I1
I0
I1
tp2593
g389
tp2594
g4
(g8
S'\x13y\x10\xe7\xd8\x81\xab\xbf'
p2595
tp2596
Rp2597
s((I1
I0
I0
I0
I1
I1
I1
I1
I1
I0
I0
I0
I0
I0
I0
I0
I0
I0
I0
I0
I0
I0
I0
I0
I0
I0
I0
I0
I0
I1
I1
I1
I0
tp2598
g21
tp2599
g4
(g8
S'\xf0\xc1\xa6LhO\xff?'
p2600
tp2601
Rp2602
s((I0
I1
I0
I0
I1
I1
I1
I1
I1
I1
I1
I1
I1
I1
I1
I1
I1
I1
I0
I0
I0
I0
I0
I0
I0
I0
I0
I0
I0
I0
I0
I1
I0
tp2603
g56
tp2604
g4
(g8
S'\xfb;O\x91X\x1a\xee?'
p2605
tp2606
Rp2607
s((I0
I1
I0
I0
I1
I1
I1
I1
I1
I1
I1
I1
I1
I1
I1
I1
I1
I1
I1
I0
I0
I0
I0
I0
I0
I0
I0
I0
I0
I0
I1
I1
I1
tp2608
g147
tp2609
g4
(g8
S'Yi\xda\xfb\xa0O\x05@'
p2610
tp2611
Rp2612
s((I0
I1
I0
I0
I1
I1
I1
I1
I1
I1
I1
I1
I1
I1
I0
I0
I0
I0
I0
I0
I0
I0
I0
I0
I0
I0
I0
I0
I0
I0
I1
I1
I1
tp2613
g91
tp2614
g4
(g8
S'\xb7\x91E\xf9X\xd1\xf3?'
p2615
tp2616
Rp2617
s((I1
I0
I0
I0
I1
I1
I1
I1
I1
I1
I1
I1
I1
I1
I1
I1
I1
I1
I1
I1
I0
I0
I0
I0
I0
I0
I0
I0
I0
I0
I0
I0
I0
tp2618
g119
tp2619
g4
(g8
S'\xdb\t\xb4\x93\x93\x9b\x04@'
p2620
tp2621
Rp2622
s((I0
I0
I1
I0
I1
I1
I1
I1
I1
I1
I1
I1
I1
I1
I1
I1
I1
I1
I1
I1
I1
I1
I1
I1
I1
I1
I1
I1
I0
I0
I0
I1
I0
tp2623
g125
tp2624
g4
(g8
S'\xa8\x129jL\t\xf6?'
p2625
tp2626
Rp2627
s((I1
I0
I0
I0
I1
I1
I1
I1
I1
I1
I1
I1
I0
I0
I0
I0
I0
I0
I0
I0
I0
I0
I0
I0
I0
I0
I0
I0
I0
I1
I0
I1
I0
tp2628
g389
tp2629
g4
(g8
S'\xac\xbbz\xe7W\x00\x01@'
p2630
tp2631
Rp2632
s((I1
I0
I0
I0
I1
I1
I1
I1
I1
I1
I1
I1
I1
I1
I1
I1
I0
I0
I0
I0
I0
I0
I0
I0
I0
I0
I0
I0
I0
I0
I0
I1
I0
tp2633
g85
tp2634
g4
(g8
S'\xfe8\x85\xfe/x\xcd?'
p2635
tp2636
Rp2637
s((I0
I0
I1
I0
I1
I1
I1
I1
I0
I0
I0
I0
I0
I0
I0
I0
I0
I0
I0
I0
I0
I0
I0
I0
I0
I0
I0
I0
I0
I1
I0
I1
I0
tp2638
g15
tp2639
g4
(g8
S'\x02\x10\x9f\xf2\xf6y\xa3?'
p2640
tp2641
Rp2642
s((I0
I0
I1
I0
I1
I1
I1
I1
I1
I1
I1
I1
I1
I1
I1
I1
I1
I1
I1
I1
I1
I1
I1
I1
I1
I1
I1
I1
I0
I1
I0
I1
I0
tp2643
g107
tp2644
g4
(g8
S'2\xd1z\xd2\x80\x9d\xfb?'
p2645
tp2646
Rp2647
s((I1
I0
I0
I0
I1
I1
I1
I1
I1
I1
I1
I1
I1
I1
I1
I1
I1
I1
I1
I1
I1
I1
I1
I1
I1
I1
I1
I1
I1
I1
I0
I0
I0
tp2648
g158
tp2649
g4
(g8
S'}\x9e\xcf\xb6Z \xf1?'
p2650
tp2651
Rp2652
s((I1
I0
I0
I0
I1
I1
I1
I1
I1
I0
I0
I0
I0
I0
I0
I0
I0
I0
I0
I0
I0
I0
I0
I0
I0
I0
I0
I0
I0
I0
I0
I0
I1
tp2653
g119
tp2654
g4
(g8
S'\x1f\xb1G\x92i\x8e\xce?'
p2655
tp2656
Rp2657
s((I1
I0
I0
I0
I1
I1
I1
I1
I0
I0
I0
I0
I0
I0
I0
I0
I0
I0
I0
I0
I0
I0
I0
I0
I0
I0
I0
I0
I0
I1
I1
I1
I1
tp2658
g85
tp2659
g4
(g8
S'\rz\xf4\x93\xdc\x83\xed?'
p2660
tp2661
Rp2662
s((I0
I1
I0
I0
I1
I1
I1
I1
I1
I1
I1
I1
I1
I1
I1
I1
I0
I0
I0
I0
I0
I0
I0
I0
I0
I0
I0
I0
I0
I0
I0
I1
I0
tp2663
g91
tp2664
g4
(g8
S'_\x85\xa1\xfa\xf91\xf5?'
p2665
tp2666
Rp2667
s((I1
I0
I0
I0
I1
I1
I1
I1
I1
I1
I1
I1
I1
I1
I1
I1
I1
I1
I1
I1
I1
I1
I1
I1
I0
I0
I0
I0
I0
I0
I1
I1
I1
tp2668
g21
tp2669
g4
(g8
S'E\x0f\x0c\x92\x96\x0c\xd8?'
p2670
tp2671
Rp2672
s((I1
I0
I0
I0
I1
I1
I1
I1
I1
I1
I1
I1
I1
I1
I0
I0
I0
I0
I0
I0
I0
I0
I0
I0
I0
I0
I0
I0
I0
I0
I1
I1
I1
tp2673
g248
tp2674
g4
(g8
S'\xf8.\xeeg\x17m\xf2?'
p2675
tp2676
Rp2677
s((I1
I0
I0
I0
I1
I1
I1
I1
I1
I1
I1
I1
I1
I1
I1
I1
I1
I1
I1
I1
I1
I1
I1
I0
I0
I0
I0
I0
I0
I1
I0
I1
I0
tp2678
g119
tp2679
g4
(g8
S'\xd4y\xed\xa0\x10i\x06@'
p2680
tp2681
Rp2682
s((I1
I0
I0
I0
I1
I1
I1
I1
I1
I1
I1
I1
I1
I1
I1
I1
I1
I1
I1
I1
I1
I1
I0
I0
I0
I0
I0
I0
I0
I1
I1
I1
I1
tp2683
g2
tp2684
g4
(g8
S'(\xcb-o\x8a\xa3\xd2?'
p2685
tp2686
Rp2687
s((I0
I1
I0
I0
I1
I1
I1
I1
I1
I1
I1
I1
I1
I1
I1
I1
I1
I1
I1
I1
I1
I1
I1
I1
I1
I1
I1
I0
I0
I1
I0
I0
I0
tp2688
g2085
tp2689
g4
(g8
S'[\xbe<\x9e\xbal\xe1?'
p2690
tp2691
Rp2692
s((I1
I0
I0
I0
I1
I1
I1
I1
I1
I1
I0
I0
I0
I0
I0
I0
I0
I0
I0
I0
I0
I0
I0
I0
I0
I0
I0
I0
I0
I0
I0
I1
I0
tp2693
g85
tp2694
g4
(g8
S'\x15\x1c\xc78.\x88\x02@'
p2695
tp2696
Rp2697
s((I0
I1
I0
I0
I1
I1
I1
I1
I1
I1
I1
I1
I1
I1
I1
I1
I1
I1
I1
I1
I1
I1
I1
I1
I1
I1
I1
I0
I0
I0
I1
I0
I1
tp2698
g353
tp2699
g4
(g8
S'\x98\x86\x95\xd5\x07b\x04@'
p2700
tp2701
Rp2702
s((I0
I0
I1
I0
I1
I1
I1
I1
I1
I1
I1
I1
I1
I1
I1
I1
I1
I1
I1
I1
I1
I1
I1
I1
I1
I1
I1
I1
I1
I1
I0
I0
I1
tp2703
g125
tp2704
g4
(g8
S'\xb4G\xb6~\x99\x8f\x00@'
p2705
tp2706
Rp2707
s((I0
I1
I0
I0
I1
I1
I1
I1
I1
I1
I1
I1
I1
I1
I1
I1
I1
I1
I1
I0
I0
I0
I0
I0
I0
I0
I0
I0
I0
I0
I0
I1
I0
tp2708
g91
tp2709
g4
(g8
S'\xed\xa6\xe2\xafh\xf5\xf5?'
p2710
tp2711
Rp2712
s((I0
I0
I1
I0
I1
I1
I1
I1
I1
I1
I1
I1
I1
I1
I1
I1
I1
I1
I0
I0
I0
I0
I0
I0
I0
I0
I0
I0
I0
I1
I1
I1
I0
tp2713
g107
tp2714
g4
(g8
S'+J1}\x9c\x94\xe5?'
p2715
tp2716
Rp2717
s((I0
I1
I0
I0
I1
I1
I1
I1
I1
I1
I1
I1
I1
I1
I1
I1
I1
I1
I1
I1
I1
I1
I1
I0
I0
I0
I0
I0
I0
I1
I0
I0
I0
tp2718
g687
tp2719
g4
(g8
S'\x9fn\xc8wU\x9b\xd8?'
p2720
tp2721
Rp2722
s((I0
I1
I0
I0
I1
I1
I1
I1
I1
I1
I1
I1
I1
I0
I0
I0
I0
I0
I0
I0
I0
I0
I0
I0
I0
I0
I0
I0
I0
I0
I0
I0
I0
tp2723
g147
tp2724
g4
(g8
S'\xd2\x1eBk\x8d\x8d\xf6?'
p2725
tp2726
Rp2727
s((I0
I1
I0
I0
I1
I1
I1
I1
I1
I1
I1
I1
I1
I1
I1
I1
I1
I1
I1
I1
I1
I1
I0
I0
I0
I0
I0
I0
I0
I0
I1
I0
I1
tp2728
g147
tp2729
g4
(g8
S'\xc9Z\x84\x99|\xc8\x04@'
p2730
tp2731
Rp2732
s((I0
I0
I0
I1
I1
I1
I1
I1
I1
I1
I1
I1
I1
I1
I1
I1
I1
I1
I1
I1
I1
I1
I1
I1
I1
I1
I0
I0
I0
I0
I1
I0
I1
tp2733
g32
tp2734
g4
(g8
S'N\xc3\xe5E\x18\x01\xf4?'
p2735
tp2736
Rp2737
s((I1
I0
I0
I0
I0
I0
I0
I0
I0
I0
I0
I0
I0
I0
I0
I0
I0
I0
I0
I0
I0
I0
I0
I0
I0
I0
I0
I0
I0
I0
I0
I0
I0
tp2738
g44
tp2739
g4
(g8
S'\xc3\x05\xd7\x8f\x03\xdf\xef?'
p2740
tp2741
Rp2742
s((I0
I0
I1
I0
I1
I1
I1
I1
I1
I1
I1
I1
I1
I1
I1
I1
I1
I1
I1
I1
I1
I1
I1
I1
I1
I1
I1
I1
I0
I1
I1
I0
I1
tp2743
g274
tp2744
g4
(g8
S'\xac\xb4zZI\xf9\xab?'
p2745
tp2746
Rp2747
s((I0
I1
I0
I0
I1
I1
I1
I1
I1
I1
I1
I1
I1
I1
I0
I0
I0
I0
I0
I0
I0
I0
I0
I0
I0
I0
I0
I0
I0
I0
I0
I0
I0
tp2748
g317
tp2749
g4
(g8
S'\x9a\xaa\x9c\x83R\xd9\xf0?'
p2750
tp2751
Rp2752
s((I1
I0
I0
I0
I1
I1
I1
I1
I1
I1
I1
I1
I0
I0
I0
I0
I0
I0
I0
I0
I0
I0
I0
I0
I0
I0
I0
I0
I0
I0
I0
I1
I0
tp2753
g44
tp2754
g4
(g8
S'*oL\x9fe|\xfa?'
p2755
tp2756
Rp2757
s((I0
I1
I0
I0
I1
I1
I1
I1
I1
I0
I0
I0
I0
I0
I0
I0
I0
I0
I0
I0
I0
I0
I0
I0
I0
I0
I0
I0
I0
I0
I1
I1
I1
tp2758
g50
tp2759
g4
(g8
S'\x98\x04\xaa\x18=\x8a\xf1?'
p2760
tp2761
Rp2762
s((I0
I1
I0
I0
I1
I1
I1
I1
I1
I1
I1
I1
I0
I0
I0
I0
I0
I0
I0
I0
I0
I0
I0
I0
I0
I0
I0
I0
I0
I0
I0
I0
I0
tp2763
g317
tp2764
g4
(g8
S'\xab"\xe2\x8f\xcb_\xd6?'
p2765
tp2766
Rp2767
s((I0
I1
I0
I0
I1
I1
I1
I1
I1
I1
I1
I1
I1
I1
I1
I1
I1
I1
I1
I1
I1
I1
I1
I1
I1
I1
I0
I0
I0
I0
I1
I0
I1
tp2768
g56
tp2769
g4
(g8
S'G_s\x18M\xb8\x05@'
p2770
tp2771
Rp2772
s((I0
I0
I0
I1
I1
I1
I1
I1
I1
I1
I1
I1
I1
I1
I1
I0
I0
I0
I0
I0
I0
I0
I0
I0
I0
I0
I0
I0
I0
I0
I0
I0
I0
tp2773
g32
tp2774
g4
(g8
S'xg\n\xf2\xe0\x0e\xef?'
p2775
tp2776
Rp2777
s((I0
I1
I0
I0
I1
I1
I1
I1
I1
I1
I1
I1
I1
I1
I1
I1
I1
I1
I1
I1
I0
I0
I0
I0
I0
I0
I0
I0
I0
I1
I1
I1
I1
tp2778
g50
tp2779
g4
(g8
S'lq\x1c\xe7of\xf6?'
p2780
tp2781
Rp2782
s((I1
I0
I0
I0
I1
I1
I1
I1
I1
I1
I1
I1
I1
I1
I1
I1
I1
I1
I1
I1
I1
I1
I1
I1
I1
I1
I1
I0
I0
I1
I0
I0
I1
tp2783
g158
tp2784
g4
(g8
S'\x99Q&\xebK?\x07@'
p2785
tp2786
Rp2787
s((I1
I0
I0
I0
I1
I1
I1
I1
I1
I1
I1
I1
I1
I1
I1
I1
I0
I0
I0
I0
I0
I0
I0
I0
I0
I0
I0
I0
I0
I0
I0
I0
I0
tp2788
g248
tp2789
g4
(g8
S'bF\x15\x13Lp\x03@'
p2790
tp2791
Rp2792
s((I1
I0
I0
I0
I1
I1
I1
I1
I1
I0
I0
I0
I0
I0
I0
I0
I0
I0
I0
I0
I0
I0
I0
I0
I0
I0
I0
I0
I0
I1
I0
I0
I0
tp2793
g73
tp2794
g4
(g8
S'\x9eD#e\xee\xd4\x00@'
p2795
tp2796
Rp2797
s((I0
I1
I0
I0
I1
I1
I1
I1
I1
I1
I1
I1
I1
I1
I1
I1
I1
I1
I1
I1
I1
I1
I1
I1
I1
I1
I1
I1
I1
I1
I1
I1
I1
tp2798
g147
tp2799
g4
(g8
S'\xfb\xbd\x1c\x1c\x95a\r@'
p2800
tp2801
Rp2802
s((I0
I1
I0
I0
I1
I1
I1
I1
I1
I1
I1
I1
I1
I1
I1
I1
I1
I1
I1
I1
I1
I1
I1
I1
I0
I0
I0
I0
I0
I1
I1
I1
I1
tp2803
g147
tp2804
g4
(g8
S'\xd7\xb7\x1be\xe1J\x07@'
p2805
tp2806
Rp2807
s((I1
I0
I0
I0
I1
I1
I1
I1
I1
I1
I1
I1
I1
I1
I0
I0
I0
I0
I0
I0
I0
I0
I0
I0
I0
I0
I0
I0
I0
I1
I1
I1
I0
tp2808
g119
tp2809
g4
(g8
S'\xf6\xcf"\xb2\xb2\xd7\xf3?'
p2810
tp2811
Rp2812
s((I1
I0
I0
I0
I1
I1
I1
I1
I1
I1
I1
I1
I1
I0
I0
I0
I0
I0
I0
I0
I0
I0
I0
I0
I0
I0
I0
I0
I0
I0
I1
I0
I1
tp2813
g21
tp2814
g4
(g8
S'_\xee\xf4\x03\xddk\xd1?'
p2815
tp2816
Rp2817
s((I1
I0
I0
I0
I1
I1
I1
I1
I1
I1
I1
I1
I1
I1
I0
I0
I0
I0
I0
I0
I0
I0
I0
I0
I0
I0
I0
I0
I0
I1
I1
I1
I1
tp2818
g44
tp2819
g4
(g8
S"u\n'~\x9d3\xfc?"
p2820
tp2821
Rp2822
s((I1
I0
I0
I0
I0
I0
I0
I0
I0
I0
I0
I0
I0
I0
I0
I0
I0
I0
I0
I0
I0
I0
I0
I0
I0
I0
I0
I0
I0
I0
I0
I0
I0
tp2823
g248
tp2824
g4
(g8
S'\xa5\xefO\xbb\xdcq\xfb?'
p2825
tp2826
Rp2827
s((I0
I1
I0
I0
I1
I1
I1
I1
I1
I1
I0
I0
I0
I0
I0
I0
I0
I0
I0
I0
I0
I0
I0
I0
I0
I0
I0
I0
I0
I0
I0
I0
I0
tp2828
g50
tp2829
g4
(g8
S'\x8fa\xc9\xe3\\\xb2\xd6?'
p2830
tp2831
Rp2832
s((I0
I0
I0
I1
I1
I1
I1
I1
I1
I1
I1
I1
I1
I1
I1
I1
I1
I1
I1
I1
I1
I0
I0
I0
I0
I0
I0
I0
I0
I0
I0
I0
I0
tp2833
g32
tp2834
g4
(g8
S'(Wi\xf5S\x00\xd3?'
p2835
tp2836
Rp2837
s((I0
I1
I0
I0
I1
I1
I1
I1
I1
I1
I1
I1
I1
I1
I0
I0
I0
I0
I0
I0
I0
I0
I0
I0
I0
I0
I0
I0
I0
I0
I0
I0
I0
tp2838
g147
tp2839
g4
(g8
S'\x98\xa4\x94T\xf1i\x01@'
p2840
tp2841
Rp2842
s((I0
I0
I1
I0
I1
I1
I1
I1
I1
I1
I1
I1
I1
I1
I1
I1
I1
I1
I1
I0
I0
I0
I0
I0
I0
I0
I0
I0
I0
I1
I0
I1
I0
tp2843
g38
tp2844
g4
(g8
S'\x94/\xebQ\x03\xe5\t@'
p2845
tp2846
Rp2847
s((I0
I0
I1
I0
I1
I1
I1
I1
I1
I1
I1
I1
I1
I1
I1
I1
I1
I1
I1
I0
I0
I0
I0
I0
I0
I0
I0
I0
I0
I0
I0
I0
I1
tp2848
g136
tp2849
g4
(g8
S'\x8c\xf2\xbe\xc1\xe0\xa4\xa8?'
p2850
tp2851
Rp2852
s((I0
I0
I1
I0
I1
I1
I1
I1
I1
I1
I1
I1
I1
I1
I1
I1
I1
I1
I1
I1
I1
I1
I0
I0
I0
I0
I0
I0
I0
I1
I1
I1
I0
tp2853
g626
tp2854
g4
(g8
S'\x12\t`\xa9U\xe1\xd1?'
p2855
tp2856
Rp2857
s((I1
I0
I0
I0
I1
I1
I1
I1
I1
I1
I1
I1
I1
I1
I1
I1
I1
I1
I1
I1
I1
I1
I1
I0
I0
I0
I0
I0
I0
I0
I0
I0
I0
tp2858
g174
tp2859
g4
(g8
S'\xe5\x04#\xf0\xa7\xc6\xf6?'
p2860
tp2861
Rp2862
s((I0
I0
I0
I1
I1
I1
I1
I1
I1
I1
I1
I1
I1
I1
I1
I1
I1
I1
I1
I1
I1
I1
I1
I1
I1
I1
I1
I1
I1
I0
I0
I1
I0
tp2863
g32
tp2864
g4
(g8
S'\xb6N\xa0\xb3C$\xf8?'
p2865
tp2866
Rp2867
s((I0
I1
I0
I0
I1
I1
I1
I1
I1
I1
I1
I1
I1
I1
I1
I1
I1
I1
I1
I1
I1
I1
I1
I1
I1
I1
I1
I1
I0
I0
I0
I1
I0
tp2868
g50
tp2869
g4
(g8
S'\xcb\xb9\x90\x8at\xe7\xa8?'
p2870
tp2871
Rp2872
s((I1
I0
I0
I0
I0
I0
I0
I0
I0
I0
I0
I0
I0
I0
I0
I0
I0
I0
I0
I0
I0
I0
I0
I0
I0
I0
I0
I0
I0
I0
I0
I1
I0
tp2873
g85
tp2874
g4
(g8
S"\xb1W'\xb9~\x1c\x03@"
p2875
tp2876
Rp2877
s((I0
I0
I0
I1
I1
I1
I1
I1
I1
I1
I1
I1
I1
I1
I1
I1
I1
I1
I1
I1
I1
I1
I1
I1
I1
I1
I1
I0
I0
I0
I1
I0
I1
tp2878
g32
tp2879
g4
(g8
S'\xcf\xed\xdb]}\x7f\xf3?'
p2880
tp2881
Rp2882
s((I0
I0
I1
I0
I1
I1
I1
I1
I1
I1
I1
I1
I1
I1
I1
I1
I1
I1
I1
I1
I1
I1
I1
I1
I1
I1
I0
I0
I0
I0
I0
I0
I1
tp2883
g15
tp2884
g4
(g8
S'\xce\xe6\xf7u\x15\x84\xf1?'
p2885
tp2886
Rp2887
s((I0
I0
I1
I0
I1
I1
I1
I1
I1
I1
I1
I1
I1
I1
I1
I1
I1
I1
I1
I1
I1
I1
I1
I1
I1
I1
I1
I0
I0
I1
I1
I1
I1
tp2888
g136
tp2889
g4
(g8
S'I\xd6\xbdC\xfa8\xf6?'
p2890
tp2891
Rp2892
s((I1
I0
I0
I0
I1
I1
I1
I1
I1
I1
I1
I1
I1
I1
I0
I0
I0
I0
I0
I0
I0
I0
I0
I0
I0
I0
I0
I0
I0
I0
I1
I0
I1
tp2893
g226
tp2894
g4
(g8
S'\x16\x90\xf7Sb\xa0\xc6?'
p2895
tp2896
Rp2897
s((I1
I0
I0
I0
I1
I1
I1
I1
I1
I1
I1
I1
I1
I1
I1
I1
I0
I0
I0
I0
I0
I0
I0
I0
I0
I0
I0
I0
I0
I0
I0
I0
I1
tp2898
g158
tp2899
g4
(g8
S'\t\xf9\xb2\xf3?\r\xd0?'
p2900
tp2901
Rp2902
s((I1
I0
I0
I0
I1
I1
I1
I1
I1
I0
I0
I0
I0
I0
I0
I0
I0
I0
I0
I0
I0
I0
I0
I0
I0
I0
I0
I0
I0
I0
I0
I0
I0
tp2903
g85
tp2904
g4
(g8
S'\x18F\xa2\n!\xc4\xfd?'
p2905
tp2906
Rp2907
s((I1
I0
I0
I0
I1
I1
I1
I1
I1
I1
I1
I1
I1
I1
I0
I0
I0
I0
I0
I0
I0
I0
I0
I0
I0
I0
I0
I0
I0
I1
I1
I0
I1
tp2908
g119
tp2909
g4
(g8
S'\x83>\x1c\xe4\x82\xdc\xf2?'
p2910
tp2911
Rp2912
s((I1
I0
I0
I0
I1
I1
I1
I1
I1
I1
I1
I1
I0
I0
I0
I0
I0
I0
I0
I0
I0
I0
I0
I0
I0
I0
I0
I0
I0
I1
I0
I1
I0
tp2913
g158
tp2914
g4
(g8
S'\xb0r\xc8\xe9\x8bZ\xc7?'
p2915
tp2916
Rp2917
s((I0
I0
I1
I0
I1
I1
I1
I1
I1
I1
I1
I1
I1
I1
I1
I1
I1
I1
I1
I0
I0
I0
I0
I0
I0
I0
I0
I0
I0
I0
I0
I0
I1
tp2918
g38
tp2919
g4
(g8
S'\x84\xb9\xfa\x0f\x1b\xc2\xb8?'
p2920
tp2921
Rp2922
s((I0
I1
I0
I0
I1
I1
I1
I1
I1
I1
I1
I1
I1
I1
I1
I1
I1
I1
I1
I1
I1
I1
I1
I1
I1
I1
I1
I1
I1
I1
I0
I0
I1
tp2923
g1080
tp2924
g4
(g8
S'\x1ag\xf6\xc4\xee6\x06@'
p2925
tp2926
Rp2927
s((I1
I0
I0
I0
I1
I1
I1
I1
I1
I1
I1
I1
I1
I0
I0
I0
I0
I0
I0
I0
I0
I0
I0
I0
I0
I0
I0
I0
I0
I1
I1
I1
I1
tp2928
g62
tp2929
g4
(g8
S'\xdb#\x1f\xaai\x99\xe0?'
p2930
tp2931
Rp2932
s((I0
I0
I1
I0
I1
I1
I1
I1
I1
I0
I0
I0
I0
I0
I0
I0
I0
I0
I0
I0
I0
I0
I0
I0
I0
I0
I0
I0
I0
I1
I1
I1
I1
tp2933
g38
tp2934
g4
(g8
S')\xdbEA\xe3|\x04@'
p2935
tp2936
Rp2937
s((I1
I0
I0
I0
I1
I1
I1
I1
I1
I1
I1
I1
I1
I1
I1
I1
I1
I1
I1
I1
I1
I1
I1
I1
I1
I1
I1
I0
I0
I1
I0
I1
I0
tp2938
g21
tp2939
g4
(g8
S'7\xc3o\x99#&\xe1?'
p2940
tp2941
Rp2942
s((I1
I0
I0
I0
I1
I1
I1
I1
I1
I1
I1
I1
I1
I1
I1
I1
I1
I1
I1
I1
I1
I1
I1
I1
I1
I1
I1
I1
I1
I1
I1
I1
I1
tp2943
g73
tp2944
g4
(g8
S'\xeb\xa2\x9cJ\xbc\xec\x02@'
p2945
tp2946
Rp2947
s((I1
I0
I0
I0
I1
I1
I1
I1
I1
I1
I1
I1
I1
I1
I0
I0
I0
I0
I0
I0
I0
I0
I0
I0
I0
I0
I0
I0
I0
I0
I0
I0
I1
tp2948
g174
tp2949
g4
(g8
S'\xd8\x1f\x14d\xdb\x9f\xc0?'
p2950
tp2951
Rp2952
s((I0
I1
I0
I0
I1
I1
I1
I1
I1
I1
I1
I1
I1
I1
I1
I1
I0
I0
I0
I0
I0
I0
I0
I0
I0
I0
I0
I0
I0
I1
I0
I1
I0
tp2953
g147
tp2954
g4
(g8
S'\xc7*\xaa 6>\xa3?'
p2955
tp2956
Rp2957
s((I1
I0
I0
I0
I1
I1
I1
I1
I0
I0
I0
I0
I0
I0
I0
I0
I0
I0
I0
I0
I0
I0
I0
I0
I0
I0
I0
I0
I0
I0
I0
I0
I0
tp2958
g119
tp2959
g4
(g8
S'\x04\xd0\xe2\x93\x1eH\xb8?'
p2960
tp2961
Rp2962
s((I1
I0
I0
I0
I1
I1
I1
I1
I1
I1
I1
I1
I1
I1
I1
I1
I1
I1
I1
I1
I1
I1
I1
I1
I1
I0
I0
I0
I0
I1
I1
I1
I1
tp2963
g389
tp2964
g4
(g8
S'hA\xc6\xd6\xaf\t\t@'
p2965
tp2966
Rp2967
s((I1
I0
I0
I0
I1
I1
I1
I1
I1
I1
I1
I1
I1
I1
I1
I1
I0
I0
I0
I0
I0
I0
I0
I0
I0
I0
I0
I0
I0
I0
I0
I0
I1
tp2968
g389
tp2969
g4
(g8
S'\x8f\xc5J\xef\xf1\xa0\x01@'
p2970
tp2971
Rp2972
s((I0
I1
I0
I0
I1
I1
I1
I1
I1
I1
I1
I1
I1
I1
I1
I1
I1
I1
I1
I1
I1
I1
I1
I1
I0
I0
I0
I0
I0
I1
I0
I1
I0
tp2973
g56
tp2974
g4
(g8
S'\n\x19&A\xdb\xe7\xa8?'
p2975
tp2976
Rp2977
s((I0
I1
I0
I0
I1
I1
I1
I1
I1
I1
I1
I1
I1
I1
I1
I1
I1
I1
I1
I1
I1
I1
I1
I1
I1
I1
I1
I0
I0
I1
I1
I0
I1
tp2978
g50
tp2979
g4
(g8
S'\xe1\x91\xfe\xec\x89G\xfa?'
p2980
tp2981
Rp2982
s((I0
I1
I0
I0
I1
I1
I1
I1
I1
I1
I1
I1
I1
I0
I0
I0
I0
I0
I0
I0
I0
I0
I0
I0
I0
I0
I0
I0
I0
I0
I0
I0
I0
tp2983
g50
tp2984
g4
(g8
S'\xe3\x84\x1e\xa3U\xed\xd6?'
p2985
tp2986
Rp2987
s((I0
I1
I0
I0
I1
I1
I1
I1
I1
I1
I1
I1
I1
I1
I0
I0
I0
I0
I0
I0
I0
I0
I0
I0
I0
I0
I0
I0
I0
I1
I1
I1
I1
tp2988
g91
tp2989
g4
(g8
S'\x97#,iH \xf2?'
p2990
tp2991
Rp2992
s((I0
I0
I0
I1
I1
I1
I1
I1
I1
I1
I1
I1
I1
I1
I1
I1
I1
I1
I1
I1
I1
I1
I1
I0
I0
I0
I0
I0
I0
I1
I0
I1
I0
tp2993
g32
tp2994
g4
(g8
S'\xa1t\xfe[\x15\x9e\xf8?'
p2995
tp2996
Rp2997
s((I0
I1
I0
I0
I1
I1
I1
I1
I0
I0
I0
I0
I0
I0
I0
I0
I0
I0
I0
I0
I0
I0
I0
I0
I0
I0
I0
I0
I0
I0
I0
I0
I0
tp2998
g147
tp2999
g4
(g8
S'$\x07\x98\xd1/\xca\xfd?'
p3000
tp3001
Rp3002
s((I0
I1
I0
I0
I1
I1
I1
I1
I1
I1
I1
I1
I1
I0
I0
I0
I0
I0
I0
I0
I0
I0
I0
I0
I0
I0
I0
I0
I0
I1
I1
I1
I1
tp3003
g91
tp3004
F0.041666666666666664
s((I1
I0
I0
I0
I1
I1
I1
I1
I1
I1
I1
I1
I1
I1
I1
I1
I0
I0
I0
I0
I0
I0
I0
I0
I0
I0
I0
I0
I0
I0
I0
I0
I0
tp3005
g44
tp3006
g4
(g8
S'\xac,\xe5\xb4\xee\x91\x00@'
p3007
tp3008
Rp3009
s((I1
I0
I0
I0
I1
I1
I1
I1
I1
I1
I1
I1
I1
I1
I1
I1
I1
I1
I0
I0
I0
I0
I0
I0
I0
I0
I0
I0
I0
I0
I0
I0
I0
tp3010
g119
tp3011
g4
(g8
S',\xde\xa9D!\xa0\x04@'
p3012
tp3013
Rp3014
s((I0
I0
I0
I1
I1
I1
I1
I1
I1
I1
I1
I1
I1
I1
I1
I1
I1
I1
I1
I0
I0
I0
I0
I0
I0
I0
I0
I0
I0
I0
I1
I0
I1
tp3015
g32
tp3016
g4
(g8
S'\xdd\xe1\x88\x83i\x13\xf5?'
p3017
tp3018
Rp3019
s((I0
I0
I1
I0
I1
I1
I1
I1
I1
I1
I1
I1
I1
I1
I1
I1
I1
I1
I1
I1
I0
I0
I0
I0
I0
I0
I0
I0
I0
I0
I0
I0
I1
tp3020
g38
tp3021
g4
(g8
S'\xc6J\xd2z\x89\xff\t@'
p3022
tp3023
Rp3024
s((I1
I0
I0
I0
I1
I1
I1
I1
I1
I1
I1
I1
I1
I1
I1
I1
I1
I1
I1
I1
I1
I1
I1
I0
I0
I0
I0
I0
I0
I0
I0
I0
I0
tp3025
g44
tp3026
g4
(g8
S'F]\xd6\x91\xde\x08\x07@'
p3027
tp3028
Rp3029
s((I1
I0
I0
I0
I1
I1
I1
I1
I1
I1
I1
I1
I1
I1
I1
I1
I1
I1
I1
I1
I1
I1
I1
I1
I1
I1
I1
I0
I0
I0
I0
I0
I0
tp3030
g79
tp3031
g4
(g8
S'\xdeL\xb3\x1f\xf7!\xe2?'
p3032
tp3033
Rp3034
s((I1
I0
I0
I0
I1
I1
I1
I1
I1
I1
I1
I1
I1
I1
I1
I1
I1
I1
I1
I1
I1
I1
I0
I0
I0
I0
I0
I0
I0
I1
I1
I1
I0
tp3035
g21
tp3036
g4
(g8
S'\xb2\xa5\xa6?\xbf\x06\xe2?'
p3037
tp3038
Rp3039
s((I0
I0
I1
I0
I1
I1
I1
I1
I1
I1
I1
I1
I1
I1
I1
I1
I1
I1
I1
I1
I1
I1
I1
I1
I1
I1
I1
I0
I0
I0
I1
I0
I1
tp3040
g1388
tp3041
g4
(g8
S'9\xc98b2\x1d\xa7?'
p3042
tp3043
Rp3044
s((I1
I0
I0
I0
I1
I1
I1
I1
I1
I1
I1
I1
I1
I1
I1
I1
I1
I1
I1
I1
I1
I1
I1
I1
I1
I1
I1
I1
I0
I1
I0
I1
I0
tp3045
g389
tp3046
g4
(g8
S'\xdd\x177"\x9b\x19\xd3?'
p3047
tp3048
Rp3049
s((I1
I0
I0
I0
I1
I1
I1
I1
I1
I1
I1
I1
I1
I1
I0
I0
I0
I0
I0
I0
I0
I0
I0
I0
I0
I0
I0
I0
I0
I0
I0
I0
I1
tp3050
g21
tp3051
g4
(g8
S'\xc54t\xde!1\xfb?'
p3052
tp3053
Rp3054
s((I1
I0
I0
I0
I1
I1
I1
I1
I1
I0
I0
I0
I0
I0
I0
I0
I0
I0
I0
I0
I0
I0
I0
I0
I0
I0
I0
I0
I0
I1
I1
I1
I1
tp3055
g248
tp3056
g4
(g8
S'\r\xd2\xcb\x15>\xac\x01@'
p3057
tp3058
Rp3059
s((I0
I0
I0
I1
I1
I1
I1
I1
I1
I1
I1
I1
I1
I1
I1
I1
I1
I1
I1
I1
I1
I1
I1
I1
I0
I0
I0
I0
I0
I0
I1
I1
I1
tp3060
g32
tp3061
g4
(g8
S'\xf2\x04\xca\xf9\xcdw\xf6?'
p3062
tp3063
Rp3064
s((I1
I0
I0
I0
I1
I1
I1
I1
I1
I1
I1
I1
I0
I0
I0
I0
I0
I0
I0
I0
I0
I0
I0
I0
I0
I0
I0
I0
I0
I1
I1
I1
I1
tp3065
g73
tp3066
g4
(g8
S'{\x87\xe6C\x0f6\x03@'
p3067
tp3068
Rp3069
s((I0
I0
I1
I0
I1
I1
I1
I1
I1
I1
I1
I1
I1
I1
I1
I1
I1
I1
I1
I0
I0
I0
I0
I0
I0
I0
I0
I0
I0
I1
I1
I1
I1
tp3070
g38
tp3071
g4
(g8
S'\x80\xd8l\x1c\xf3\xff\x07@'
p3072
tp3073
Rp3074
s((I1
I0
I0
I0
I1
I1
I1
I1
I1
I1
I1
I1
I1
I1
I0
I0
I0
I0
I0
I0
I0
I0
I0
I0
I0
I0
I0
I0
I0
I0
I0
I1
I0
tp3075
g44
tp3076
g4
(g8
S'D\xef\x82\xaa\x93j\xfb?'
p3077
tp3078
Rp3079
s((I0
I1
I0
I0
I1
I1
I1
I1
I1
I1
I1
I1
I0
I0
I0
I0
I0
I0
I0
I0
I0
I0
I0
I0
I0
I0
I0
I0
I0
I1
I1
I1
I1
tp3080
g56
tp3081
g4
(g8
S'\x98\xa6\xa8\n\x9a\r\xc4?'
p3082
tp3083
Rp3084
s((I0
I1
I0
I0
I1
I1
I1
I1
I1
I1
I1
I1
I1
I1
I1
I1
I1
I1
I1
I1
I1
I1
I1
I1
I1
I1
I1
I1
I0
I0
I0
I0
I0
tp3085
g56
tp3086
g4
(g8
S'\xf5 \x99z\xda\x95\xd7?'
p3087
tp3088
Rp3089
s((I0
I0
I1
I0
I1
I1
I1
I1
I1
I1
I1
I1
I1
I1
I1
I1
I1
I1
I1
I1
I1
I1
I1
I0
I0
I0
I0
I0
I0
I0
I0
I0
I1
tp3090
g1388
tp3091
g4
(g8
S'\xe0p\x99~eS\xdd?'
p3092
tp3093
Rp3094
s((I0
I0
I0
I1
I1
I1
I1
I1
I1
I1
I1
I1
I1
I1
I1
I1
I1
I1
I0
I0
I0
I0
I0
I0
I0
I0
I0
I0
I0
I1
I1
I1
I1
tp3095
g32
tp3096
g4
(g8
S'1}J;w\x8a\xf2?'
p3097
tp3098
Rp3099
s((I0
I0
I1
I0
I1
I1
I1
I1
I1
I1
I1
I1
I1
I1
I1
I1
I1
I0
I0
I0
I0
I0
I0
I0
I0
I0
I0
I0
I0
I1
I1
I1
I1
tp3100
g107
tp3101
g4
(g8
S'\x135%\x13\xe9\xa1\xcc?'
p3102
tp3103
Rp3104
s((I0
I0
I1
I0
I1
I1
I1
I1
I1
I1
I1
I1
I0
I0
I0
I0
I0
I0
I0
I0
I0
I0
I0
I0
I0
I0
I0
I0
I0
I1
I1
I1
I0
tp3105
g274
tp3106
g4
(g8
S'X\x80\xea\x9c\xb5\xac\xc1?'
p3107
tp3108
Rp3109
s((I0
I1
I0
I0
I1
I1
I1
I1
I1
I1
I1
I1
I1
I0
I0
I0
I0
I0
I0
I0
I0
I0
I0
I0
I0
I0
I0
I0
I0
I0
I0
I0
I1
tp3110
g50
tp3111
g4
(g8
S'\xd3\x8a\x9fp\xb4\x99\xd7?'
p3112
tp3113
Rp3114
s((I0
I1
I0
I0
I1
I1
I1
I1
I1
I1
I1
I1
I1
I1
I1
I1
I1
I1
I1
I1
I1
I1
I1
I1
I1
I1
I1
I1
I1
I1
I1
I1
I0
tp3115
g147
tp3116
g4
(g8
S'@n\x87\xb5Ua\x06@'
p3117
tp3118
Rp3119
s((I1
I0
I0
I0
I1
I1
I1
I1
I1
I1
I1
I1
I1
I1
I1
I1
I1
I1
I1
I1
I1
I1
I1
I0
I0
I0
I0
I0
I0
I1
I1
I1
I0
tp3120
g158
tp3121
g4
(g8
S'\x86\xa1\xe0|2\xb3\x04@'
p3122
tp3123
Rp3124
s((I0
I0
I0
I1
I1
I1
I1
I1
I1
I1
I1
I1
I1
I1
I0
I0
I0
I0
I0
I0
I0
I0
I0
I0
I0
I0
I0
I0
I0
I0
I0
I0
I0
tp3125
g32
tp3126
g4
(g8
S'a\xfc0\xcd\x1a\x02\xe9?'
p3127
tp3128
Rp3129
s((I0
I0
I1
I0
I1
I1
I1
I1
I1
I0
I0
I0
I0
I0
I0
I0
I0
I0
I0
I0
I0
I0
I0
I0
I0
I0
I0
I0
I0
I0
I1
I0
I1
tp3130
g15
tp3131
g4
(g8
S'/\x157\x1f\xff\x11\x90\xbf'
p3132
tp3133
Rp3134
s((I0
I0
I1
I0
I1
I1
I1
I1
I1
I1
I1
I1
I1
I1
I1
I1
I1
I1
I1
I1
I1
I1
I1
I0
I0
I0
I0
I0
I0
I1
I1
I1
I0
tp3135
g15
tp3136
g4
(g8
S'\xca\x15\x96Z\xc1\x06\xd2?'
p3137
tp3138
Rp3139
s((I0
I1
I0
I0
I1
I1
I1
I1
I1
I1
I1
I1
I1
I1
I1
I1
I1
I1
I1
I1
I1
I1
I1
I1
I1
I0
I0
I0
I0
I1
I1
I1
I1
tp3140
g687
tp3141
g4
(g8
S'\xf0\xb4\xd8\xa9f\xe3\xd9?'
p3142
tp3143
Rp3144
s((I0
I1
I0
I0
I1
I1
I1
I1
I1
I1
I1
I1
I1
I1
I0
I0
I0
I0
I0
I0
I0
I0
I0
I0
I0
I0
I0
I0
I0
I0
I1
I0
I1
tp3145
g147
tp3146
g4
(g8
S'8\xcf\xf5\xcf^\xfc\xf7?'
p3147
tp3148
Rp3149
s((I1
I0
I0
I0
I1
I1
I1
I1
I1
I1
I1
I1
I1
I1
I1
I1
I1
I1
I1
I1
I1
I1
I1
I1
I1
I1
I1
I1
I1
I0
I0
I0
I0
tp3150
g174
tp3151
g4
(g8
S'\xec\xd63\xb8\xa5U\x9a?'
p3152
tp3153
Rp3154
s((I0
I0
I0
I1
I1
I1
I1
I1
I1
I1
I1
I1
I1
I1
I1
I1
I1
I1
I1
I1
I1
I1
I1
I1
I1
I1
I0
I0
I0
I1
I1
I1
I1
tp3155
g32
tp3156
g4
(g8
S'i\x1a\xcb.\x86\x91\xf3?'
p3157
tp3158
Rp3159
s((I0
I0
I1
I0
I1
I1
I1
I1
I1
I1
I1
I1
I1
I1
I1
I1
I1
I1
I1
I1
I1
I1
I1
I1
I1
I1
I1
I1
I1
I1
I0
I1
I0
tp3160
g15
tp3161
g4
(g8
S'\xf4\xb6;\xf9\xd5\x91\x00@'
p3162
tp3163
Rp3164
s((I0
I0
I1
I0
I1
I1
I1
I1
I1
I1
I1
I1
I1
I1
I1
I1
I1
I1
I1
I1
I1
I1
I1
I1
I1
I1
I1
I1
I1
I0
I0
I0
I1
tp3165
g15
tp3166
g4
(g8
S'\x98\xb4Y$\xe9\xb5\xfb?'
p3167
tp3168
Rp3169
s((I1
I0
I0
I0
I1
I1
I1
I1
I1
I1
I1
I1
I1
I1
I1
I1
I1
I1
I1
I0
I0
I0
I0
I0
I0
I0
I0
I0
I0
I0
I0
I1
I0
tp3170
g44
tp3171
g4
(g8
S'\xc9\xac}\x80\xdb\xa4\xd2?'
p3172
tp3173
Rp3174
s((I0
I1
I0
I0
I1
I1
I1
I1
I1
I1
I1
I1
I1
I1
I1
I1
I1
I1
I0
I0
I0
I0
I0
I0
I0
I0
I0
I0
I0
I1
I1
I1
I1
tp3175
g91
tp3176
g4
(g8
S'\xbc\x00*At\xb1\xf3?'
p3177
tp3178
Rp3179
s((I0
I1
I0
I0
I1
I1
I1
I1
I1
I1
I1
I1
I1
I1
I1
I1
I1
I1
I1
I0
I0
I0
I0
I0
I0
I0
I0
I0
I0
I0
I1
I0
I1
tp3180
g50
tp3181
g4
(g8
S'\x8e\x9b\xf8i\xd7\x7f\xf6?'
p3182
tp3183
Rp3184
s((I1
I0
I0
I0
I1
I1
I1
I1
I1
I1
I0
I0
I0
I0
I0
I0
I0
I0
I0
I0
I0
I0
I0
I0
I0
I0
I0
I0
I0
I0
I0
I0
I0
tp3185
g79
tp3186
g4
(g8
S'\xf9\xad)\xcf\xed\x90\xb4?'
p3187
tp3188
Rp3189
s((I0
I1
I0
I0
I1
I1
I1
I1
I1
I1
I1
I1
I1
I1
I1
I1
I1
I1
I0
I0
I0
I0
I0
I0
I0
I0
I0
I0
I0
I0
I0
I0
I0
tp3190
g317
tp3191
g4
(g8
S'\xd6\x1az`L\xbb\xf2?'
p3192
tp3193
Rp3194
s((I0
I1
I0
I0
I1
I1
I1
I1
I1
I1
I1
I1
I0
I0
I0
I0
I0
I0
I0
I0
I0
I0
I0
I0
I0
I0
I0
I0
I0
I1
I1
I1
I0
tp3195
g91
tp3196
g4
(g8
S'\x03\x11\x8c\x16\xa3\x17\xdb?'
p3197
tp3198
Rp3199
s((I0
I0
I1
I0
I1
I1
I1
I1
I1
I1
I1
I1
I1
I1
I1
I1
I1
I1
I1
I1
I1
I1
I1
I1
I1
I1
I1
I1
I1
I1
I1
I0
I1
tp3200
g38
tp3201
g4
(g8
S'\xe2Gq\x03wF\xf7?'
p3202
tp3203
Rp3204
s((I0
I1
I0
I0
I1
I1
I1
I1
I1
I1
I1
I1
I1
I1
I1
I1
I1
I1
I1
I1
I1
I1
I1
I1
I0
I0
I0
I0
I0
I1
I1
I1
I0
tp3205
g50
tp3206
g4
(g8
S'\xc8W\xec\xaap3\xf5?'
p3207
tp3208
Rp3209
s((I1
I0
I0
I0
I1
I1
I1
I1
I1
I1
I1
I1
I1
I1
I1
I1
I1
I1
I1
I1
I1
I1
I1
I1
I1
I1
I1
I0
I0
I1
I0
I0
I0
tp3210
g2
tp3211
g4
(g8
S'\xdajsH\x94\xc5\xe6?'
p3212
tp3213
Rp3214
s((I1
I0
I0
I0
I1
I1
I1
I1
I1
I1
I1
I1
I1
I1
I1
I1
I1
I1
I1
I1
I1
I1
I1
I1
I1
I1
I1
I1
I1
I0
I1
I1
I0
tp3215
g1101
tp3216
g4
(g8
S'\xf3\x9f\xfc\xbf\xdb\x86\xee?'
p3217
tp3218
Rp3219
s((I0
I0
I1
I0
I1
I1
I1
I1
I1
I1
I1
I1
I1
I1
I1
I1
I1
I1
I1
I1
I1
I1
I1
I1
I1
I1
I1
I1
I1
I1
I1
I1
I1
tp3220
g38
tp3221
g4
(g8
S'|\xec5\xc7\x067\xfb?'
p3222
tp3223
Rp3224
s((I0
I0
I0
I1
I1
I1
I1
I1
I1
I1
I1
I1
I1
I1
I1
I1
I1
I1
I1
I1
I1
I1
I1
I1
I1
I1
I1
I1
I1
I1
I1
I1
I0
tp3225
g32
tp3226
g4
(g8
S'G\x86\xeb8\x13\xe4\xf5?'
p3227
tp3228
Rp3229
s((I0
I1
I0
I0
I1
I1
I1
I1
I1
I0
I0
I0
I0
I0
I0
I0
I0
I0
I0
I0
I0
I0
I0
I0
I0
I0
I0
I0
I0
I0
I0
I0
I1
tp3230
g91
tp3231
g4
(g8
S'{$\x9f\x06\xb9\xf2\xf0?'
p3232
tp3233
Rp3234
s((I1
I0
I0
I0
I0
I0
I0
I0
I0
I0
I0
I0
I0
I0
I0
I0
I0
I0
I0
I0
I0
I0
I0
I0
I0
I0
I0
I0
I0
I0
I0
I0
I1
tp3235
g85
tp3236
g4
(g8
S'Z\xf8\x17\x83\x11&\xf5?'
p3237
tp3238
Rp3239
s((I0
I0
I1
I0
I1
I1
I1
I1
I1
I1
I1
I1
I1
I1
I1
I1
I1
I1
I0
I0
I0
I0
I0
I0
I0
I0
I0
I0
I0
I1
I0
I1
I0
tp3240
g107
tp3241
g4
(g8
S'"&kEo,\xf7?'
p3242
tp3243
Rp3244
s((I0
I1
I0
I0
I1
I1
I1
I1
I1
I0
I0
I0
I0
I0
I0
I0
I0
I0
I0
I0
I0
I0
I0
I0
I0
I0
I0
I0
I0
I1
I1
I1
I0
tp3245
g91
tp3246
g4
(g8
S'\xa6\xc1k]\x05\xe9\xf1?'
p3247
tp3248
Rp3249
s((I1
I0
I0
I0
I1
I1
I1
I1
I1
I1
I1
I1
I1
I1
I1
I1
I1
I1
I1
I1
I1
I1
I1
I0
I0
I0
I0
I0
I0
I1
I1
I0
I1
tp3250
g21
tp3251
g4
(g8
S'l\x9c\xbb\xac\xc6\xf5\xf9?'
p3252
tp3253
Rp3254
s((I0
I0
I0
I1
I1
I1
I1
I1
I1
I1
I1
I1
I1
I1
I1
I1
I1
I1
I1
I1
I1
I1
I1
I1
I1
I1
I1
I1
I0
I0
I0
I1
I0
tp3255
g32
tp3256
g4
(g8
S'\xf11WFY@\xf3?'
p3257
tp3258
Rp3259
s((I0
I1
I0
I0
I1
I1
I1
I1
I1
I1
I1
I1
I1
I1
I1
I1
I1
I1
I1
I1
I1
I1
I1
I1
I1
I1
I1
I0
I0
I1
I1
I0
I1
tp3260
g56
tp3261
g4
(g8
S'\xb5r\xdd\xb3\x87\x94\xeb?'
p3262
tp3263
Rp3264
s((I0
I1
I0
I0
I1
I1
I1
I1
I1
I1
I1
I1
I1
I1
I0
I0
I0
I0
I0
I0
I0
I0
I0
I0
I0
I0
I0
I0
I0
I1
I0
I1
I0
tp3265
g1080
tp3266
g4
(g8
S'\\Y\x1e:\x0c\xbf\xb3?'
p3267
tp3268
Rp3269
s((I1
I0
I0
I0
I1
I1
I1
I1
I1
I1
I1
I1
I0
I0
I0
I0
I0
I0
I0
I0
I0
I0
I0
I0
I0
I0
I0
I0
I0
I1
I1
I1
I0
tp3270
g73
tp3271
g4
(g8
S'\xa0\xbb\xf1\xd0\xbb7\x01@'
p3272
tp3273
Rp3274
s((I0
I0
I1
I0
I1
I1
I1
I1
I1
I1
I1
I1
I1
I1
I1
I1
I0
I0
I0
I0
I0
I0
I0
I0
I0
I0
I0
I0
I0
I0
I0
I0
I0
tp3275
g15
tp3276
g4
(g8
S'+M\xc8\xd7X\x0c\xc6?'
p3277
tp3278
Rp3279
s((I1
I0
I0
I0
I1
I1
I1
I1
I1
I1
I1
I1
I1
I1
I1
I1
I1
I1
I1
I1
I1
I1
I1
I1
I1
I1
I1
I1
I0
I1
I1
I1
I0
tp3280
g1101
tp3281
g4
(g8
S'\xb9I\t\xbd\x014\x04@'
p3282
tp3283
Rp3284
s((I0
I1
I0
I0
I1
I1
I1
I1
I1
I1
I1
I1
I1
I1
I1
I1
I1
I1
I1
I1
I1
I1
I1
I1
I1
I1
I1
I0
I0
I0
I0
I0
I0
tp3285
g91
tp3286
g4
(g8
S'\x0e\xb3\x06\xbb\xa3\xc9\xda?'
p3287
tp3288
Rp3289
s((I1
I0
I0
I0
I1
I1
I1
I1
I1
I1
I1
I1
I1
I1
I0
I0
I0
I0
I0
I0
I0
I0
I0
I0
I0
I0
I0
I0
I0
I1
I1
I0
I1
tp3290
g21
tp3291
g4
(g8
S'<\xa2\xec\xbf\xe6\xf6\xf8?'
p3292
tp3293
Rp3294
s((I0
I1
I0
I0
I1
I1
I1
I1
I1
I1
I1
I1
I1
I1
I1
I1
I1
I1
I1
I1
I1
I0
I0
I0
I0
I0
I0
I0
I0
I0
I1
I1
I1
tp3295
g147
tp3296
g4
(g8
S'\x12v\xe7*p\xda\x08@'
p3297
tp3298
Rp3299
s((I0
I0
I1
I0
I1
I1
I1
I1
I1
I1
I1
I1
I1
I1
I1
I1
I1
I1
I1
I1
I1
I1
I1
I1
I1
I1
I1
I1
I1
I0
I0
I0
I0
tp3300
g38
tp3301
g4
(g8
S',\xf0\x82qr\xe7\x0b@'
p3302
tp3303
Rp3304
s((I0
I1
I0
I0
I1
I1
I1
I1
I1
I1
I1
I1
I1
I1
I1
I1
I1
I1
I0
I0
I0
I0
I0
I0
I0
I0
I0
I0
I0
I0
I0
I0
I0
tp3305
g56
tp3306
g4
(g8
S'\x9c\x7f\x0eD\xed\x00\x02@'
p3307
tp3308
Rp3309
s((I1
I0
I0
I0
I1
I1
I1
I1
I1
I1
I1
I1
I1
I1
I1
I1
I1
I1
I1
I1
I1
I1
I1
I1
I1
I1
I1
I0
I0
I1
I0
I0
I1
tp3310
g21
tp3311
g4
(g8
S'K#-e\x1f\xac\xec?'
p3312
tp3313
Rp3314
s((I1
I0
I0
I0
I1
I1
I1
I1
I1
I1
I1
I1
I1
I0
I0
I0
I0
I0
I0
I0
I0
I0
I0
I0
I0
I0
I0
I0
I0
I0
I1
I0
I1
tp3315
g119
tp3316
g4
(g8
S'\xdf94\xff\xd1\xc3\xf4?'
p3317
tp3318
Rp3319
s((I0
I0
I1
I0
I1
I1
I1
I1
I1
I1
I1
I1
I1
I0
I0
I0
I0
I0
I0
I0
I0
I0
I0
I0
I0
I0
I0
I0
I0
I1
I1
I1
I0
tp3320
g107
tp3321
g4
(g8
S'\xa6xVU^r\xcb?'
p3322
tp3323
Rp3324
s((I0
I0
I1
I0
I1
I1
I1
I1
I1
I1
I1
I1
I1
I1
I1
I1
I1
I1
I0
I0
I0
I0
I0
I0
I0
I0
I0
I0
I0
I1
I1
I0
I1
tp3325
g15
tp3326
g4
(g8
S'.n\xbc\xd3|\xba\xce?'
p3327
tp3328
Rp3329
s((I0
I0
I1
I0
I1
I1
I1
I1
I1
I1
I1
I1
I1
I1
I1
I1
I0
I0
I0
I0
I0
I0
I0
I0
I0
I0
I0
I0
I0
I1
I0
I1
I0
tp3330
g113
tp3331
g4
(g8
S'\x88\x85X"64\x83\xbf'
p3332
tp3333
Rp3334
s((I1
I0
I0
I0
I0
I0
I0
I0
I0
I0
I0
I0
I0
I0
I0
I0
I0
I0
I0
I0
I0
I0
I0
I0
I0
I0
I0
I0
I0
I1
I0
I0
I0
tp3335
g248
tp3336
g4
(g8
S"\xa6\xd6\x8b?'\x01\xfc?"
p3337
tp3338
Rp3339
s((I0
I1
I0
I0
I1
I1
I1
I1
I1
I1
I1
I1
I1
I1
I1
I1
I1
I1
I1
I1
I1
I1
I1
I0
I0
I0
I0
I0
I0
I0
I1
I0
I1
tp3340
g317
tp3341
g4
(g8
S' h\x12\x06\x87\x9a\xf4?'
p3342
tp3343
Rp3344
s((I0
I1
I0
I0
I1
I1
I1
I1
I1
I1
I1
I1
I1
I1
I1
I1
I1
I1
I1
I1
I1
I1
I1
I1
I1
I1
I1
I1
I0
I1
I1
I0
I1
tp3345
g2085
tp3346
g4
(g8
S'\x9b\xb2\x05\xeb\x9b\x04\xe5?'
p3347
tp3348
Rp3349
s((I1
I0
I0
I0
I1
I1
I1
I1
I1
I1
I1
I1
I1
I0
I0
I0
I0
I0
I0
I0
I0
I0
I0
I0
I0
I0
I0
I0
I0
I1
I1
I1
I1
tp3350
g174
tp3351
g4
(g8
S'\x8d\x8c\xfa\xd6\xb6U\x04@'
p3352
tp3353
Rp3354
s((I0
I0
I0
I1
I1
I1
I1
I1
I1
I1
I1
I1
I1
I1
I1
I1
I1
I1
I0
I0
I0
I0
I0
I0
I0
I0
I0
I0
I0
I0
I1
I1
I1
tp3355
g32
tp3356
g4
(g8
S'\x1c\xdcN\x90K\xaf\xf1?'
p3357
tp3358
Rp3359
s((I0
I1
I0
I0
I1
I1
I1
I1
I1
I1
I1
I1
I1
I1
I1
I1
I1
I1
I1
I1
I0
I0
I0
I0
I0
I0
I0
I0
I0
I0
I0
I0
I0
tp3360
g50
tp3361
g4
(g8
S';*\xb9\x1c\x00\xb9\xb4?'
p3362
tp3363
Rp3364
s((I0
I0
I1
I0
I1
I1
I1
I1
I1
I1
I1
I1
I1
I1
I1
I1
I1
I1
I1
I1
I1
I1
I1
I1
I1
I1
I1
I1
I0
I0
I1
I1
I1
tp3365
g38
tp3366
g4
(g8
S'\xff\xa9o\x8b\xf7B\xcc?'
p3367
tp3368
Rp3369
s((I1
I0
I0
I0
I1
I1
I1
I1
I1
I1
I1
I1
I0
I0
I0
I0
I0
I0
I0
I0
I0
I0
I0
I0
I0
I0
I0
I0
I0
I0
I0
I0
I0
tp3370
g119
tp3371
g4
(g8
S'uK\xce\xa1V\xca\xe0?'
p3372
tp3373
Rp3374
s((I0
I0
I1
I0
I1
I1
I1
I1
I1
I1
I1
I1
I1
I1
I0
I0
I0
I0
I0
I0
I0
I0
I0
I0
I0
I0
I0
I0
I0
I0
I0
I0
I1
tp3375
g38
tp3376
g4
(g8
S'\x04^\x97/fh\xa6?'
p3377
tp3378
Rp3379
s((I1
I0
I0
I0
I1
I1
I1
I1
I1
I0
I0
I0
I0
I0
I0
I0
I0
I0
I0
I0
I0
I0
I0
I0
I0
I0
I0
I0
I0
I0
I1
I0
I1
tp3380
g248
tp3381
g4
(g8
S'\x96_8D\xc6_\xc0?'
p3382
tp3383
Rp3384
s((I0
I1
I0
I0
I1
I1
I1
I1
I1
I0
I0
I0
I0
I0
I0
I0
I0
I0
I0
I0
I0
I0
I0
I0
I0
I0
I0
I0
I0
I0
I0
I0
I0
tp3385
g91
tp3386
g4
(g8
S'\xdf\xf1\x96\xdc\xee+\xb6?'
p3387
tp3388
Rp3389
s((I0
I1
I0
I0
I1
I1
I1
I1
I1
I1
I1
I1
I1
I1
I1
I1
I1
I1
I1
I1
I1
I1
I1
I1
I1
I1
I1
I0
I0
I0
I1
I1
I1
tp3390
g50
tp3391
g4
(g8
S'\x97\x04\xe9\xfd\x1e\xc3\xf8?'
p3392
tp3393
Rp3394
s((I0
I0
I1
I0
I1
I1
I1
I1
I1
I1
I1
I1
I1
I1
I1
I1
I1
I1
I1
I1
I1
I1
I1
I1
I1
I1
I1
I0
I0
I1
I0
I0
I1
tp3395
g107
tp3396
g4
(g8
S'\xc1\xc6h\x10\x1a\x83\xf9?'
p3397
tp3398
Rp3399
s((I1
I0
I0
I0
I1
I1
I1
I1
I1
I1
I1
I1
I1
I1
I1
I1
I1
I0
I0
I0
I0
I0
I0
I0
I0
I0
I0
I0
I0
I1
I1
I1
I1
tp3400
g389
tp3401
g4
(g8
S'\x9c\xf5\x00\x03\x06\xe5\xd2?'
p3402
tp3403
Rp3404
s((I0
I1
I0
I0
I1
I1
I1
I1
I1
I1
I1
I1
I1
I1
I1
I1
I1
I1
I1
I1
I1
I1
I1
I1
I1
I1
I1
I0
I0
I1
I1
I1
I0
tp3405
g50
tp3406
g4
(g8
S'>\xaa\xcbe.\x8b\xf5?'
p3407
tp3408
Rp3409
s((I1
I0
I0
I0
I1
I1
I1
I1
I1
I1
I1
I1
I1
I1
I0
I0
I0
I0
I0
I0
I0
I0
I0
I0
I0
I0
I0
I0
I0
I0
I0
I0
I0
tp3410
g21
tp3411
g4
(g8
S'R\x89\xdc\x99\xd4&\xff?'
p3412
tp3413
Rp3414
s((I0
I0
I1
I0
I1
I1
I1
I1
I1
I1
I1
I1
I1
I1
I1
I1
I1
I1
I1
I1
I1
I1
I1
I1
I1
I1
I1
I1
I1
I1
I1
I1
I0
tp3415
g38
tp3416
g4
(g8
S'\x01x;\x82\x0f\xbd\x0b@'
p3417
tp3418
Rp3419
s((I0
I0
I0
I1
I1
I1
I1
I1
I1
I1
I1
I1
I1
I1
I1
I1
I0
I0
I0
I0
I0
I0
I0
I0
I0
I0
I0
I0
I0
I0
I0
I0
I1
tp3420
g1506
tp3421
g4
(g8
S'\x13a\x14\xad\xdcJ\xe1?'
p3422
tp3423
Rp3424
s((I0
I0
I1
I0
I1
I1
I1
I1
I1
I1
I1
I1
I1
I1
I1
I1
I0
I0
I0
I0
I0
I0
I0
I0
I0
I0
I0
I0
I0
I1
I1
I1
I1
tp3425
g626
tp3426
g4
(g8
S'\x01\x191\x02\x96\xaa\xc4?'
p3427
tp3428
Rp3429
s((I0
I0
I0
I1
I1
I1
I1
I1
I1
I1
I1
I1
I1
I1
I1
I1
I1
I1
I1
I1
I1
I1
I1
I1
I1
I1
I1
I1
I1
I0
I1
I1
I0
tp3430
g32
tp3431
g4
(g8
S'\x17\xd7\xbcH\xe5\xe4\xf6?'
p3432
tp3433
Rp3434
s((I0
I0
I1
I0
I1
I1
I1
I1
I1
I1
I1
I1
I1
I1
I1
I1
I1
I1
I1
I1
I1
I1
I1
I1
I1
I1
I1
I1
I0
I0
I1
I0
I0
tp3435
g113
tp3436
g4
(g8
S'\xb3\rS\xbcL\x1a\x06@'
p3437
tp3438
Rp3439
s((I1
I0
I0
I0
I1
I1
I1
I1
I1
I1
I1
I1
I1
I1
I1
I1
I1
I1
I1
I1
I1
I1
I1
I1
I1
I1
I1
I1
I1
I1
I1
I1
I1
tp3440
g21
tp3441
g4
(g8
S'\xe9\xb4\xb6w\xd7\xeb\x06@'
p3442
tp3443
Rp3444
s((I1
I0
I0
I0
I0
I0
I0
I0
I0
I0
I0
I0
I0
I0
I0
I0
I0
I0
I0
I0
I0
I0
I0
I0
I0
I0
I0
I0
I0
I0
I0
I1
I0
tp3445
g44
tp3446
g4
(g8
S'M\xdb\xaa\xfa\xc3f\xb2?'
p3447
tp3448
Rp3449
s((I0
I1
I0
I0
I1
I1
I1
I1
I1
I1
I1
I1
I1
I1
I1
I1
I1
I1
I1
I1
I0
I0
I0
I0
I0
I0
I0
I0
I0
I0
I0
I0
I0
tp3450
g353
tp3451
g4
(g8
S'\xe7\xda\xe7\x07-j\xd9?'
p3452
tp3453
Rp3454
s((I0
I0
I1
I0
I1
I1
I1
I1
I1
I1
I1
I1
I1
I1
I0
I0
I0
I0
I0
I0
I0
I0
I0
I0
I0
I0
I0
I0
I0
I0
I1
I0
I1
tp3455
g15
tp3456
g4
(g8
S'\x8am\xe1z+{\xef?'
p3457
tp3458
Rp3459
s((I0
I0
I1
I0
I1
I1
I1
I1
I1
I1
I1
I1
I1
I1
I1
I1
I1
I1
I1
I1
I1
I1
I1
I1
I1
I0
I0
I0
I0
I1
I1
I1
I1
tp3460
g274
tp3461
g4
(g8
S'\x1cG9\x9fH\xa6\xd4?'
p3462
tp3463
Rp3464
s((I1
I0
I0
I0
I1
I1
I1
I1
I1
I1
I1
I1
I1
I1
I1
I1
I1
I1
I1
I1
I1
I1
I1
I1
I1
I1
I1
I1
I1
I1
I1
I1
I0
tp3465
g21
tp3466
g4
(g8
S'\xb1\x14\xe0\xc6\xe3\xe7\xe4?'
p3467
tp3468
Rp3469
s((I0
I1
I0
I0
I1
I1
I1
I1
I0
I0
I0
I0
I0
I0
I0
I0
I0
I0
I0
I0
I0
I0
I0
I0
I0
I0
I0
I0
I0
I1
I0
I1
I0
tp3470
g147
tp3471
g4
(g8
S',2A]\xd8\x8d\xff?'
p3472
tp3473
Rp3474
s((I0
I0
I1
I0
I1
I1
I1
I1
I1
I1
I1
I1
I1
I1
I1
I0
I0
I0
I0
I0
I0
I0
I0
I0
I0
I0
I0
I0
I0
I0
I0
I0
I0
tp3475
g38
tp3476
g4
(g8
S'\xd9\xa1s]\x0f\xc4\x07@'
p3477
tp3478
Rp3479
s((I0
I0
I1
I0
I1
I1
I1
I1
I1
I1
I1
I1
I1
I1
I1
I1
I1
I1
I1
I1
I1
I1
I1
I1
I1
I0
I0
I0
I0
I1
I1
I1
I1
tp3480
g107
tp3481
g4
(g8
S' \xdc\x81\xd3\xde\x99\xe5?'
p3482
tp3483
Rp3484
s((I0
I1
I0
I0
I1
I1
I1
I1
I1
I1
I1
I1
I1
I1
I1
I1
I1
I1
I1
I1
I1
I0
I0
I0
I0
I0
I0
I0
I0
I0
I0
I0
I0
tp3485
g353
tp3486
g4
(g8
S'\x0c\x01\xe3\r\x98\x02\xfd?'
p3487
tp3488
Rp3489
s((I1
I0
I0
I0
I1
I1
I1
I1
I1
I1
I1
I1
I1
I1
I1
I1
I1
I0
I0
I0
I0
I0
I0
I0
I0
I0
I0
I0
I0
I0
I0
I0
I0
tp3490
g119
tp3491
g4
(g8
S'Ic\x88\xacL\xbf\xd1?'
p3492
tp3493
Rp3494
s((I1
I0
I0
I0
I1
I1
I1
I1
I1
I1
I1
I1
I1
I1
I0
I0
I0
I0
I0
I0
I0
I0
I0
I0
I0
I0
I0
I0
I0
I0
I0
I0
I0
tp3495
g44
tp3496
g4
(g8
S'\xa9\xf55\x13\xaa\xd2\xd3?'
p3497
tp3498
Rp3499
s((I0
I1
I0
I0
I1
I1
I1
I1
I1
I1
I1
I1
I1
I1
I1
I1
I1
I0
I0
I0
I0
I0
I0
I0
I0
I0
I0
I0
I0
I0
I0
I0
I0
tp3500
g147
tp3501
g4
(g8
S'Ne{C\xb1`\xfa?'
p3502
tp3503
Rp3504
s((I1
I0
I0
I0
I1
I1
I1
I1
I1
I1
I1
I1
I1
I0
I0
I0
I0
I0
I0
I0
I0
I0
I0
I0
I0
I0
I0
I0
I0
I1
I0
I1
I0
tp3505
g119
tp3506
g4
(g8
S'\x93B4l\xc2\x80\xe6?'
p3507
tp3508
Rp3509
s((I0
I1
I0
I0
I1
I1
I1
I1
I1
I1
I1
I1
I1
I1
I1
I1
I1
I0
I0
I0
I0
I0
I0
I0
I0
I0
I0
I0
I0
I1
I1
I1
I1
tp3510
g91
tp3511
g4
(g8
S'\x02\xcf\x8a\x12\xe3Q\xca?'
p3512
tp3513
Rp3514
s((I0
I1
I0
I0
I1
I1
I1
I1
I1
I1
I1
I1
I1
I1
I1
I1
I1
I1
I1
I1
I1
I1
I1
I1
I1
I1
I1
I1
I1
I0
I1
I0
I0
tp3515
g2085
tp3516
g4
(g8
S'\x95\x8f\x7f\xc9U\x06t\xbf'
p3517
tp3518
Rp3519
s((I0
I0
I0
I1
I1
I1
I1
I1
I1
I1
I1
I1
I1
I1
I1
I1
I1
I1
I0
I0
I0
I0
I0
I0
I0
I0
I0
I0
I0
I1
I1
I0
I1
tp3520
g32
tp3521
g4
(g8
S'g\xc8\x01\xab\xf4\x82\xc7?'
p3522
tp3523
Rp3524
s((I0
I1
I0
I0
I1
I1
I1
I1
I1
I1
I1
I1
I1
I1
I1
I1
I1
I1
I1
I1
I1
I1
I1
I0
I0
I0
I0
I0
I0
I1
I1
I1
I1
tp3525
g91
tp3526
g4
(g8
S'\xa5\x81\xb0\xdb\x15\x8e\xf6?'
p3527
tp3528
Rp3529
s((I0
I0
I0
I1
I1
I1
I1
I1
I1
I1
I1
I1
I1
I1
I1
I1
I1
I1
I1
I0
I0
I0
I0
I0
I0
I0
I0
I0
I0
I0
I0
I0
I0
tp3530
g32
tp3531
g4
(g8
S'\xa9\x87s\x93IR\xf1?'
p3532
tp3533
Rp3534
s((I0
I0
I0
I1
I1
I1
I1
I1
I1
I1
I1
I1
I1
I1
I1
I1
I1
I1
I1
I1
I1
I1
I1
I1
I1
I1
I1
I1
I1
I0
I0
I0
I1
tp3535
g32
tp3536
g4
(g8
S'\x0fy\xbc#|X\xee?'
p3537
tp3538
Rp3539
s((I1
I0
I0
I0
I1
I1
I1
I1
I1
I1
I1
I1
I1
I1
I1
I1
I1
I1
I1
I1
I1
I1
I1
I1
I1
I1
I0
I0
I0
I0
I0
I0
I0
tp3540
g73
tp3541
g4
(g8
S':\xeecG$\x1a\x97?'
p3542
tp3543
Rp3544
s((I1
I0
I0
I0
I1
I1
I1
I1
I1
I1
I1
I1
I1
I0
I0
I0
I0
I0
I0
I0
I0
I0
I0
I0
I0
I0
I0
I0
I0
I1
I0
I0
I0
tp3545
g21
tp3546
g4
(g8
S'\xd8\xd1&\x9e\xa2-\xdb?'
p3547
tp3548
Rp3549
s((I0
I0
I1
I0
I1
I1
I1
I1
I1
I1
I1
I1
I1
I1
I1
I1
I1
I1
I1
I0
I0
I0
I0
I0
I0
I0
I0
I0
I0
I1
I1
I1
I0
tp3550
g15
tp3551
g4
(g8
S'>\xc9\x1e\xa0\xbc\xa3\xf6?'
p3552
tp3553
Rp3554
s((I1
I0
I0
I0
I1
I1
I1
I1
I1
I1
I1
I1
I1
I1
I1
I1
I1
I1
I0
I0
I0
I0
I0
I0
I0
I0
I0
I0
I0
I1
I1
I1
I0
tp3555
g73
tp3556
g4
(g8
S'\xffCb\xcd\xca\xa7\x05@'
p3557
tp3558
Rp3559
s((I0
I1
I0
I0
I1
I1
I1
I1
I1
I1
I1
I1
I1
I1
I1
I1
I1
I1
I1
I1
I1
I1
I1
I1
I1
I1
I1
I1
I1
I1
I1
I1
I0
tp3560
g50
tp3561
g4
(g8
S'\x1b\x96"\xa0\xc8\xc6\xff?'
p3562
tp3563
Rp3564
s((I0
I0
I1
I0
I1
I1
I1
I1
I1
I1
I1
I1
I1
I1
I1
I1
I1
I0
I0
I0
I0
I0
I0
I0
I0
I0
I0
I0
I0
I0
I0
I0
I0
tp3565
g107
tp3566
g4
(g8
S'\x14-\xc5\xff\x0f\x0b\xc0?'
p3567
tp3568
Rp3569
s((I1
I0
I0
I0
I1
I1
I1
I1
I1
I1
I1
I1
I1
I1
I1
I1
I1
I1
I0
I0
I0
I0
I0
I0
I0
I0
I0
I0
I0
I1
I1
I0
I1
tp3570
g119
tp3571
g4
(g8
S'\x8eW\xcb59\xc4\x05@'
p3572
tp3573
Rp3574
s((I0
I0
I1
I0
I1
I1
I1
I1
I1
I1
I1
I1
I1
I1
I1
I0
I0
I0
I0
I0
I0
I0
I0
I0
I0
I0
I0
I0
I0
I0
I0
I0
I1
tp3575
g38
tp3576
g4
(g8
S'$V\xc9`h\x8c\x08@'
p3577
tp3578
Rp3579
s((I0
I0
I0
I1
I1
I1
I1
I1
I1
I1
I1
I1
I1
I1
I1
I1
I1
I1
I1
I1
I1
I1
I1
I1
I1
I1
I0
I0
I0
I0
I0
I0
I1
tp3580
g32
tp3581
g4
(g8
S'\xcd2\xa12e3\xed?'
p3582
tp3583
Rp3584
s((I1
I0
I0
I0
I1
I1
I1
I1
I1
I1
I1
I1
I1
I1
I1
I1
I1
I1
I1
I1
I1
I1
I1
I1
I1
I1
I1
I0
I0
I1
I1
I1
I1
tp3585
g1137
tp3586
g4
(g8
S'\r\x0cED\x90R\xd5?'
p3587
tp3588
Rp3589
s((I1
I0
I0
I0
I1
I1
I1
I1
I1
I1
I1
I1
I1
I1
I1
I1
I1
I1
I1
I0
I0
I0
I0
I0
I0
I0
I0
I0
I0
I0
I0
I1
I0
tp3590
g73
tp3591
g4
(g8
S'\x1b\xc0\x82\xf8\\\x1e\xce?'
p3592
tp3593
Rp3594
s((I0
I0
I1
I0
I1
I1
I1
I1
I1
I1
I1
I1
I1
I1
I1
I1
I1
I1
I1
I1
I1
I1
I1
I1
I1
I1
I1
I1
I0
I0
I1
I0
I1
tp3595
g107
tp3596
g4
(g8
S'<h\xe5D\xf0x\xa8?'
p3597
tp3598
Rp3599
s((I0
I0
I1
I0
I1
I1
I1
I1
I1
I1
I1
I1
I1
I1
I1
I1
I1
I1
I1
I1
I1
I1
I1
I1
I1
I1
I1
I1
I1
I0
I1
I0
I0
tp3600
g113
tp3601
g4
(g8
S'\x80\x9d\xf9\xc8o\xe0\xef?'
p3602
tp3603
Rp3604
s((I0
I0
I0
I1
I1
I1
I1
I1
I1
I1
I1
I1
I1
I1
I1
I1
I1
I1
I1
I1
I1
I1
I1
I1
I1
I1
I1
I0
I0
I0
I0
I0
I0
tp3605
g32
tp3606
g4
(g8
S'[\x11\xf1\xa1\xa2a\xee?'
p3607
tp3608
Rp3609
s((I0
I1
I0
I0
I1
I1
I1
I1
I1
I1
I1
I1
I1
I1
I1
I1
I1
I1
I1
I1
I1
I1
I0
I0
I0
I0
I0
I0
I0
I1
I1
I1
I0
tp3610
g317
tp3611
g4
(g8
S'h\xf8\xcdQC8\xd6?'
p3612
tp3613
Rp3614
s((I0
I0
I1
I0
I1
I1
I1
I1
I1
I1
I1
I1
I1
I0
I0
I0
I0
I0
I0
I0
I0
I0
I0
I0
I0
I0
I0
I0
I0
I0
I0
I0
I1
tp3615
g107
tp3616
g4
(g8
S'I\xd9\xc8\xde\xf6g\xc5?'
p3617
tp3618
Rp3619
s((I0
I0
I0
I1
I1
I1
I1
I1
I1
I1
I1
I1
I1
I1
I1
I1
I0
I0
I0
I0
I0
I0
I0
I0
I0
I0
I0
I0
I0
I1
I1
I1
I0
tp3620
g32
tp3621
g4
(g8
S'Ve\xca\x15\xbc\xb6\xf4?'
p3622
tp3623
Rp3624
s((I0
I0
I1
I0
I1
I1
I1
I1
I0
I0
I0
I0
I0
I0
I0
I0
I0
I0
I0
I0
I0
I0
I0
I0
I0
I0
I0
I0
I0
I0
I0
I0
I0
tp3625
g626
tp3626
g4
(g8
S'p\x12h\x07\xf0\x1c\xc9?'
p3627
tp3628
Rp3629
s((I1
I0
I0
I0
I1
I1
I1
I1
I1
I1
I1
I1
I1
I1
I1
I1
I1
I1
I1
I1
I1
I1
I1
I1
I1
I1
I1
I0
I0
I1
I1
I1
I1
tp3630
g73
tp3631
g4
(g8
S'\xd0`\xc0\x91[\xe7\xdf?'
p3632
tp3633
Rp3634
s((I0
I1
I0
I0
I1
I1
I1
I1
I1
I1
I1
I1
I1
I1
I1
I1
I1
I1
I1
I1
I1
I1
I0
I0
I0
I0
I0
I0
I0
I0
I0
I0
I1
tp3635
g50
tp3636
g4
(g8
S'\xb47\x14\x10;\xbe\xd6?'
p3637
tp3638
Rp3639
s((I0
I1
I0
I0
I1
I1
I1
I1
I1
I1
I1
I1
I1
I1
I0
I0
I0
I0
I0
I0
I0
I0
I0
I0
I0
I0
I0
I0
I0
I1
I1
I1
I0
tp3640
g147
tp3641
g4
(g8
S'\xbd\x0f\x82\xb5\xbc\xfa\xe2?'
p3642
tp3643
Rp3644
s((I1
I0
I0
I0
I1
I1
I1
I1
I1
I1
I1
I1
I1
I1
I0
I0
I0
I0
I0
I0
I0
I0
I0
I0
I0
I0
I0
I0
I0
I1
I1
I0
I1
tp3645
g73
tp3646
g4
(g8
S'x^\x0e\xb19\xb3\x04@'
p3647
tp3648
Rp3649
s((I0
I1
I0
I0
I1
I1
I1
I1
I1
I1
I1
I1
I1
I1
I0
I0
I0
I0
I0
I0
I0
I0
I0
I0
I0
I0
I0
I0
I0
I0
I0
I0
I1
tp3650
g317
tp3651
g4
(g8
S'\xe60-e\xefi\xf1?'
p3652
tp3653
Rp3654
s((I0
I1
I0
I0
I1
I1
I1
I1
I1
I1
I1
I1
I1
I1
I1
I1
I1
I1
I1
I1
I1
I1
I1
I0
I0
I0
I0
I0
I0
I0
I0
I0
I1
tp3655
g50
tp3656
g4
(g8
S'\xbc\xcb\xe7\x10O\xc8\xf6?'
p3657
tp3658
Rp3659
s((I0
I0
I0
I1
I1
I1
I1
I1
I1
I1
I1
I1
I1
I1
I1
I1
I1
I1
I1
I1
I1
I1
I1
I1
I1
I1
I1
I1
I1
I1
I0
I1
I0
tp3660
g32
tp3661
g4
(g8
S'\xcf\xa8\xeaTl\xab\xfc?'
p3662
tp3663
Rp3664
s((I0
I0
I1
I0
I1
I1
I1
I1
I1
I1
I1
I1
I1
I1
I1
I1
I1
I1
I1
I1
I1
I1
I1
I1
I1
I1
I1
I1
I0
I1
I1
I1
I0
tp3665
g1388
tp3666
g4
(g8
S'\x07\x91\x95\xcccb\xdb?'
p3667
tp3668
Rp3669
s((I0
I0
I1
I0
I1
I1
I1
I1
I1
I1
I1
I1
I1
I1
I1
I1
I1
I1
I1
I1
I1
I1
I1
I0
I0
I0
I0
I0
I0
I1
I1
I0
I1
tp3670
g274
tp3671
g4
(g8
S'\x10\xcb\xf1\xcc\xb8\x8a\x04@'
p3672
tp3673
Rp3674
s((I0
I0
I1
I0
I1
I1
I1
I1
I1
I1
I1
I1
I1
I1
I1
I1
I0
I0
I0
I0
I0
I0
I0
I0
I0
I0
I0
I0
I0
I1
I1
I1
I0
tp3675
g107
tp3676
g4
(g8
S'\x14;\xb1\x13;\xb1\xa3?'
p3677
tp3678
Rp3679
s((I0
I1
I0
I0
I1
I1
I1
I1
I1
I1
I1
I1
I1
I1
I1
I1
I1
I1
I1
I1
I1
I1
I1
I1
I1
I1
I0
I0
I0
I1
I1
I1
I0
tp3680
g687
tp3681
g4
(g8
S'\xba\xf0\xbe1e\x08\xe0?'
p3682
tp3683
Rp3684
s((I0
I1
I0
I0
I1
I1
I1
I1
I1
I1
I1
I1
I1
I1
I1
I1
I1
I1
I1
I1
I1
I1
I1
I1
I1
I1
I1
I1
I0
I1
I1
I1
I1
tp3685
g353
tp3686
g4
(g8
S'\xe0l\xec\xfap\xd8\x07@'
p3687
tp3688
Rp3689
s((I0
I0
I1
I0
I1
I1
I1
I1
I1
I1
I1
I1
I1
I1
I1
I1
I1
I1
I1
I1
I0
I0
I0
I0
I0
I0
I0
I0
I0
I0
I0
I0
I0
tp3690
g38
tp3691
g4
(g8
S'\xab\x1e8\xb9\x9a\x16\t@'
p3692
tp3693
Rp3694
s((I0
I0
I1
I0
I1
I1
I1
I1
I1
I1
I1
I1
I1
I1
I1
I1
I1
I1
I0
I0
I0
I0
I0
I0
I0
I0
I0
I0
I0
I0
I0
I1
I0
tp3695
g113
tp3696
g4
(g8
S'\x1aN\xfe\x87r\x1e\xd5?'
p3697
tp3698
Rp3699
s((I0
I1
I0
I0
I1
I1
I1
I1
I1
I1
I1
I1
I1
I1
I1
I1
I1
I1
I1
I1
I1
I1
I1
I0
I0
I0
I0
I0
I0
I1
I1
I0
I1
tp3700
g50
tp3701
g4
(g8
S'k\xe1+\x81\xe5=\xf8?'
p3702
tp3703
Rp3704
s((I1
I0
I0
I0
I1
I1
I1
I1
I0
I0
I0
I0
I0
I0
I0
I0
I0
I0
I0
I0
I0
I0
I0
I0
I0
I0
I0
I0
I0
I0
I0
I1
I0
tp3705
g44
tp3706
g4
(g8
S'\xb0\xb6\xcb\xb8\x8f\x03\xe4?'
p3707
tp3708
Rp3709
s((I0
I0
I0
I1
I1
I1
I1
I1
I1
I1
I1
I1
I1
I1
I1
I1
I1
I1
I1
I1
I1
I1
I1
I0
I0
I0
I0
I0
I0
I1
I1
I0
I1
tp3710
g615
tp3711
g4
(g8
S'\xa2q\xf3`\xa8\xd9\xf6?'
p3712
tp3713
Rp3714
s((I0
I1
I0
I0
I1
I1
I1
I1
I1
I1
I1
I1
I1
I1
I1
I1
I1
I1
I1
I1
I1
I1
I1
I0
I0
I0
I0
I0
I0
I0
I1
I1
I1
tp3715
g56
tp3716
g4
(g8
S'"\x1d*\xfa\xf1\xab\xf9?'
p3717
tp3718
Rp3719
s((I0
I0
I0
I1
I1
I1
I1
I1
I1
I1
I1
I1
I1
I1
I1
I0
I0
I0
I0
I0
I0
I0
I0
I0
I0
I0
I0
I0
I0
I0
I0
I0
I1
tp3720
g32
tp3721
g4
(g8
S'Z\xb4\x86\xc3\xc9T\xed?'
p3722
tp3723
Rp3724
s((I0
I0
I1
I0
I1
I1
I1
I1
I1
I1
I1
I1
I1
I1
I1
I1
I1
I1
I0
I0
I0
I0
I0
I0
I0
I0
I0
I0
I0
I0
I1
I1
I1
tp3725
g2458
tp3726
g4
(g8
S'\xea\x0f+\xc0\xd0\x10\xe3?'
p3727
tp3728
Rp3729
s((I1
I0
I0
I0
I0
I0
I0
I0
I0
I0
I0
I0
I0
I0
I0
I0
I0
I0
I0
I0
I0
I0
I0
I0
I0
I0
I0
I0
I0
I1
I0
I1
I0
tp3730
g85
tp3731
g4
(g8
S')V^\xd9\xf7\xda\x00@'
p3732
tp3733
Rp3734
s((I0
I1
I0
I0
I1
I1
I1
I1
I1
I1
I1
I1
I1
I1
I1
I1
I1
I1
I1
I1
I1
I1
I1
I1
I1
I1
I1
I1
I1
I0
I1
I1
I1
tp3735
g353
tp3736
g4
(g8
S'2\xfbT\x7f\x9c\x15\x04@'
p3737
tp3738
Rp3739
s((I1
I0
I0
I0
I1
I1
I1
I1
I1
I1
I1
I1
I1
I1
I1
I1
I1
I1
I1
I1
I1
I1
I1
I0
I0
I0
I0
I0
I0
I1
I1
I1
I1
tp3740
g119
tp3741
g4
(g8
S'?5m\x01\xd0\x16\x03@'
p3742
tp3743
Rp3744
s((I1
I0
I0
I0
I1
I1
I1
I1
I1
I1
I1
I1
I1
I1
I1
I1
I1
I1
I1
I1
I1
I1
I1
I1
I1
I1
I1
I0
I0
I1
I0
I0
I1
tp3745
g1101
tp3746
g4
(g8
S'S\xea(\x14G\x03\xe1?'
p3747
tp3748
Rp3749
s((I0
I0
I0
I1
I1
I1
I1
I1
I1
I1
I1
I1
I1
I1
I0
I0
I0
I0
I0
I0
I0
I0
I0
I0
I0
I0
I0
I0
I0
I0
I1
I1
I1
tp3750
g32
tp3751
g4
(g8
S'\x91D\x94\xd7\x08*\xf2?'
p3752
tp3753
Rp3754
s((I0
I1
I0
I0
I1
I1
I1
I1
I1
I1
I1
I1
I1
I1
I1
I1
I1
I1
I1
I1
I0
I0
I0
I0
I0
I0
I0
I0
I0
I0
I1
I0
I1
tp3755
g50
tp3756
g4
(g8
S'\xa9\x02\\K\x10\x92\xed?'
p3757
tp3758
Rp3759
s((I1
I0
I0
I0
I1
I1
I1
I1
I0
I0
I0
I0
I0
I0
I0
I0
I0
I0
I0
I0
I0
I0
I0
I0
I0
I0
I0
I0
I0
I1
I1
I1
I1
tp3760
g174
tp3761
g4
(g8
S'e\xa2\x8f\x9c\xec\xda\x00@'
p3762
tp3763
Rp3764
s((I1
I0
I0
I0
I1
I1
I1
I1
I1
I1
I1
I1
I1
I1
I1
I1
I0
I0
I0
I0
I0
I0
I0
I0
I0
I0
I0
I0
I0
I0
I0
I0
I1
tp3765
g73
tp3766
g4
(g8
S'\x83<[\xe3\xefJ\xc1?'
p3767
tp3768
Rp3769
s((I0
I0
I0
I1
I1
I1
I1
I1
I1
I1
I1
I1
I1
I1
I1
I1
I1
I1
I1
I1
I1
I1
I1
I0
I0
I0
I0
I0
I0
I0
I1
I1
I1
tp3770
g220
tp3771
g4
(g8
S'F\x8bO\x0f\xff\xc8\xf4?'
p3772
tp3773
Rp3774
s((I0
I1
I0
I0
I1
I1
I1
I1
I1
I1
I1
I1
I0
I0
I0
I0
I0
I0
I0
I0
I0
I0
I0
I0
I0
I0
I0
I0
I0
I0
I0
I1
I0
tp3775
g147
tp3776
g4
(g8
S'd\x18\x9bunN\xbf?'
p3777
tp3778
Rp3779
s((I1
I0
I0
I0
I1
I1
I1
I1
I1
I0
I0
I0
I0
I0
I0
I0
I0
I0
I0
I0
I0
I0
I0
I0
I0
I0
I0
I0
I0
I1
I1
I1
I0
tp3780
g62
tp3781
g4
(g8
S'\xb2\x98\xe1\xeb3\xe2\xfb?'
p3782
tp3783
Rp3784
s((I0
I1
I0
I0
I1
I1
I1
I1
I1
I1
I1
I1
I1
I1
I1
I1
I1
I1
I1
I1
I1
I1
I1
I0
I0
I0
I0
I0
I0
I0
I0
I0
I1
tp3785
g56
tp3786
g4
(g8
S'\xccFKp%9\x03@'
p3787
tp3788
Rp3789
s((I1
I0
I0
I0
I1
I1
I1
I1
I0
I0
I0
I0
I0
I0
I0
I0
I0
I0
I0
I0
I0
I0
I0
I0
I0
I0
I0
I0
I0
I0
I0
I0
I0
tp3790
g73
tp3791
g4
(g8
S'N\xf8\x1c\x0f\xef\x86\xfd?'
p3792
tp3793
Rp3794
s((I0
I1
I0
I0
I1
I1
I1
I1
I1
I1
I1
I1
I1
I1
I1
I1
I1
I1
I0
I0
I0
I0
I0
I0
I0
I0
I0
I0
I0
I1
I0
I1
I0
tp3795
g56
tp3796
g4
(g8
S'\xff\xde\x9a\xc2\xfd\xa2\xe0?'
p3797
tp3798
Rp3799
s((I0
I1
I0
I0
I1
I1
I1
I1
I1
I1
I1
I1
I1
I1
I1
I1
I1
I1
I1
I1
I1
I1
I1
I1
I1
I1
I1
I0
I0
I1
I1
I1
I1
tp3800
g56
tp3801
g4
(g8
S'\xa7\xb0\xec\x8c|\x86\t@'
p3802
tp3803
Rp3804
s((I1
I0
I0
I0
I1
I1
I1
I1
I1
I1
I1
I1
I1
I0
I0
I0
I0
I0
I0
I0
I0
I0
I0
I0
I0
I0
I0
I0
I0
I0
I0
I0
I0
tp3805
g73
tp3806
g4
(g8
S'\xd9\x9a:\xe8\xb3:\xf2?'
p3807
tp3808
Rp3809
s((I0
I0
I1
I0
I1
I1
I1
I1
I1
I1
I1
I1
I1
I1
I1
I1
I1
I1
I1
I1
I1
I1
I1
I1
I1
I1
I1
I1
I0
I1
I1
I1
I1
tp3810
g626
tp3811
g4
(g8
S'\r\x95Qb$\x1b\xf4?'
p3812
tp3813
Rp3814
s((I1
I0
I0
I0
I1
I1
I1
I1
I1
I1
I1
I1
I1
I1
I1
I1
I1
I1
I1
I1
I1
I0
I0
I0
I0
I0
I0
I0
I0
I1
I1
I1
I1
tp3815
g1101
tp3816
g4
(g8
S'\xcaM\xc9\xec\xe6\x84\x07@'
p3817
tp3818
Rp3819
s((I0
I0
I0
I1
I1
I1
I1
I1
I1
I1
I1
I1
I1
I1
I1
I1
I1
I1
I1
I0
I0
I0
I0
I0
I0
I0
I0
I0
I0
I1
I1
I1
I0
tp3820
g32
tp3821
g4
(g8
S'\xb9\xf6\xae\x05\x81\xf0\xf4?'
p3822
tp3823
Rp3824
s((I0
I1
I0
I0
I1
I1
I1
I1
I1
I0
I0
I0
I0
I0
I0
I0
I0
I0
I0
I0
I0
I0
I0
I0
I0
I0
I0
I0
I0
I0
I0
I1
I0
tp3825
g2085
tp3826
g4
(g8
S'\x8fR\xff\x9b\xcb\x9e\xbb?'
p3827
tp3828
Rp3829
s((I1
I0
I0
I0
I0
I0
I0
I0
I0
I0
I0
I0
I0
I0
I0
I0
I0
I0
I0
I0
I0
I0
I0
I0
I0
I0
I0
I0
I0
I1
I0
I0
I0
tp3830
g85
tp3831
g4
(g8
S'\x1e\xbd/\x02^\xdf\xff?'
p3832
tp3833
Rp3834
s((I0
I1
I0
I0
I1
I1
I1
I1
I1
I1
I1
I1
I1
I1
I1
I1
I1
I1
I1
I1
I1
I1
I1
I1
I0
I0
I0
I0
I0
I0
I0
I1
I0
tp3835
g91
tp3836
g4
(g8
S'$T\xd1">L\xe4?'
p3837
tp3838
Rp3839
s((I0
I0
I1
I0
I1
I1
I1
I1
I1
I1
I1
I1
I1
I1
I0
I0
I0
I0
I0
I0
I0
I0
I0
I0
I0
I0
I0
I0
I0
I0
I0
I1
I0
tp3840
g15
tp3841
F0.047619047619047616
s((I0
I1
I0
I0
I1
I1
I1
I1
I1
I1
I1
I1
I1
I1
I1
I1
I1
I1
I1
I1
I1
I1
I1
I1
I1
I1
I1
I1
I1
I0
I0
I1
I0
tp3842
g50
tp3843
g4
(g8
S'`\xd9\xea.\x99\xbf\xf4?'
p3844
tp3845
Rp3846
s((I0
I1
I0
I0
I1
I1
I1
I1
I1
I1
I1
I1
I1
I1
I1
I1
I1
I1
I1
I0
I0
I0
I0
I0
I0
I0
I0
I0
I0
I0
I0
I1
I0
tp3847
g147
tp3848
g4
(g8
S'\x05\xea%\x04\\J\x06@'
p3849
tp3850
Rp3851
s((I0
I1
I0
I0
I1
I1
I1
I1
I1
I1
I1
I1
I1
I1
I1
I1
I1
I1
I1
I1
I1
I1
I1
I1
I0
I0
I0
I0
I0
I0
I0
I0
I0
tp3852
g91
tp3853
F0.05
s((I0
I0
I1
I0
I1
I1
I1
I1
I1
I1
I1
I1
I1
I1
I1
I1
I1
I1
I1
I1
I1
I1
I1
I1
I1
I1
I1
I0
I0
I1
I0
I0
I0
tp3854
g125
tp3855
g4
(g8
S'\t7`\x02\x14\xf0\xe1?'
p3856
tp3857
Rp3858
s((I0
I0
I0
I1
I1
I1
I1
I1
I1
I1
I1
I1
I1
I1
I1
I1
I1
I1
I1
I1
I1
I1
I1
I1
I1
I1
I0
I0
I0
I0
I0
I0
I0
tp3859
g32
tp3860
g4
(g8
S'"}\xf0Wx\xb0\xf0?'
p3861
tp3862
Rp3863
s((I1
I0
I0
I0
I1
I1
I1
I1
I1
I0
I0
I0
I0
I0
I0
I0
I0
I0
I0
I0
I0
I0
I0
I0
I0
I0
I0
I0
I0
I0
I1
I0
I1
tp3864
g85
tp3865
g4
(g8
S'\xe0\x80\xd3C\xec\xb4\xdf?'
p3866
tp3867
Rp3868
s((I0
I0
I1
I0
I1
I1
I1
I1
I1
I1
I1
I1
I1
I1
I0
I0
I0
I0
I0
I0
I0
I0
I0
I0
I0
I0
I0
I0
I0
I1
I0
I1
I0
tp3869
g15
tp3870
g4
(g8
S't\xf6/\xf9H]\xf4?'
p3871
tp3872
Rp3873
s((I1
I0
I0
I0
I1
I1
I1
I1
I1
I1
I1
I1
I1
I1
I1
I1
I1
I1
I1
I1
I1
I1
I1
I0
I0
I0
I0
I0
I0
I1
I0
I0
I0
tp3874
g1101
tp3875
g4
(g8
S'h\xceU>%\xf5\xff?'
p3876
tp3877
Rp3878
s((I1
I0
I0
I0
I1
I1
I1
I1
I1
I1
I1
I1
I1
I1
I0
I0
I0
I0
I0
I0
I0
I0
I0
I0
I0
I0
I0
I0
I0
I1
I1
I1
I1
tp3879
g85
tp3880
g4
(g8
S'\x8dY\xa9\xb4\xca?\x01@'
p3881
tp3882
Rp3883
s((I0
I0
I0
I1
I1
I1
I1
I1
I1
I1
I1
I1
I1
I1
I1
I1
I1
I1
I1
I0
I0
I0
I0
I0
I0
I0
I0
I0
I0
I1
I1
I1
I1
tp3884
g32
tp3885
g4
(g8
S'\xdc3\x1f\x14#\x0c\xf3?'
p3886
tp3887
Rp3888
s((I1
I0
I0
I0
I1
I1
I1
I1
I1
I1
I1
I1
I1
I1
I1
I1
I1
I1
I1
I0
I0
I0
I0
I0
I0
I0
I0
I0
I0
I0
I1
I1
I1
tp3889
g44
tp3890
g4
(g8
S'qYo\t\xd9r\x05@'
p3891
tp3892
Rp3893
s((I0
I0
I1
I0
I1
I1
I1
I1
I1
I1
I1
I1
I1
I1
I1
I1
I1
I1
I1
I1
I1
I1
I1
I1
I1
I1
I1
I0
I0
I1
I0
I1
I0
tp3894
g107
tp3895
g4
(g8
S'\xea\x9a\xc3\x9dT\xd3\xfe?'
p3896
tp3897
Rp3898
s((I0
I1
I0
I0
I1
I1
I1
I1
I1
I1
I1
I1
I1
I1
I1
I0
I0
I0
I0
I0
I0
I0
I0
I0
I0
I0
I0
I0
I0
I0
I0
I0
I1
tp3899
g56
tp3900
g4
(g8
S'\xbd\xa73c@\xee\xaa?'
p3901
tp3902
Rp3903
s((I1
I0
I0
I0
I1
I1
I1
I1
I1
I1
I1
I1
I1
I1
I0
I0
I0
I0
I0
I0
I0
I0
I0
I0
I0
I0
I0
I0
I0
I0
I1
I1
I1
tp3904
g85
tp3905
g4
(g8
S'{\xccrJ*e\x02@'
p3906
tp3907
Rp3908
s((I0
I1
I0
I0
I1
I1
I1
I1
I1
I1
I1
I1
I1
I1
I1
I1
I1
I1
I1
I1
I1
I1
I1
I1
I1
I1
I1
I1
I1
I1
I0
I0
I0
tp3909
g317
tp3910
g4
(g8
S'\xa53]\x16\x04\xc7\xfa?'
p3911
tp3912
Rp3913
s((I0
I0
I1
I0
I1
I1
I1
I1
I1
I1
I1
I1
I1
I1
I1
I1
I1
I1
I0
I0
I0
I0
I0
I0
I0
I0
I0
I0
I0
I0
I0
I0
I0
tp3914
g15
tp3915
g4
(g8
S'\x9b\xe2q(\xdb\x19\xf0?'
p3916
tp3917
Rp3918
s((I1
I0
I0
I0
I1
I1
I1
I1
I1
I1
I1
I1
I1
I1
I1
I1
I1
I1
I1
I1
I1
I1
I1
I0
I0
I0
I0
I0
I0
I0
I1
I1
I1
tp3919
g73
tp3920
g4
(g8
S'\xb6I\x10\x95W\xf0\xce?'
p3921
tp3922
Rp3923
s((I1
I0
I0
I0
I1
I1
I1
I1
I1
I1
I1
I1
I1
I1
I1
I1
I1
I1
I1
I0
I0
I0
I0
I0
I0
I0
I0
I0
I0
I0
I0
I0
I0
tp3924
g44
tp3925
g4
(g8
S'\x1f7\xe9\x92EH\xfb?'
p3926
tp3927
Rp3928
s((I1
I0
I0
I0
I1
I1
I1
I1
I0
I0
I0
I0
I0
I0
I0
I0
I0
I0
I0
I0
I0
I0
I0
I0
I0
I0
I0
I0
I0
I1
I0
I1
I0
tp3929
g248
tp3930
g4
(g8
S'M\x15\xb8\xb5H\x07\xfb?'
p3931
tp3932
Rp3933
s((I0
I0
I0
I1
I1
I1
I1
I1
I1
I1
I1
I1
I1
I1
I1
I1
I1
I1
I1
I1
I1
I1
I1
I1
I1
I1
I1
I1
I0
I1
I1
I1
I0
tp3934
g32
tp3935
g4
(g8
S'\x9c\x10\x99\n\x9e\x88\xf2?'
p3936
tp3937
Rp3938
s((I0
I0
I1
I0
I1
I1
I1
I1
I1
I1
I1
I1
I1
I1
I1
I1
I1
I1
I1
I1
I1
I1
I1
I1
I1
I1
I1
I0
I0
I1
I0
I1
I0
tp3939
g38
tp3940
g4
(g8
S'\x1aRO7v\xb7\x0b@'
p3941
tp3942
Rp3943
s((I0
I0
I1
I0
I1
I1
I1
I1
I1
I1
I1
I1
I0
I0
I0
I0
I0
I0
I0
I0
I0
I0
I0
I0
I0
I0
I0
I0
I0
I0
I0
I0
I0
tp3944
g274
tp3945
g4
(g8
S'~\xbc\xfe\xc5V\x18\xbb?'
p3946
tp3947
Rp3948
s((I1
I0
I0
I0
I1
I1
I1
I1
I1
I1
I1
I1
I1
I1
I1
I1
I0
I0
I0
I0
I0
I0
I0
I0
I0
I0
I0
I0
I0
I1
I1
I1
I1
tp3949
g73
tp3950
g4
(g8
S'\xfcg\xe0\xe3\xddR\x02@'
p3951
tp3952
Rp3953
s((I0
I0
I1
I0
I1
I1
I1
I1
I1
I1
I0
I0
I0
I0
I0
I0
I0
I0
I0
I0
I0
I0
I0
I0
I0
I0
I0
I0
I0
I0
I1
I0
I1
tp3954
g15
tp3955
g4
(g8
S'\xece\xd0*R\xc6\xeb?'
p3956
tp3957
Rp3958
s((I0
I0
I1
I0
I1
I1
I1
I1
I1
I1
I1
I1
I1
I1
I0
I0
I0
I0
I0
I0
I0
I0
I0
I0
I0
I0
I0
I0
I0
I1
I0
I1
I0
tp3959
g38
tp3960
g4
(g8
S'\xc3W\x05\xa9Y\xcd\x07@'
p3961
tp3962
Rp3963
s((I0
I0
I1
I0
I1
I1
I1
I1
I1
I1
I1
I1
I1
I1
I1
I1
I1
I1
I1
I1
I1
I1
I1
I1
I1
I1
I1
I1
I1
I1
I1
I0
I1
tp3964
g15
tp3965
g4
(g8
S'&]\xe5\x04\xad\x03\xfb?'
p3966
tp3967
Rp3968
s((I0
I1
I0
I0
I1
I1
I1
I1
I1
I1
I1
I1
I1
I1
I1
I1
I1
I1
I1
I1
I1
I1
I1
I1
I1
I1
I1
I1
I1
I0
I0
I0
I1
tp3969
g91
tp3970
g4
(g8
S'\xf9\x90U\x94\xc4+\xf1?'
p3971
tp3972
Rp3973
s((I0
I0
I1
I0
I1
I1
I1
I1
I1
I1
I1
I1
I1
I0
I0
I0
I0
I0
I0
I0
I0
I0
I0
I0
I0
I0
I0
I0
I0
I0
I0
I0
I0
tp3974
g274
tp3975
g4
(g8
S'$\xe0\xec\x96Yo\xbb?'
p3976
tp3977
Rp3978
s((I0
I1
I0
I0
I1
I1
I1
I1
I1
I1
I1
I1
I1
I1
I0
I0
I0
I0
I0
I0
I0
I0
I0
I0
I0
I0
I0
I0
I0
I0
I1
I1
I1
tp3979
g147
tp3980
g4
(g8
S'%pv\x8f\x0e\xb3\x04@'
p3981
tp3982
Rp3983
s((I1
I0
I0
I0
I1
I1
I1
I1
I1
I1
I1
I1
I1
I1
I1
I1
I1
I1
I1
I1
I1
I1
I1
I1
I1
I1
I1
I1
I0
I1
I1
I1
I1
tp3984
g119
tp3985
g4
(g8
S'\x9e\xdb\x13F\x9c\xf3\x02@'
p3986
tp3987
Rp3988
s((I0
I0
I1
I0
I1
I1
I1
I1
I1
I1
I1
I1
I1
I1
I1
I1
I1
I1
I1
I1
I1
I1
I1
I1
I0
I0
I0
I0
I0
I1
I1
I1
I0
tp3989
g274
tp3990
g4
(g8
S'\xb5\x0f\xc3\x01\xe2\x0c\n@'
p3991
tp3992
Rp3993
s((I1
I0
I0
I0
I1
I1
I1
I1
I1
I1
I1
I1
I1
I1
I1
I1
I1
I0
I0
I0
I0
I0
I0
I0
I0
I0
I0
I0
I0
I1
I1
I1
I1
tp3994
g73
tp3995
g4
(g8
S'\xa4YR\xbd\xa0!\x06@'
p3996
tp3997
Rp3998
s((I0
I0
I0
I1
I1
I1
I1
I1
I1
I1
I1
I1
I1
I1
I1
I1
I1
I1
I1
I1
I1
I1
I1
I1
I1
I1
I1
I1
I1
I0
I1
I1
I1
tp3999
g32
tp4000
g4
(g8
S'o*\x04=&A\xf8?'
p4001
tp4002
Rp4003
s((I1
I0
I0
I0
I1
I1
I1
I1
I1
I0
I0
I0
I0
I0
I0
I0
I0
I0
I0
I0
I0
I0
I0
I0
I0
I0
I0
I0
I0
I1
I0
I0
I0
tp4004
g21
tp4005
g4
(g8
S'\x11q\x08N\x04\x95\xcb?'
p4006
tp4007
Rp4008
s((I1
I0
I0
I0
I1
I1
I1
I1
I1
I1
I1
I1
I1
I1
I1
I1
I1
I1
I1
I1
I1
I1
I1
I1
I1
I1
I1
I0
I0
I1
I0
I0
I0
tp4009
g158
tp4010
g4
(g8
S'\xb3\xdf\x9cKw\xe4\xe0?'
p4011
tp4012
Rp4013
s((I0
I1
I0
I0
I1
I1
I1
I1
I1
I1
I1
I1
I1
I1
I1
I1
I1
I1
I1
I1
I1
I1
I1
I0
I0
I0
I0
I0
I0
I1
I1
I0
I1
tp4014
g56
tp4015
g4
(g8
S'6\xd2\x1e\xe4\xda\xe1\xdf?'
p4016
tp4017
Rp4018
s((I0
I1
I0
I0
I1
I1
I1
I1
I1
I1
I1
I1
I1
I1
I1
I1
I1
I1
I0
I0
I0
I0
I0
I0
I0
I0
I0
I0
I0
I0
I1
I1
I1
tp4019
g232
tp4020
g4
(g8
S'\xdb\xaf-:\x87\x16\xca?'
p4021
tp4022
Rp4023
s((I1
I0
I0
I0
I1
I1
I1
I1
I1
I1
I1
I1
I1
I1
I1
I1
I1
I1
I1
I1
I1
I1
I1
I0
I0
I0
I0
I0
I0
I1
I0
I1
I0
tp4024
g21
tp4025
g4
(g8
S'*e\xc6\xb0\x08=\xdd?'
p4026
tp4027
Rp4028
s((I0
I0
I1
I0
I1
I1
I1
I1
I1
I0
I0
I0
I0
I0
I0
I0
I0
I0
I0
I0
I0
I0
I0
I0
I0
I0
I0
I0
I0
I1
I1
I1
I1
tp4029
g15
tp4030
g4
(g8
S'\x16}\x04m\x884\xf0?'
p4031
tp4032
Rp4033
s((I0
I1
I0
I0
I1
I1
I1
I1
I1
I1
I1
I1
I1
I1
I1
I0
I0
I0
I0
I0
I0
I0
I0
I0
I0
I0
I0
I0
I0
I0
I0
I0
I0
tp4034
g50
tp4035
g4
(g8
S'7K\x92f\x0b1\xb2?'
p4036
tp4037
Rp4038
s((I0
I0
I0
I1
I1
I1
I1
I1
I1
I1
I1
I1
I1
I1
I1
I1
I1
I1
I1
I1
I1
I0
I0
I0
I0
I0
I0
I0
I0
I0
I1
I1
I1
tp4039
g32
tp4040
g4
(g8
S'\xcbr7\xbd\xf2Q\xf4?'
p4041
tp4042
Rp4043
s((I1
I0
I0
I0
I0
I0
I0
I0
I0
I0
I0
I0
I0
I0
I0
I0
I0
I0
I0
I0
I0
I0
I0
I0
I0
I0
I0
I0
I0
I0
I1
I1
I1
tp4044
g248
tp4045
g4
(g8
S'\xe1\x0b\x02 \xc3F\xfa?'
p4046
tp4047
Rp4048
s((I0
I1
I0
I0
I1
I1
I1
I1
I1
I1
I1
I1
I1
I1
I1
I1
I1
I1
I1
I1
I1
I1
I1
I1
I1
I1
I1
I0
I0
I1
I0
I1
I0
tp4049
g317
tp4050
g4
(g8
S'\xc9\x1a\xcfQ\x91\x90\xfc?'
p4051
tp4052
Rp4053
s((I1
I0
I0
I0
I1
I1
I1
I1
I1
I1
I1
I1
I1
I1
I1
I1
I1
I1
I0
I0
I0
I0
I0
I0
I0
I0
I0
I0
I0
I1
I1
I1
I1
tp4054
g79
tp4055
g4
(g8
S'nVb\x9cs,\x03@'
p4056
tp4057
Rp4058
s((I1
I0
I0
I0
I1
I1
I1
I1
I1
I1
I1
I1
I1
I1
I1
I1
I1
I1
I1
I1
I1
I1
I1
I1
I1
I1
I0
I0
I0
I1
I1
I1
I1
tp4059
g2
tp4060
g4
(g8
S'\x8d\xcd\x7f\x19\xcb\xab\xde?'
p4061
tp4062
Rp4063
s((I0
I1
I0
I0
I1
I1
I1
I1
I1
I1
I1
I1
I1
I1
I1
I1
I1
I1
I1
I1
I1
I0
I0
I0
I0
I0
I0
I0
I0
I1
I1
I1
I1
tp4064
g1080
tp4065
g4
(g8
S'\xf0Z\x08\x8a\x15p\xd5?'
p4066
tp4067
Rp4068
s((I0
I1
I0
I0
I1
I1
I1
I1
I1
I1
I1
I1
I1
I1
I1
I1
I1
I1
I1
I0
I0
I0
I0
I0
I0
I0
I0
I0
I0
I0
I0
I0
I1
tp4069
g56
tp4070
g4
(g8
S'\xdb\xcc=\xaaN\xbe\x02@'
p4071
tp4072
Rp4073
s((I0
I0
I1
I0
I1
I1
I1
I1
I1
I1
I1
I1
I0
I0
I0
I0
I0
I0
I0
I0
I0
I0
I0
I0
I0
I0
I0
I0
I0
I0
I0
I1
I0
tp4074
g38
tp4075
g4
(g8
S'X\xad\xb2\xd9\xe6h\xc1?'
p4076
tp4077
Rp4078
s((I0
I0
I1
I0
I1
I1
I1
I1
I1
I0
I0
I0
I0
I0
I0
I0
I0
I0
I0
I0
I0
I0
I0
I0
I0
I0
I0
I0
I0
I1
I0
I0
I0
tp4079
g274
tp4080
g4
(g8
S'>\x06\x048D#\xaa?'
p4081
tp4082
Rp4083
s((I1
I0
I0
I0
I0
I0
I0
I0
I0
I0
I0
I0
I0
I0
I0
I0
I0
I0
I0
I0
I0
I0
I0
I0
I0
I0
I0
I0
I0
I0
I0
I1
I0
tp4084
g248
tp4085
g4
(g8
S'\xb8\xc7l\x8b\xdad\xfd?'
p4086
tp4087
Rp4088
s((I0
I1
I0
I0
I1
I1
I1
I1
I1
I1
I1
I1
I1
I1
I0
I0
I0
I0
I0
I0
I0
I0
I0
I0
I0
I0
I0
I0
I0
I1
I1
I1
I0
tp4089
g91
tp4090
g4
(g8
S'\xdcz\xcc\x0e\xbd\x82\xf2?'
p4091
tp4092
Rp4093
s((I0
I1
I0
I0
I1
I1
I1
I1
I1
I1
I1
I1
I1
I1
I1
I1
I1
I1
I1
I0
I0
I0
I0
I0
I0
I0
I0
I0
I0
I1
I0
I1
I0
tp4094
g56
tp4095
g4
(g8
S'\x95\x90;\x0e\xfd{\xa8?'
p4096
tp4097
Rp4098
s((I0
I1
I0
I0
I1
I1
I1
I1
I1
I1
I1
I1
I1
I1
I1
I1
I1
I1
I1
I1
I1
I1
I1
I1
I1
I1
I1
I1
I0
I0
I1
I0
I1
tp4099
g50
tp4100
g4
(g8
S'\xafT$\xaa\x1dM\xf7?'
p4101
tp4102
Rp4103
s((I0
I0
I0
I1
I1
I1
I1
I1
I1
I1
I1
I1
I1
I1
I1
I1
I1
I1
I1
I1
I1
I1
I1
I1
I1
I1
I1
I1
I0
I1
I0
I1
I0
tp4104
g32
tp4105
g4
(g8
S'\xaf\xfd\xb8\t\xf4\xba\xf9?'
p4106
tp4107
Rp4108
s((I0
I1
I0
I0
I1
I1
I1
I1
I1
I1
I1
I1
I1
I1
I1
I1
I1
I1
I1
I1
I1
I1
I1
I1
I1
I1
I0
I0
I0
I0
I0
I0
I0
tp4109
g50
tp4110
g4
(g8
S'\xd2\xd1\xb1|\xf7\x8b\xf2?'
p4111
tp4112
Rp4113
s((I1
I0
I0
I0
I1
I1
I1
I1
I1
I1
I1
I1
I1
I1
I1
I1
I1
I1
I1
I1
I1
I1
I1
I1
I1
I1
I1
I1
I0
I1
I1
I1
I1
tp4114
g21
tp4115
g4
(g8
S'\xa5\x018_\xa5M\xe5?'
p4116
tp4117
Rp4118
s((I0
I1
I0
I0
I1
I1
I1
I1
I1
I1
I1
I1
I1
I1
I1
I1
I1
I1
I1
I0
I0
I0
I0
I0
I0
I0
I0
I0
I0
I1
I1
I1
I0
tp4119
g56
tp4120
g4
(g8
S'\xd0\x9e0\x10\x10D\xd4?'
p4121
tp4122
Rp4123
s((I0
I1
I0
I0
I1
I1
I1
I1
I1
I1
I1
I1
I1
I1
I1
I1
I1
I1
I1
I1
I0
I0
I0
I0
I0
I0
I0
I0
I0
I1
I1
I1
I1
tp4124
g147
tp4125
g4
(g8
S'\xa1\xab,g.m\x06@'
p4126
tp4127
Rp4128
s((I0
I0
I0
I1
I1
I1
I1
I1
I1
I1
I1
I1
I1
I1
I1
I1
I0
I0
I0
I0
I0
I0
I0
I0
I0
I0
I0
I0
I0
I1
I1
I1
I1
tp4129
g220
tp4130
g4
(g8
S'\xab\\\xc3\xf0\xf9?\xf2?'
p4131
tp4132
Rp4133
s((I0
I0
I1
I0
I1
I1
I1
I1
I1
I1
I1
I1
I1
I1
I1
I1
I1
I1
I1
I1
I1
I1
I1
I1
I0
I0
I0
I0
I0
I1
I0
I1
I0
tp4134
g38
tp4135
g4
(g8
S's~.\x1b8\x18\x0b@'
p4136
tp4137
Rp4138
s((I0
I1
I0
I0
I1
I1
I1
I1
I1
I1
I1
I1
I1
I1
I1
I1
I1
I1
I1
I1
I1
I1
I1
I0
I0
I0
I0
I0
I0
I1
I1
I1
I0
tp4139
g50
tp4140
g4
(g8
S'bI#|v\x8e\xd8?'
p4141
tp4142
Rp4143
s((I0
I1
I0
I0
I1
I1
I1
I1
I1
I1
I1
I1
I1
I1
I1
I1
I1
I1
I1
I0
I0
I0
I0
I0
I0
I0
I0
I0
I0
I0
I1
I0
I1
tp4144
g56
tp4145
g4
(g8
S".*WC'\xc4\x05@"
p4146
tp4147
Rp4148
s((I1
I0
I0
I0
I1
I1
I1
I1
I1
I1
I1
I1
I1
I0
I0
I0
I0
I0
I0
I0
I0
I0
I0
I0
I0
I0
I0
I0
I0
I0
I1
I0
I1
tp4149
g73
tp4150
g4
(g8
S'\xb7@\n\xdb\x17\x04\xca?'
p4151
tp4152
Rp4153
s((I0
I1
I0
I0
I1
I1
I1
I1
I1
I1
I1
I1
I1
I0
I0
I0
I0
I0
I0
I0
I0
I0
I0
I0
I0
I0
I0
I0
I0
I1
I0
I0
I0
tp4154
g2085
tp4155
g4
(g8
S'O\xa0\xb7\xbd\xce\x98\xbe?'
p4156
tp4157
Rp4158
s((I0
I1
I0
I0
I1
I1
I1
I1
I1
I1
I1
I1
I1
I1
I1
I1
I1
I1
I1
I1
I1
I1
I1
I1
I1
I1
I1
I1
I0
I1
I1
I1
I0
tp4159
g1080
tp4160
g4
(g8
S'\n\xc2\xb1\xbe\x9e\xc2\xdc?'
p4161
tp4162
Rp4163
s((I1
I0
I0
I0
I1
I1
I1
I1
I1
I1
I1
I1
I1
I1
I1
I1
I1
I1
I1
I1
I1
I1
I1
I1
I0
I0
I0
I0
I0
I0
I0
I1
I0
tp4164
g21
tp4165
g4
(g8
S'\xf1v\xfb\xc8\t\xae\xe7?'
p4166
tp4167
Rp4168
s((I0
I1
I0
I0
I1
I1
I1
I1
I1
I1
I1
I1
I1
I1
I1
I1
I1
I1
I0
I0
I0
I0
I0
I0
I0
I0
I0
I0
I0
I1
I1
I1
I0
tp4169
g147
tp4170
F0.045454545454545456
s((I0
I0
I1
I0
I1
I1
I1
I1
I1
I1
I1
I1
I1
I1
I1
I1
I1
I1
I1
I1
I1
I1
I0
I0
I0
I0
I0
I0
I0
I1
I0
I1
I0
tp4171
g38
tp4172
g4
(g8
S'2#\x119=\x10\x08@'
p4173
tp4174
Rp4175
s((I0
I1
I0
I0
I1
I1
I1
I1
I1
I1
I1
I1
I1
I1
I1
I1
I1
I1
I1
I1
I1
I1
I1
I0
I0
I0
I0
I0
I0
I0
I1
I1
I1
tp4176
g50
tp4177
g4
(g8
S'\x00\x86E\xef\x02\x1f\xea?'
p4178
tp4179
Rp4180
s((I0
I1
I0
I0
I1
I1
I1
I1
I1
I1
I1
I1
I1
I1
I1
I1
I1
I1
I1
I1
I1
I1
I1
I1
I1
I1
I1
I1
I1
I0
I1
I0
I0
tp4181
g232
tp4182
g4
(g8
S'\xd0i\xbe\xab\x00`\xc5?'
p4183
tp4184
Rp4185
s((I1
I0
I0
I0
I1
I1
I1
I1
I1
I1
I1
I1
I1
I1
I1
I1
I1
I1
I1
I0
I0
I0
I0
I0
I0
I0
I0
I0
I0
I0
I1
I1
I1
tp4186
g85
tp4187
g4
(g8
S'\xc1\x8c\x1d\xa2\xd8i\xf1?'
p4188
tp4189
Rp4190
s((I0
I0
I1
I0
I1
I1
I1
I1
I1
I1
I1
I1
I1
I1
I1
I1
I1
I1
I1
I1
I1
I1
I1
I1
I1
I1
I0
I0
I0
I1
I1
I1
I0
tp4191
g626
tp4192
g4
(g8
S"\x17'\xd5P\xa5[\xd2?"
p4193
tp4194
Rp4195
s((I0
I0
I1
I0
I1
I1
I1
I1
I1
I0
I0
I0
I0
I0
I0
I0
I0
I0
I0
I0
I0
I0
I0
I0
I0
I0
I0
I0
I0
I1
I0
I1
I0
tp4196
g38
tp4197
g4
(g8
S'\xe3b\xef\xd2\xc2>\x04@'
p4198
tp4199
Rp4200
s((I0
I1
I0
I0
I1
I1
I1
I1
I1
I1
I1
I1
I1
I1
I1
I1
I1
I1
I0
I0
I0
I0
I0
I0
I0
I0
I0
I0
I0
I0
I1
I0
I1
tp4201
g91
tp4202
g4
(g8
S'b\xbf\xdb\x10\xbd\xba\xf4?'
p4203
tp4204
Rp4205
s((I1
I0
I0
I0
I1
I1
I1
I1
I1
I1
I1
I1
I1
I1
I1
I1
I1
I1
I1
I1
I1
I1
I1
I1
I0
I0
I0
I0
I0
I1
I1
I1
I0
tp4206
g21
tp4207
g4
(g8
S'\x9d&y\xc1\xba\xfd\xc9?'
p4208
tp4209
Rp4210
s((I0
I0
I1
I0
I1
I1
I1
I1
I1
I1
I1
I1
I1
I1
I1
I1
I1
I1
I1
I1
I1
I1
I1
I1
I1
I1
I0
I0
I0
I0
I0
I0
I0
tp4211
g38
tp4212
g4
(g8
S'\x14t\x08p0J\n@'
p4213
tp4214
Rp4215
s((I0
I0
I1
I0
I1
I1
I1
I1
I1
I1
I1
I1
I1
I1
I0
I0
I0
I0
I0
I0
I0
I0
I0
I0
I0
I0
I0
I0
I0
I0
I0
I1
I0
tp4216
g38
tp4217
g4
(g8
S'\xe8\x13\xe9\x99\xeb)\x02@'
p4218
tp4219
Rp4220
s((I1
I0
I0
I0
I1
I1
I1
I1
I1
I0
I0
I0
I0
I0
I0
I0
I0
I0
I0
I0
I0
I0
I0
I0
I0
I0
I0
I0
I0
I1
I1
I1
I0
tp4221
g73
tp4222
g4
(g8
S'i\xda\xc2\xd7G\xbc\x01@'
p4223
tp4224
Rp4225
s((I1
I0
I0
I0
I1
I1
I1
I1
I1
I0
I0
I0
I0
I0
I0
I0
I0
I0
I0
I0
I0
I0
I0
I0
I0
I0
I0
I0
I0
I0
I1
I0
I1
tp4226
g44
tp4227
g4
(g8
S'\r"\x8cL\x9f\xd7\xee?'
p4228
tp4229
Rp4230
s((I1
I0
I0
I0
I1
I1
I1
I1
I1
I1
I1
I1
I1
I1
I1
I1
I1
I0
I0
I0
I0
I0
I0
I0
I0
I0
I0
I0
I0
I0
I0
I0
I0
tp4231
g73
tp4232
g4
(g8
S"}\x96\xaf\xde'\xd3\xd4?"
p4233
tp4234
Rp4235
s((I0
I0
I0
I1
I1
I1
I1
I1
I1
I1
I1
I1
I1
I1
I1
I1
I0
I0
I0
I0
I0
I0
I0
I0
I0
I0
I0
I0
I0
I0
I0
I1
I0
tp4236
g220
tp4237
g4
(g8
S'\xe9\r\x9bQ\xb3\x92\xf3?'
p4238
tp4239
Rp4240
s((I1
I0
I0
I0
I1
I1
I1
I1
I1
I1
I1
I1
I1
I0
I0
I0
I0
I0
I0
I0
I0
I0
I0
I0
I0
I0
I0
I0
I0
I1
I1
I1
I0
tp4241
g226
tp4242
g4
(g8
S'=\xd5\xc4|mQ\xd0?'
p4243
tp4244
Rp4245
s((I1
I0
I0
I0
I1
I1
I1
I1
I1
I1
I1
I1
I1
I1
I1
I1
I1
I0
I0
I0
I0
I0
I0
I0
I0
I0
I0
I0
I0
I1
I1
I1
I1
tp4246
g119
tp4247
g4
(g8
S'\x94\xf6\xe2\x17\x1e\x0b\xe0?'
p4248
tp4249
Rp4250
s((I1
I0
I0
I0
I1
I1
I1
I1
I0
I0
I0
I0
I0
I0
I0
I0
I0
I0
I0
I0
I0
I0
I0
I0
I0
I0
I0
I0
I0
I1
I1
I1
I1
tp4251
g119
tp4252
g4
(g8
S'\x0eBr9\xac\xd5\xeb?'
p4253
tp4254
Rp4255
s((I0
I1
I0
I0
I1
I1
I1
I1
I0
I0
I0
I0
I0
I0
I0
I0
I0
I0
I0
I0
I0
I0
I0
I0
I0
I0
I0
I0
I0
I1
I0
I1
I0
tp4256
g91
tp4257
g4
(g8
S'\xfb|\xd7\x86\x0b\xe5\xa2?'
p4258
tp4259
Rp4260
s((I0
I1
I0
I0
I1
I1
I1
I1
I1
I1
I1
I1
I1
I1
I1
I1
I1
I1
I0
I0
I0
I0
I0
I0
I0
I0
I0
I0
I0
I1
I0
I1
I0
tp4261
g50
tp4262
g4
(g8
S'\x0f+\xcb8\x8d\xb1\xd0?'
p4263
tp4264
Rp4265
s((I1
I0
I0
I0
I1
I1
I1
I1
I1
I1
I1
I1
I1
I1
I1
I1
I1
I1
I1
I1
I1
I1
I1
I0
I0
I0
I0
I0
I0
I1
I1
I1
I0
tp4266
g21
tp4267
g4
(g8
S'\x10\xb2KD8\xfa\xe3?'
p4268
tp4269
Rp4270
s((I0
I1
I0
I0
I1
I1
I1
I1
I1
I1
I1
I1
I1
I1
I1
I1
I1
I1
I1
I1
I1
I1
I1
I0
I0
I0
I0
I0
I0
I1
I1
I1
I1
tp4271
g353
tp4272
g4
(g8
S'\xa4\xf6\n\xd7\x97\x97\x08@'
p4273
tp4274
Rp4275
s((I1
I0
I0
I0
I0
I0
I0
I0
I0
I0
I0
I0
I0
I0
I0
I0
I0
I0
I0
I0
I0
I0
I0
I0
I0
I0
I0
I0
I0
I1
I0
I1
I0
tp4276
g44
tp4277
g4
(g8
S'\t\xf9\x07][\xc1\xd6?'
p4278
tp4279
Rp4280
s((I0
I0
I0
I1
I1
I1
I1
I1
I1
I1
I1
I1
I1
I1
I1
I1
I1
I1
I1
I1
I1
I1
I1
I1
I1
I1
I0
I0
I0
I1
I1
I0
I1
tp4281
g32
tp4282
g4
(g8
S'I\xed\xbc\xc2\xf3a\xf7?'
p4283
tp4284
Rp4285
s((I0
I0
I0
I1
I1
I1
I1
I1
I1
I1
I1
I1
I1
I0
I0
I0
I0
I0
I0
I0
I0
I0
I0
I0
I0
I0
I0
I0
I0
I0
I1
I0
I1
tp4286
g220
tp4287
g4
(g8
S'\xa2\xd0\x93\x97\xf2\x7f\xf2?'
p4288
tp4289
Rp4290
s((I0
I1
I0
I0
I1
I1
I1
I1
I1
I1
I1
I1
I1
I1
I1
I1
I0
I0
I0
I0
I0
I0
I0
I0
I0
I0
I0
I0
I0
I1
I1
I1
I0
tp4291
g1080
tp4292
g4
(g8
S'\xee\xd0\x9f\x85\xe04\x05@'
p4293
tp4294
Rp4295
s((I0
I0
I1
I0
I1
I1
I1
I1
I1
I1
I1
I1
I1
I1
I1
I1
I1
I1
I1
I0
I0
I0
I0
I0
I0
I0
I0
I0
I0
I0
I1
I0
I1
tp4296
g15
tp4297
g4
(g8
S'\xe2O\xcb\xdfxU\xa8?'
p4298
tp4299
Rp4300
s((I1
I0
I0
I0
I1
I1
I1
I1
I1
I1
I1
I1
I1
I1
I1
I1
I0
I0
I0
I0
I0
I0
I0
I0
I0
I0
I0
I0
I0
I1
I1
I1
I0
tp4301
g73
tp4302
g4
(g8
S'\xbbS\xb0\xd5d\x95\x02@'
p4303
tp4304
Rp4305
s((I0
I1
I0
I0
I1
I1
I1
I1
I1
I1
I1
I1
I1
I1
I0
I0
I0
I0
I0
I0
I0
I0
I0
I0
I0
I0
I0
I0
I0
I0
I1
I0
I1
tp4306
g50
tp4307
g4
(g8
S'\x01\xa5\xad\xa9\xb1@\xf2?'
p4308
tp4309
Rp4310
s((I0
I1
I0
I0
I1
I1
I1
I1
I1
I1
I1
I1
I1
I1
I1
I1
I1
I1
I1
I0
I0
I0
I0
I0
I0
I0
I0
I0
I0
I0
I0
I0
I0
tp4311
g147
tp4312
g4
(g8
S'#\xf9\x98R\xad\xef\xd9?'
p4313
tp4314
Rp4315
s((I0
I0
I1
I0
I1
I1
I1
I1
I1
I1
I1
I1
I1
I1
I1
I1
I1
I1
I1
I1
I1
I1
I1
I1
I1
I1
I1
I0
I0
I1
I1
I1
I1
tp4316
g626
tp4317
g4
(g8
S'k\xf2\xd2<\xfa0\xfb?'
p4318
tp4319
Rp4320
s((I0
I1
I0
I0
I1
I1
I1
I1
I1
I1
I1
I1
I1
I1
I1
I1
I1
I1
I1
I1
I1
I1
I1
I1
I0
I0
I0
I0
I0
I0
I0
I1
I0
tp4321
g147
tp4322
g4
(g8
S'\xe2\xe0\x83\xd6\x0e\x89\x00@'
p4323
tp4324
Rp4325
s((I0
I1
I0
I0
I1
I1
I1
I1
I1
I1
I0
I0
I0
I0
I0
I0
I0
I0
I0
I0
I0
I0
I0
I0
I0
I0
I0
I0
I0
I0
I0
I0
I0
tp4326
g353
tp4327
g4
(g8
S"|y'\x10\x82\xac\xf1?"
p4328
tp4329
Rp4330
s((I0
I1
I0
I0
I1
I1
I1
I1
I1
I0
I0
I0
I0
I0
I0
I0
I0
I0
I0
I0
I0
I0
I0
I0
I0
I0
I0
I0
I0
I1
I1
I1
I1
tp4331
g56
tp4332
g4
(g8
S'\xd6\xa0\x0b\xd1"9\x02@'
p4333
tp4334
Rp4335
s((I1
I0
I0
I0
I0
I0
I0
I0
I0
I0
I0
I0
I0
I0
I0
I0
I0
I0
I0
I0
I0
I0
I0
I0
I0
I0
I0
I0
I0
I0
I1
I0
I1
tp4336
g44
tp4337
g4
(g8
S'\x08\x159h\xdf*\x04@'
p4338
tp4339
Rp4340
s((I1
I0
I0
I0
I1
I1
I1
I1
I1
I1
I1
I1
I1
I1
I1
I1
I1
I1
I1
I1
I1
I1
I1
I1
I1
I1
I1
I1
I0
I1
I0
I1
I0
tp4341
g119
tp4342
g4
(g8
S'M\x8f\x12\xc77\x9b\xd6?'
p4343
tp4344
Rp4345
s((I0
I0
I0
I1
I1
I1
I1
I1
I1
I1
I1
I1
I1
I1
I1
I1
I1
I1
I1
I1
I1
I0
I0
I0
I0
I0
I0
I0
I0
I1
I1
I1
I1
tp4346
g32
tp4347
g4
(g8
S'\x12$+\x9e}\x96\xe1?'
p4348
tp4349
Rp4350
s((I1
I0
I0
I0
I1
I1
I1
I1
I1
I1
I1
I1
I1
I1
I1
I1
I1
I1
I1
I1
I1
I1
I1
I1
I0
I0
I0
I0
I0
I1
I0
I1
I0
tp4351
g1101
tp4352
g4
(g8
S'\xbcB\xa3\xb4\xe0\xd3\xca?'
p4353
tp4354
Rp4355
s((I1
I0
I0
I0
I1
I1
I1
I1
I1
I1
I1
I1
I1
I1
I1
I1
I1
I1
I1
I1
I1
I1
I1
I1
I1
I1
I1
I0
I0
I1
I0
I1
I0
tp4356
g119
tp4357
g4
(g8
S'\xc5\xa9=\xa5\x12\x17\xe0?'
p4358
tp4359
Rp4360
s((I0
I1
I0
I0
I1
I1
I1
I1
I1
I1
I1
I1
I1
I1
I1
I1
I1
I1
I1
I1
I1
I1
I1
I1
I1
I1
I1
I1
I0
I1
I1
I1
I1
tp4361
g91
tp4362
g4
(g8
S'\xa9\xcc^\xa9(\xb1\xfa?'
p4363
tp4364
Rp4365
s((I0
I0
I0
I1
I1
I1
I1
I1
I1
I1
I1
I1
I1
I1
I1
I1
I1
I1
I1
I1
I1
I1
I1
I0
I0
I0
I0
I0
I0
I0
I1
I0
I1
tp4366
g220
tp4367
g4
(g8
S')\x05!\x1b\xf4\xdf\xf2?'
p4368
tp4369
Rp4370
s((I1
I0
I0
I0
I1
I1
I1
I1
I1
I1
I1
I1
I1
I1
I1
I1
I1
I1
I1
I1
I1
I1
I1
I1
I1
I1
I1
I1
I1
I0
I0
I0
I1
tp4371
g158
tp4372
g4
(g8
S'\xbb\x1d\xbc\xc7\xf2_\xe4?'
p4373
tp4374
Rp4375
s((I0
I0
I1
I0
I1
I1
I1
I1
I1
I1
I1
I1
I1
I1
I1
I1
I1
I1
I1
I0
I0
I0
I0
I0
I0
I0
I0
I0
I0
I1
I0
I1
I0
tp4376
g15
tp4377
g4
(g8
S'\t\xe1\xbc#\xcb\xdd\xf6?'
p4378
tp4379
Rp4380
s((I0
I1
I0
I0
I1
I1
I1
I1
I1
I1
I1
I1
I1
I1
I1
I1
I1
I1
I1
I1
I1
I1
I1
I1
I1
I1
I0
I0
I0
I1
I1
I1
I1
tp4381
g56
tp4382
g4
(g8
S'\xb5\x06z\xe2Vf\x08@'
p4383
tp4384
Rp4385
s((I0
I0
I1
I0
I1
I1
I1
I1
I1
I1
I1
I1
I1
I1
I1
I1
I1
I1
I0
I0
I0
I0
I0
I0
I0
I0
I0
I0
I0
I0
I0
I1
I0
tp4386
g125
tp4387
g4
(g8
S'\x99`\xf8\x95S.\xf3?'
p4388
tp4389
Rp4390
s((I1
I0
I0
I0
I1
I1
I1
I1
I1
I1
I1
I1
I0
I0
I0
I0
I0
I0
I0
I0
I0
I0
I0
I0
I0
I0
I0
I0
I0
I1
I1
I1
I0
tp4391
g21
tp4392
g4
(g8
S'\xdb\xf0\xe1\xdc4I\xde?'
p4393
tp4394
Rp4395
s((I1
I0
I0
I0
I1
I1
I1
I1
I1
I1
I1
I1
I1
I1
I1
I1
I1
I1
I0
I0
I0
I0
I0
I0
I0
I0
I0
I0
I0
I0
I0
I0
I0
tp4396
g21
tp4397
g4
(g8
S'Lf\x95B\xbac\xcc?'
p4398
tp4399
Rp4400
s((I1
I0
I0
I0
I1
I1
I1
I1
I1
I1
I1
I1
I1
I1
I1
I1
I1
I1
I1
I1
I1
I1
I1
I1
I1
I1
I1
I1
I1
I0
I0
I1
I0
tp4401
g226
tp4402
g4
(g8
S'\xb3Y\x94\x80\xce\xf6\x05@'
p4403
tp4404
Rp4405
s((I0
I1
I0
I0
I1
I1
I1
I1
I1
I1
I1
I1
I1
I0
I0
I0
I0
I0
I0
I0
I0
I0
I0
I0
I0
I0
I0
I0
I0
I1
I1
I1
I1
tp4406
g2085
tp4407
g4
(g8
S'\xc3\x19\xb1b28\xc5?'
p4408
tp4409
Rp4410
s((I0
I0
I1
I0
I1
I1
I1
I1
I1
I1
I1
I1
I1
I1
I1
I1
I0
I0
I0
I0
I0
I0
I0
I0
I0
I0
I0
I0
I0
I1
I1
I1
I0
tp4411
g274
tp4412
g4
(g8
S'\xcd&u\xe5\xa8\x85\xf1?'
p4413
tp4414
Rp4415
s((I1
I0
I0
I0
I1
I1
I1
I1
I1
I1
I1
I1
I1
I1
I1
I1
I1
I1
I1
I1
I1
I1
I1
I0
I0
I0
I0
I0
I0
I1
I1
I1
I1
tp4416
g73
tp4417
g4
(g8
S'086e\x83;\x03@'
p4418
tp4419
Rp4420
s((I0
I1
I0
I0
I1
I1
I1
I1
I1
I1
I1
I1
I1
I1
I1
I1
I1
I1
I1
I1
I1
I1
I1
I1
I1
I1
I1
I1
I1
I0
I1
I0
I1
tp4421
g91
tp4422
g4
(g8
S'\xa0F\xf4\x93\xf9y\xf7?'
p4423
tp4424
Rp4425
s((I1
I0
I0
I0
I1
I1
I1
I1
I1
I1
I1
I1
I1
I1
I1
I1
I1
I1
I1
I1
I1
I1
I1
I1
I1
I1
I1
I1
I1
I1
I0
I0
I0
tp4426
g389
tp4427
g4
(g8
S':~T\\\xe6u\x06@'
p4428
tp4429
Rp4430
s((I1
I0
I0
I0
I1
I1
I1
I1
I1
I1
I1
I1
I1
I1
I0
I0
I0
I0
I0
I0
I0
I0
I0
I0
I0
I0
I0
I0
I0
I0
I1
I0
I1
tp4431
g248
tp4432
g4
(g8
S'\x8f\xca\xfbZ\x18\xd8\xc6?'
p4433
tp4434
Rp4435
s((I0
I1
I0
I0
I1
I1
I1
I1
I1
I1
I1
I1
I1
I1
I1
I1
I1
I1
I1
I1
I1
I1
I1
I0
I0
I0
I0
I0
I0
I1
I0
I1
I0
tp4436
g147
tp4437
g4
(g8
S'\xa9\x134\xdc\x02R\xd3?'
p4438
tp4439
Rp4440
s((I1
I0
I0
I0
I1
I1
I1
I1
I1
I1
I1
I1
I1
I1
I0
I0
I0
I0
I0
I0
I0
I0
I0
I0
I0
I0
I0
I0
I0
I1
I1
I1
I0
tp4441
g21
tp4442
g4
(g8
S'\x9d\x07\x1f\xbc\xf42\x01@'
p4443
tp4444
Rp4445
s((I0
I1
I0
I0
I1
I1
I1
I1
I1
I1
I1
I1
I1
I1
I1
I1
I1
I1
I1
I1
I1
I1
I0
I0
I0
I0
I0
I0
I0
I1
I1
I1
I0
tp4446
g56
tp4447
g4
(g8
S'\xc2\x89\xb7\x89\x0cI\xd5?'
p4448
tp4449
Rp4450
s((I0
I1
I0
I0
I1
I1
I1
I1
I1
I1
I1
I1
I1
I1
I1
I1
I0
I0
I0
I0
I0
I0
I0
I0
I0
I0
I0
I0
I0
I1
I1
I1
I1
tp4451
g56
tp4452
g4
(g8
S'\x9f_\x87%\xba\xb0\xdf?'
p4453
tp4454
Rp4455
s((I0
I1
I0
I0
I1
I1
I1
I1
I1
I1
I1
I1
I1
I1
I1
I1
I1
I1
I1
I1
I1
I1
I0
I0
I0
I0
I0
I0
I0
I0
I0
I0
I0
tp4456
g56
tp4457
g4
(g8
S'%\xca\xf8\xc5\x142\xd0?'
p4458
tp4459
Rp4460
s((I0
I0
I0
I1
I1
I1
I1
I1
I1
I1
I1
I1
I1
I1
I0
I0
I0
I0
I0
I0
I0
I0
I0
I0
I0
I0
I0
I0
I0
I0
I1
I0
I1
tp4461
g32
tp4462
g4
(g8
S'\xc6M@]^)\xcd?'
p4463
tp4464
Rp4465
s((I1
I0
I0
I0
I1
I1
I1
I1
I1
I1
I1
I1
I1
I1
I1
I1
I1
I1
I1
I1
I1
I0
I0
I0
I0
I0
I0
I0
I0
I1
I1
I1
I1
tp4466
g389
tp4467
g4
(g8
S'V\xf4\xbf \xe3\xef\xdf?'
p4468
tp4469
Rp4470
s((I0
I0
I0
I1
I1
I1
I1
I1
I1
I1
I1
I1
I1
I1
I1
I1
I1
I1
I1
I1
I0
I0
I0
I0
I0
I0
I0
I0
I0
I1
I1
I1
I1
tp4471
g32
tp4472
g4
(g8
S'\xbbv2K}\xd1\xf4?'
p4473
tp4474
Rp4475
s((I0
I1
I0
I0
I1
I1
I1
I1
I1
I1
I1
I1
I1
I1
I1
I1
I1
I1
I1
I1
I1
I1
I1
I1
I1
I1
I1
I1
I0
I0
I1
I0
I0
tp4476
g2085
tp4477
g4
(g8
S'\x8e6\r.\xce\xfa\xa2?'
p4478
tp4479
Rp4480
s((I0
I1
I0
I0
I1
I1
I1
I1
I1
I0
I0
I0
I0
I0
I0
I0
I0
I0
I0
I0
I0
I0
I0
I0
I0
I0
I0
I0
I0
I1
I1
I1
I0
tp4481
g147
tp4482
g4
(g8
S'\xa0\xe8\r$Y>\x02@'
p4483
tp4484
Rp4485
s((I0
I1
I0
I0
I1
I1
I1
I1
I1
I0
I0
I0
I0
I0
I0
I0
I0
I0
I0
I0
I0
I0
I0
I0
I0
I0
I0
I0
I0
I1
I0
I1
I0
tp4486
g56
tp4487
g4
(g8
S'\xcd\x8f\x1d\x10\xa9\xd7\xa3?'
p4488
tp4489
Rp4490
s((I0
I1
I0
I0
I1
I1
I1
I1
I1
I1
I1
I1
I1
I1
I1
I1
I1
I1
I0
I0
I0
I0
I0
I0
I0
I0
I0
I0
I0
I1
I0
I0
I0
tp4491
g687
tp4492
g4
(g8
S'\x93\x1bZ\x19C\x98\xd0?'
p4493
tp4494
Rp4495
s((I0
I0
I1
I0
I1
I1
I1
I1
I1
I1
I1
I1
I1
I1
I0
I0
I0
I0
I0
I0
I0
I0
I0
I0
I0
I0
I0
I0
I0
I0
I0
I0
I1
tp4496
g15
tp4497
g4
(g8
S'\xff\xd2\x181\x1dm\xa6?'
p4498
tp4499
Rp4500
s((I1
I0
I0
I0
I1
I1
I1
I1
I1
I1
I1
I1
I1
I1
I1
I1
I1
I1
I1
I1
I1
I1
I1
I1
I0
I0
I0
I0
I0
I1
I1
I1
I1
tp4501
g62
tp4502
g4
(g8
S'\xc6\x9f?\x86\xbf|\xfe?'
p4503
tp4504
Rp4505
s((I0
I0
I1
I0
I1
I1
I1
I1
I1
I1
I1
I1
I1
I1
I1
I1
I1
I1
I1
I1
I1
I1
I1
I1
I1
I1
I1
I1
I1
I0
I1
I1
I1
tp4506
g274
tp4507
g4
(g8
S'\x9bi\xee\xf57\xe8\x06@'
p4508
tp4509
Rp4510
s((I0
I1
I0
I0
I1
I1
I1
I1
I1
I1
I1
I1
I1
I1
I1
I1
I1
I1
I0
I0
I0
I0
I0
I0
I0
I0
I0
I0
I0
I0
I1
I1
I1
tp4511
g2085
tp4512
g4
(g8
S'%\x17^u\xf6\xdd\xfc?'
p4513
tp4514
Rp4515
s((I0
I0
I0
I1
I1
I1
I1
I1
I1
I1
I1
I1
I1
I1
I0
I0
I0
I0
I0
I0
I0
I0
I0
I0
I0
I0
I0
I0
I0
I1
I1
I1
I0
tp4516
g32
tp4517
g4
(g8
S'\x88a\x13w\xc4\x8a\xcd\xbf'
p4518
tp4519
Rp4520
s((I0
I0
I1
I0
I1
I1
I1
I1
I1
I1
I1
I1
I1
I1
I1
I1
I1
I1
I1
I1
I1
I1
I1
I1
I0
I0
I0
I0
I0
I0
I1
I0
I1
tp4521
g107
tp4522
g4
(g8
S'\x940\x7f\x0b\xdd\x81\xa8?'
p4523
tp4524
Rp4525
s((I1
I0
I0
I0
I1
I1
I1
I1
I1
I1
I1
I1
I1
I1
I1
I1
I1
I1
I1
I1
I1
I1
I1
I1
I1
I1
I1
I1
I1
I0
I0
I1
I0
tp4526
g389
tp4527
g4
(g8
S'\r\xcc\x95p\xde\xae\xf0?'
p4528
tp4529
Rp4530
s((I1
I0
I0
I0
I1
I1
I1
I1
I1
I1
I1
I1
I1
I1
I1
I1
I1
I1
I1
I1
I1
I1
I1
I1
I1
I1
I1
I1
I1
I1
I0
I1
I0
tp4531
g389
tp4532
g4
(g8
S'4{\xed\x00\x01\t\xf7?'
p4533
tp4534
Rp4535
s((I0
I0
I1
I0
I1
I1
I1
I1
I1
I1
I1
I1
I1
I1
I1
I1
I1
I1
I1
I0
I0
I0
I0
I0
I0
I0
I0
I0
I0
I0
I0
I0
I0
tp4536
g38
tp4537
g4
(g8
S'\xbd\x9f\xe0\xbay\x96\x08@'
p4538
tp4539
Rp4540
s((I1
I0
I0
I0
I1
I1
I1
I1
I1
I1
I1
I1
I1
I1
I1
I1
I1
I1
I1
I0
I0
I0
I0
I0
I0
I0
I0
I0
I0
I1
I1
I1
I0
tp4541
g73
tp4542
g4
(g8
S"\x14\xc9\x18\xa8v'\xdc?"
p4543
tp4544
Rp4545
s((I0
I0
I1
I0
I1
I1
I1
I1
I1
I1
I1
I1
I1
I1
I1
I1
I1
I1
I1
I1
I1
I1
I1
I1
I1
I1
I1
I1
I1
I0
I0
I0
I0
tp4546
g15
tp4547
g4
(g8
S'\x87\x06\xb6)tH\xfb?'
p4548
tp4549
Rp4550
s((I0
I0
I0
I1
I1
I1
I1
I1
I1
I1
I1
I1
I1
I1
I1
I1
I0
I0
I0
I0
I0
I0
I0
I0
I0
I0
I0
I0
I0
I1
I0
I1
I0
tp4551
g32
tp4552
g4
(g8
S'y\x8e~\xe4S6\xee?'
p4553
tp4554
Rp4555
s((I0
I0
I1
I0
I1
I1
I1
I1
I1
I1
I1
I1
I1
I1
I1
I1
I1
I1
I1
I1
I1
I1
I1
I1
I1
I1
I1
I1
I0
I0
I0
I0
I0
tp4556
g38
tp4557
g4
(g8
S'_\x08\xe4\xeedW\n@'
p4558
tp4559
Rp4560
s((I0
I0
I1
I0
I1
I1
I1
I1
I1
I1
I1
I1
I1
I1
I1
I1
I1
I1
I1
I1
I1
I1
I1
I1
I1
I1
I1
I0
I0
I1
I1
I1
I0
tp4561
g38
tp4562
g4
(g8
S'\xb1\x07"\xf0\xcc>\x05@'
p4563
tp4564
Rp4565
s((I0
I0
I0
I1
I1
I1
I1
I1
I1
I1
I1
I1
I1
I1
I1
I1
I1
I1
I1
I1
I1
I1
I0
I0
I0
I0
I0
I0
I0
I0
I0
I0
I0
tp4566
g32
tp4567
g4
(g8
S'\xd7\xa5\x11\xe1\\\x16\xf0?'
p4568
tp4569
Rp4570
s((I1
I0
I0
I0
I1
I1
I1
I1
I1
I1
I1
I1
I1
I1
I1
I1
I1
I1
I1
I0
I0
I0
I0
I0
I0
I0
I0
I0
I0
I1
I1
I1
I1
tp4571
g62
tp4572
g4
(g8
S'\x83J/6\xe7\x9c\xf5?'
p4573
tp4574
Rp4575
s((I0
I0
I1
I0
I1
I1
I1
I1
I1
I1
I1
I1
I1
I1
I1
I1
I1
I1
I1
I1
I1
I1
I1
I0
I0
I0
I0
I0
I0
I0
I0
I0
I0
tp4576
g15
tp4577
g4
(g8
S'\xfd\x07\xa4\xd3\x89\x86\xf0?'
p4578
tp4579
Rp4580
s.