(dp0
((I0
I1
I0
I0
I1
I1
I1
I1
I1
I1
I1
I1
I1
I1
I1
I1
I1
I1
I1
I1
I1
I1
I1
I1
I1
I1
I1
I1
I1
I1
I1
I1
I1
I1
I1
I1
I1
I1
I1
I1
I1
I1
I1
I1
I1
I1
I1
I1
I1
I1
I1
I1
I1
I1
I1
I1
I1
I1
I1
I0
I0
I0
I0
I0
I0
I0
I0
I0
I0
I0
I0
I0
I0
I0
I0
I0
I0
I0
I0
I0
I0
I0
I0
I0
I0
I0
I0
I0
I0
I0
I0
I0
I0
I0
I0
I0
I0
I0
I0
I0
I0
I0
I0
I0
tp1
S'exit-long'
p2
tp3
cnumpy.core.multiarray
scalar
p4
(cnumpy
dtype
p5
(S'f8'
p6
I0
I1
tp7
Rp8
(I3
S'<'
p9
NNNI-1
I-1
I0
tp10
bS':\x04\x11\x11|\x13\x02@'
p11
tp12
Rp13
s((I0
I1
I0
I0
I1
I1
I1
I1
I1
I0
I0
I0
I0
I0
I0
I0
I0
I0
I0
I0
I0
I0
I0
I0
I0
I0
I0
I0
I0
I0
I0
I0
I0
I0
I0
I0
I0
I0
I0
I0
I0
I0
I0
I0
I0
I0
I0
I0
I0
I0
I0
I0
I0
I0
I0
I0
I0
I0
I0
I0
I0
I0
I0
I0
I0
I0
I0
I0
I0
I0
I0
I0
I0
I0
I0
I0
I0
I0
I0
I0
I0
I0
I0
I0
I0
I0
I0
I0
I0
I0
I0
I0
I0
I0
I0
I0
I0
I0
I0
I0
I0
I0
I0
I0
tp14
g2
tp15
g4
(g8
S'3\xd4V\xf3\xe1\xa5\xc8?'
p16
tp17
Rp18
s((I1
I0
I0
I0
I1
I1
I1
I1
I1
I1
I1
I1
I1
I1
I1
I1
I1
I1
I1
I0
I0
I0
I0
I0
I0
I0
I0
I0
I0
I0
I0
I0
I0
I0
I0
I0
I0
I0
I0
I0
I0
I0
I0
I0
I0
I0
I0
I0
I0
I0
I0
I0
I0
I0
I0
I0
I0
I0
I0
I0
I0
I0
I0
I0
I0
I0
I0
I0
I0
I0
I0
I0
I0
I0
I0
I0
I0
I0
I0
I0
I0
I0
I0
I0
I0
I0
I0
I0
I0
I0
I0
I0
I0
I0
I0
I0
I0
I0
I0
I0
I0
I0
I0
I0
tp19
S'enter-long'
p20
tp21
g4
(g8
S'\xb0k\xd93\xa1\x1d\xf9?'
p22
tp23
Rp24
s((I0
I1
I0
I0
I1
I1
I1
I1
I1
I1
I1
I1
I1
I1
I1
I1
I1
I1
I1
I1
I1
I1
I1
I1
I1
I1
I1
I1
I1
I1
I1
I1
I0
I0
I0
I0
I0
I0
I0
I0
I0
I0
I0
I0
I0
I0
I0
I0
I0
I0
I0
I0
I0
I0
I0
I0
I0
I0
I0
I0
I0
I0
I0
I0
I0
I0
I0
I0
I0
I0
I0
I0
I0
I0
I0
I0
I0
I0
I0
I0
I0
I0
I0
I0
I0
I0
I0
I0
I0
I0
I0
I0
I0
I0
I0
I0
I0
I0
I0
I0
I0
I0
I0
I0
tp25
g2
tp26
g4
(g8
S'x\xa8D\xdb:\xba\xfc?'
p27
tp28
Rp29
s((I0
I1
I0
I0
I1
I1
I1
I1
I1
I1
I1
I1
I1
I1
I1
I1
I1
I1
I1
I1
I1
I1
I1
I1
I1
I1
I1
I1
I1
I1
I1
I1
I1
I1
I1
I1
I1
I1
I1
I1
I1
I1
I1
I1
I1
I1
I1
I1
I1
I1
I1
I1
I1
I1
I1
I1
I1
I1
I1
I1
I1
I1
I1
I1
I1
I1
I1
I1
I1
I1
I1
I1
I1
I1
I1
I1
I1
I1
I0
I0
I0
I0
I0
I0
I0
I0
I0
I0
I0
I0
I0
I0
I0
I0
I0
I0
I0
I0
I0
I0
I0
I0
I0
I0
tp30
S'stay-long'
p31
tp32
g4
(g8
S'T\xe3\x8b(\xd0\xc1\xb6?'
p33
tp34
Rp35
s((I1
I0
I0
I0
I1
I1
I1
I1
I1
I1
I1
I1
I1
I1
I1
I1
I1
I1
I1
I1
I1
I1
I1
I1
I0
I0
I0
I0
I0
I0
I0
I0
I0
I0
I0
I0
I0
I0
I0
I0
I0
I0
I0
I0
I0
I0
I0
I0
I0
I0
I0
I0
I0
I0
I0
I0
I0
I0
I0
I0
I0
I0
I0
I0
I0
I0
I0
I0
I0
I0
I0
I0
I0
I0
I0
I0
I0
I0
I0
I0
I0
I0
I0
I0
I0
I0
I0
I0
I0
I0
I0
I0
I0
I0
I0
I0
I0
I0
I0
I0
I0
I0
I0
I0
tp36
S'waiting'
p37
tp38
g4
(g8
S'\xb4\xff\xe9\x90.\xaf\x00@'
p39
tp40
Rp41
s((I0
I1
I0
I0
I1
I1
I1
I1
I1
I1
I1
I1
I1
I1
I1
I1
I1
I1
I1
I1
I1
I1
I1
I1
I1
I1
I1
I1
I1
I1
I1
I1
I1
I1
I1
I1
I1
I1
I1
I1
I1
I1
I1
I1
I1
I1
I1
I1
I1
I1
I1
I1
I1
I1
I0
I0
I0
I0
I0
I0
I0
I0
I0
I0
I0
I0
I0
I0
I0
I0
I0
I0
I0
I0
I0
I0
I0
I0
I0
I0
I0
I0
I0
I0
I0
I0
I0
I0
I0
I0
I0
I0
I0
I0
I0
I0
I0
I0
I0
I0
I0
I0
I0
I0
tp42
g31
tp43
g4
(g8
S'\xd3\xad\xcb\xf4^p\xfd?'
p44
tp45
Rp46
s((I1
I0
I0
I0
I1
I1
I1
I1
I1
I1
I1
I1
I1
I1
I1
I1
I1
I1
I1
I1
I1
I1
I0
I0
I0
I0
I0
I0
I0
I0
I0
I0
I0
I0
I0
I0
I0
I0
I0
I0
I0
I0
I0
I0
I0
I0
I0
I0
I0
I0
I0
I0
I0
I0
I0
I0
I0
I0
I0
I0
I0
I0
I0
I0
I0
I0
I0
I0
I0
I0
I0
I0
I0
I0
I0
I0
I0
I0
I0
I0
I0
I0
I0
I0
I0
I0
I0
I0
I0
I0
I0
I0
I0
I0
I0
I0
I0
I0
I0
I0
I0
I0
I0
I0
tp47
g37
tp48
g4
(g8
S'V\xf3\xd0\x13\xff\xc5\xfd?'
p49
tp50
Rp51
s((I0
I1
I0
I0
I1
I1
I1
I1
I1
I1
I1
I1
I1
I1
I1
I1
I1
I1
I1
I1
I1
I1
I1
I1
I1
I1
I1
I1
I1
I1
I1
I1
I1
I1
I1
I1
I1
I1
I1
I1
I1
I1
I1
I1
I1
I0
I0
I0
I0
I0
I0
I0
I0
I0
I0
I0
I0
I0
I0
I0
I0
I0
I0
I0
I0
I0
I0
I0
I0
I0
I0
I0
I0
I0
I0
I0
I0
I0
I0
I0
I0
I0
I0
I0
I0
I0
I0
I0
I0
I0
I0
I0
I0
I0
I0
I0
I0
I0
I0
I0
I0
I0
I0
I0
tp52
g31
tp53
g4
(g8
S'\xa1\x80\x92\xcf\x03\xb5\x03@'
p54
tp55
Rp56
s((I0
I1
I0
I0
I1
I1
I1
I1
I1
I1
I1
I1
I1
I1
I1
I1
I1
I1
I1
I1
I1
I1
I1
I1
I1
I1
I1
I1
I1
I1
I1
I1
I1
I1
I1
I1
I1
I1
I1
I1
I1
I1
I1
I0
I0
I0
I0
I0
I0
I0
I0
I0
I0
I0
I0
I0
I0
I0
I0
I0
I0
I0
I0
I0
I0
I0
I0
I0
I0
I0
I0
I0
I0
I0
I0
I0
I0
I0
I0
I0
I0
I0
I0
I0
I0
I0
I0
I0
I0
I0
I0
I0
I0
I0
I0
I0
I0
I0
I0
I0
I0
I0
I0
I0
tp57
g2
tp58
g4
(g8
S'\xe5\x90\x98K\xd8\xd1\xfb?'
p59
tp60
Rp61
s((I0
I0
I0
I1
I1
I1
I1
I1
I1
I1
I1
I1
I1
I1
I1
I1
I1
I1
I1
I1
I1
I1
I1
I1
I1
I1
I1
I1
I1
I1
I1
I1
I1
I1
I1
I1
I1
I1
I1
I1
I1
I1
I1
I1
I1
I1
I1
I1
I1
I1
I1
I1
I1
I1
I1
I1
I1
I1
I1
I0
I0
I0
I0
I0
I0
I0
I0
I0
I0
I0
I0
I0
I0
I0
I0
I0
I0
I0
I0
I0
I0
I0
I0
I0
I0
I0
I0
I0
I0
I0
I0
I0
I0
I0
I0
I0
I0
I0
I0
I0
I0
I0
I0
I0
tp62
S'completed'
p63
tp64
g4
(g8
S'\x91\xd6fdm\xc5\x02@'
p65
tp66
Rp67
s((I0
I0
I0
I1
I1
I1
I1
I1
I1
I1
I1
I1
I1
I1
I1
I1
I1
I1
I1
I1
I1
I1
I1
I1
I1
I1
I1
I1
I1
I1
I1
I1
I1
I1
I1
I1
I1
I1
I1
I1
I1
I1
I1
I1
I1
I1
I1
I1
I1
I1
I1
I1
I1
I1
I1
I1
I1
I1
I1
I1
I1
I1
I1
I1
I1
I1
I1
I1
I1
I1
I1
I1
I1
I1
I1
I1
I1
I1
I1
I1
I1
I1
I1
I1
I1
I1
I1
I1
I1
I1
I0
I0
I0
I0
I0
I0
I0
I0
I0
I0
I0
I0
I0
I0
tp68
g63
tp69
g4
(g8
S'\xca\x03\r\xe4\x0b\x9b\xfa?'
p70
tp71
Rp72
s((I0
I0
I1
I0
I1
I1
I1
I1
I1
I1
I1
I1
I1
I1
I1
I1
I1
I1
I1
I1
I1
I1
I1
I1
I1
I1
I1
I1
I1
I1
I1
I1
I1
I1
I0
I0
I0
I0
I0
I0
I0
I0
I0
I0
I0
I0
I0
I0
I0
I0
I0
I0
I0
I0
I0
I0
I0
I0
I0
I0
I0
I0
I0
I0
I0
I0
I0
I0
I0
I0
I0
I0
I0
I0
I0
I0
I0
I0
I0
I0
I0
I0
I0
I0
I0
I0
I0
I0
I0
I0
I0
I0
I0
I0
I0
I0
I0
I0
I0
I0
I0
I0
I0
I0
tp73
S'exit-short'
p74
tp75
g4
(g8
S'\xf2Y\xa2j\xf2\x85\xe0?'
p76
tp77
Rp78
s((I1
I0
I0
I0
I1
I1
I1
I1
I1
I1
I1
I1
I1
I1
I1
I1
I1
I1
I1
I1
I1
I1
I1
I1
I1
I1
I1
I0
I0
I0
I0
I0
I0
I0
I0
I0
I0
I0
I0
I0
I0
I0
I0
I0
I0
I0
I0
I0
I0
I0
I0
I0
I0
I0
I0
I0
I0
I0
I0
I0
I0
I0
I0
I0
I0
I0
I0
I0
I0
I0
I0
I0
I0
I0
I0
I0
I0
I0
I0
I0
I0
I0
I0
I0
I0
I0
I0
I0
I0
I0
I0
I0
I0
I0
I0
I0
I0
I0
I0
I0
I0
I0
I0
I0
tp79
S'enter-short'
p80
tp81
g4
(g8
S'\xbf\n\xa8\xbf\xe3R\xfe?'
p82
tp83
Rp84
s((I1
I0
I0
I0
I1
I1
I1
I1
I1
I1
I1
I1
I1
I1
I1
I1
I1
I1
I1
I1
I1
I1
I1
I1
I1
I1
I1
I1
I1
I1
I1
I1
I1
I1
I1
I1
I1
I1
I1
I1
I1
I1
I1
I0
I0
I0
I0
I0
I0
I0
I0
I0
I0
I0
I0
I0
I0
I0
I0
I0
I0
I0
I0
I0
I0
I0
I0
I0
I0
I0
I0
I0
I0
I0
I0
I0
I0
I0
I0
I0
I0
I0
I0
I0
I0
I0
I0
I0
I0
I0
I0
I0
I0
I0
I0
I0
I0
I0
I0
I0
I0
I0
I0
I0
tp85
g80
tp86
g4
(g8
S'n\x11\xe7\x97\xe0X\xa7?'
p87
tp88
Rp89
s((I0
I0
I1
I0
I1
I1
I1
I1
I1
I1
I1
I1
I1
I1
I1
I1
I1
I1
I1
I1
I1
I1
I1
I1
I1
I1
I1
I1
I1
I1
I1
I1
I1
I1
I1
I1
I1
I1
I1
I1
I1
I1
I1
I1
I1
I1
I1
I1
I1
I1
I1
I1
I0
I0
I0
I0
I0
I0
I0
I0
I0
I0
I0
I0
I0
I0
I0
I0
I0
I0
I0
I0
I0
I0
I0
I0
I0
I0
I0
I0
I0
I0
I0
I0
I0
I0
I0
I0
I0
I0
I0
I0
I0
I0
I0
I0
I0
I0
I0
I0
I0
I0
I0
I0
tp90
g74
tp91
g4
(g8
S'bae\xb9o~\x00@'
p92
tp93
Rp94
s((I0
I0
I0
I1
I1
I1
I1
I1
I1
I1
I1
I1
I1
I1
I1
I1
I1
I1
I1
I1
I1
I1
I1
I1
I1
I1
I1
I1
I1
I1
I1
I1
I1
I1
I1
I1
I1
I1
I1
I1
I1
I1
I1
I1
I1
I1
I1
I1
I1
I1
I1
I1
I1
I1
I1
I1
I1
I1
I1
I1
I1
I1
I1
I1
I1
I1
I1
I1
I1
I1
I0
I0
I0
I0
I0
I0
I0
I0
I0
I0
I0
I0
I0
I0
I0
I0
I0
I0
I0
I0
I0
I0
I0
I0
I0
I0
I0
I0
I0
I0
I0
I0
I0
I0
tp95
g63
tp96
g4
(g8
S'\xd7\x9f\x9e~{\x05\x02@'
p97
tp98
Rp99
s((I1
I0
I0
I0
I1
I1
I1
I1
I1
I1
I1
I1
I1
I1
I1
I1
I1
I1
I1
I1
I1
I1
I1
I1
I1
I1
I1
I1
I1
I1
I1
I1
I1
I0
I0
I0
I0
I0
I0
I0
I0
I0
I0
I0
I0
I0
I0
I0
I0
I0
I0
I0
I0
I0
I0
I0
I0
I0
I0
I0
I0
I0
I0
I0
I0
I0
I0
I0
I0
I0
I0
I0
I0
I0
I0
I0
I0
I0
I0
I0
I0
I0
I0
I0
I0
I0
I0
I0
I0
I0
I0
I0
I0
I0
I0
I0
I0
I0
I0
I0
I0
I0
I0
I0
tp100
g80
tp101
F0.047619047619047616
s((I0
I0
I1
I0
I1
I1
I1
I1
I1
I1
I1
I1
I1
I1
I1
I1
I1
I1
I1
I1
I1
I1
I1
I1
I1
I1
I1
I1
I1
I1
I1
I1
I1
I1
I0
I0
I0
I0
I0
I0
I0
I0
I0
I0
I0
I0
I0
I0
I0
I0
I0
I0
I0
I0
I0
I0
I0
I0
I0
I0
I0
I0
I0
I0
I0
I0
I0
I0
I0
I0
I0
I0
I0
I0
I0
I0
I0
I0
I0
I0
I0
I0
I0
I0
I0
I0
I0
I0
I0
I0
I0
I0
I0
I0
I0
I0
I0
I0
I0
I0
I0
I0
I0
I0
tp102
S'stay-short'
p103
tp104
g4
(g8
S'\xd2\xd2U_M\xf1\xff?'
p105
tp106
Rp107
s((I0
I0
I1
I0
I1
I1
I1
I1
I1
I1
I1
I1
I1
I1
I1
I1
I1
I1
I1
I1
I1
I1
I1
I1
I1
I1
I1
I0
I0
I0
I0
I0
I0
I0
I0
I0
I0
I0
I0
I0
I0
I0
I0
I0
I0
I0
I0
I0
I0
I0
I0
I0
I0
I0
I0
I0
I0
I0
I0
I0
I0
I0
I0
I0
I0
I0
I0
I0
I0
I0
I0
I0
I0
I0
I0
I0
I0
I0
I0
I0
I0
I0
I0
I0
I0
I0
I0
I0
I0
I0
I0
I0
I0
I0
I0
I0
I0
I0
I0
I0
I0
I0
I0
I0
tp108
g103
tp109
g4
(g8
S'c\r|N\xf3\x1e\xfd?'
p110
tp111
Rp112
s((I0
I1
I0
I0
I1
I1
I1
I1
I1
I1
I1
I1
I1
I1
I1
I1
I1
I1
I1
I1
I1
I1
I1
I1
I1
I1
I1
I0
I0
I0
I0
I0
I0
I0
I0
I0
I0
I0
I0
I0
I0
I0
I0
I0
I0
I0
I0
I0
I0
I0
I0
I0
I0
I0
I0
I0
I0
I0
I0
I0
I0
I0
I0
I0
I0
I0
I0
I0
I0
I0
I0
I0
I0
I0
I0
I0
I0
I0
I0
I0
I0
I0
I0
I0
I0
I0
I0
I0
I0
I0
I0
I0
I0
I0
I0
I0
I0
I0
I0
I0
I0
I0
I0
I0
tp113
g31
tp114
g4
(g8
S'\xd1$DS\x1d\x1b\xdf?'
p115
tp116
Rp117
s((I0
I0
I1
I0
I1
I1
I1
I1
I1
I1
I1
I1
I1
I1
I1
I1
I1
I1
I1
I1
I1
I1
I1
I0
I0
I0
I0
I0
I0
I0
I0
I0
I0
I0
I0
I0
I0
I0
I0
I0
I0
I0
I0
I0
I0
I0
I0
I0
I0
I0
I0
I0
I0
I0
I0
I0
I0
I0
I0
I0
I0
I0
I0
I0
I0
I0
I0
I0
I0
I0
I0
I0
I0
I0
I0
I0
I0
I0
I0
I0
I0
I0
I0
I0
I0
I0
I0
I0
I0
I0
I0
I0
I0
I0
I0
I0
I0
I0
I0
I0
I0
I0
I0
I0
tp118
g103
tp119
g4
(g8
S'4\xaa\x8d\x0c=\x18\xfc?'
p120
tp121
Rp122
s((I0
I0
I1
I0
I1
I1
I1
I1
I1
I1
I1
I1
I1
I1
I1
I1
I1
I1
I1
I1
I1
I1
I1
I0
I0
I0
I0
I0
I0
I0
I0
I0
I0
I0
I0
I0
I0
I0
I0
I0
I0
I0
I0
I0
I0
I0
I0
I0
I0
I0
I0
I0
I0
I0
I0
I0
I0
I0
I0
I0
I0
I0
I0
I0
I0
I0
I0
I0
I0
I0
I0
I0
I0
I0
I0
I0
I0
I0
I0
I0
I0
I0
I0
I0
I0
I0
I0
I0
I0
I0
I0
I0
I0
I0
I0
I0
I0
I0
I0
I0
I0
I0
I0
I0
tp123
g74
tp124
g4
(g8
S'\xbd\xa5?\xdb:\xf2\xe2?'
p125
tp126
Rp127
s((I1
I0
I0
I0
I1
I1
I1
I1
I1
I1
I1
I1
I1
I1
I1
I1
I1
I1
I1
I1
I1
I1
I1
I1
I1
I1
I1
I1
I1
I1
I1
I1
I1
I1
I0
I0
I0
I0
I0
I0
I0
I0
I0
I0
I0
I0
I0
I0
I0
I0
I0
I0
I0
I0
I0
I0
I0
I0
I0
I0
I0
I0
I0
I0
I0
I0
I0
I0
I0
I0
I0
I0
I0
I0
I0
I0
I0
I0
I0
I0
I0
I0
I0
I0
I0
I0
I0
I0
I0
I0
I0
I0
I0
I0
I0
I0
I0
I0
I0
I0
I0
I0
I0
I0
tp128
g80
tp129
g4
(g8
S'{R\xbf\x1a44\xff?'
p130
tp131
Rp132
s((I0
I1
I0
I0
I1
I1
I1
I1
I1
I1
I1
I1
I1
I1
I1
I1
I1
I1
I1
I1
I1
I1
I1
I1
I1
I1
I1
I1
I1
I1
I1
I1
I1
I1
I1
I1
I1
I1
I1
I1
I1
I1
I1
I1
I0
I0
I0
I0
I0
I0
I0
I0
I0
I0
I0
I0
I0
I0
I0
I0
I0
I0
I0
I0
I0
I0
I0
I0
I0
I0
I0
I0
I0
I0
I0
I0
I0
I0
I0
I0
I0
I0
I0
I0
I0
I0
I0
I0
I0
I0
I0
I0
I0
I0
I0
I0
I0
I0
I0
I0
I0
I0
I0
I0
tp133
g2
tp134
g4
(g8
S'F\xdb\x88x\xcb\\\x01@'
p135
tp136
Rp137
s((I0
I0
I1
I0
I1
I1
I1
I1
I1
I1
I1
I1
I1
I1
I1
I1
I1
I1
I1
I1
I1
I1
I1
I1
I1
I1
I1
I1
I1
I1
I1
I1
I1
I1
I1
I1
I1
I1
I1
I1
I1
I1
I1
I0
I0
I0
I0
I0
I0
I0
I0
I0
I0
I0
I0
I0
I0
I0
I0
I0
I0
I0
I0
I0
I0
I0
I0
I0
I0
I0
I0
I0
I0
I0
I0
I0
I0
I0
I0
I0
I0
I0
I0
I0
I0
I0
I0
I0
I0
I0
I0
I0
I0
I0
I0
I0
I0
I0
I0
I0
I0
I0
I0
I0
tp138
g103
tp139
g4
(g8
S'\xbb\xf0\xff\xfe\xd7\x8f\x00@'
p140
tp141
Rp142
s((I1
I0
I0
I0
I1
I1
I1
I1
I1
I1
I1
I1
I1
I1
I1
I1
I1
I1
I1
I1
I1
I1
I1
I1
I1
I1
I1
I1
I1
I1
I1
I1
I1
I1
I1
I1
I1
I1
I1
I1
I1
I1
I1
I1
I1
I1
I1
I1
I1
I1
I1
I1
I0
I0
I0
I0
I0
I0
I0
I0
I0
I0
I0
I0
I0
I0
I0
I0
I0
I0
I0
I0
I0
I0
I0
I0
I0
I0
I0
I0
I0
I0
I0
I0
I0
I0
I0
I0
I0
I0
I0
I0
I0
I0
I0
I0
I0
I0
I0
I0
I0
I0
I0
I0
tp143
g20
tp144
g4
(g8
S'\x1b\x15\xaa\x9e[(\xd3?'
p145
tp146
Rp147
s((I0
I0
I1
I0
I1
I1
I1
I1
I1
I1
I1
I1
I1
I1
I1
I1
I1
I1
I1
I1
I1
I1
I1
I1
I1
I1
I1
I1
I1
I1
I1
I1
I1
I1
I1
I1
I1
I1
I1
I1
I1
I1
I1
I1
I1
I1
I1
I1
I1
I1
I1
I1
I1
I1
I1
I1
I1
I1
I1
I1
I1
I1
I0
I0
I0
I0
I0
I0
I0
I0
I0
I0
I0
I0
I0
I0
I0
I0
I0
I0
I0
I0
I0
I0
I0
I0
I0
I0
I0
I0
I0
I0
I0
I0
I0
I0
I0
I0
I0
I0
I0
I0
I0
I0
tp148
g103
tp149
g4
(g8
S'\xb7\xe9\x84\x8cZt\x00@'
p150
tp151
Rp152
s((I1
I0
I0
I0
I1
I1
I1
I1
I1
I1
I1
I1
I1
I1
I1
I1
I1
I1
I1
I1
I0
I0
I0
I0
I0
I0
I0
I0
I0
I0
I0
I0
I0
I0
I0
I0
I0
I0
I0
I0
I0
I0
I0
I0
I0
I0
I0
I0
I0
I0
I0
I0
I0
I0
I0
I0
I0
I0
I0
I0
I0
I0
I0
I0
I0
I0
I0
I0
I0
I0
I0
I0
I0
I0
I0
I0
I0
I0
I0
I0
I0
I0
I0
I0
I0
I0
I0
I0
I0
I0
I0
I0
I0
I0
I0
I0
I0
I0
I0
I0
I0
I0
I0
I0
tp153
g20
tp154
g4
(g8
S'A\xc0\x04hv|\xd8?'
p155
tp156
Rp157
s((I0
I1
I0
I0
I1
I1
I1
I1
I1
I1
I1
I1
I1
I1
I1
I1
I1
I1
I1
I1
I1
I1
I1
I1
I1
I1
I1
I1
I1
I1
I1
I1
I1
I1
I1
I1
I1
I1
I1
I1
I1
I1
I1
I0
I0
I0
I0
I0
I0
I0
I0
I0
I0
I0
I0
I0
I0
I0
I0
I0
I0
I0
I0
I0
I0
I0
I0
I0
I0
I0
I0
I0
I0
I0
I0
I0
I0
I0
I0
I0
I0
I0
I0
I0
I0
I0
I0
I0
I0
I0
I0
I0
I0
I0
I0
I0
I0
I0
I0
I0
I0
I0
I0
I0
tp158
g31
tp159
g4
(g8
S'iy\x90%\x99\xe1\x02@'
p160
tp161
Rp162
s((I0
I0
I1
I0
I1
I1
I1
I1
I1
I0
I0
I0
I0
I0
I0
I0
I0
I0
I0
I0
I0
I0
I0
I0
I0
I0
I0
I0
I0
I0
I0
I0
I0
I0
I0
I0
I0
I0
I0
I0
I0
I0
I0
I0
I0
I0
I0
I0
I0
I0
I0
I0
I0
I0
I0
I0
I0
I0
I0
I0
I0
I0
I0
I0
I0
I0
I0
I0
I0
I0
I0
I0
I0
I0
I0
I0
I0
I0
I0
I0
I0
I0
I0
I0
I0
I0
I0
I0
I0
I0
I0
I0
I0
I0
I0
I0
I0
I0
I0
I0
I0
I0
I0
I0
tp163
g74
tp164
g4
(g8
S'\x8b\x03\x1a:<%\xc8?'
p165
tp166
Rp167
s((I0
I1
I0
I0
I1
I1
I1
I1
I1
I1
I1
I1
I1
I1
I1
I1
I1
I1
I1
I1
I1
I1
I1
I1
I1
I1
I1
I1
I1
I1
I1
I1
I1
I1
I1
I0
I0
I0
I0
I0
I0
I0
I0
I0
I0
I0
I0
I0
I0
I0
I0
I0
I0
I0
I0
I0
I0
I0
I0
I0
I0
I0
I0
I0
I0
I0
I0
I0
I0
I0
I0
I0
I0
I0
I0
I0
I0
I0
I0
I0
I0
I0
I0
I0
I0
I0
I0
I0
I0
I0
I0
I0
I0
I0
I0
I0
I0
I0
I0
I0
I0
I0
I0
I0
tp168
g31
tp169
g4
(g8
S'\xab\xfdb_]\xc8\x02@'
p170
tp171
Rp172
s((I0
I1
I0
I0
I1
I1
I1
I1
I1
I1
I1
I1
I1
I1
I1
I1
I1
I1
I1
I0
I0
I0
I0
I0
I0
I0
I0
I0
I0
I0
I0
I0
I0
I0
I0
I0
I0
I0
I0
I0
I0
I0
I0
I0
I0
I0
I0
I0
I0
I0
I0
I0
I0
I0
I0
I0
I0
I0
I0
I0
I0
I0
I0
I0
I0
I0
I0
I0
I0
I0
I0
I0
I0
I0
I0
I0
I0
I0
I0
I0
I0
I0
I0
I0
I0
I0
I0
I0
I0
I0
I0
I0
I0
I0
I0
I0
I0
I0
I0
I0
I0
I0
I0
I0
tp173
g2
tp174
g4
(g8
S'-\xf6\xc2\xe0/"\xf8?'
p175
tp176
Rp177
s((I0
I0
I1
I0
I1
I1
I1
I1
I1
I1
I1
I1
I1
I1
I1
I1
I1
I1
I1
I1
I1
I1
I1
I1
I1
I1
I1
I0
I0
I0
I0
I0
I0
I0
I0
I0
I0
I0
I0
I0
I0
I0
I0
I0
I0
I0
I0
I0
I0
I0
I0
I0
I0
I0
I0
I0
I0
I0
I0
I0
I0
I0
I0
I0
I0
I0
I0
I0
I0
I0
I0
I0
I0
I0
I0
I0
I0
I0
I0
I0
I0
I0
I0
I0
I0
I0
I0
I0
I0
I0
I0
I0
I0
I0
I0
I0
I0
I0
I0
I0
I0
I0
I0
I0
tp178
g74
tp179
g4
(g8
S'\xf8zw\xbd\xdd\x0c\xf9?'
p180
tp181
Rp182
s((I0
I0
I0
I1
I1
I1
I1
I1
I1
I1
I1
I1
I1
I1
I1
I1
I1
I1
I1
I1
I1
I1
I1
I1
I1
I1
I1
I1
I1
I1
I1
I1
I1
I1
I1
I1
I1
I1
I1
I1
I1
I1
I1
I1
I1
I1
I1
I1
I1
I1
I0
I0
I0
I0
I0
I0
I0
I0
I0
I0
I0
I0
I0
I0
I0
I0
I0
I0
I0
I0
I0
I0
I0
I0
I0
I0
I0
I0
I0
I0
I0
I0
I0
I0
I0
I0
I0
I0
I0
I0
I0
I0
I0
I0
I0
I0
I0
I0
I0
I0
I0
I0
I0
I0
tp183
g63
tp184
g4
(g8
S'%\xae\x85\xa6*k\x00@'
p185
tp186
Rp187
s((I0
I0
I1
I0
I1
I1
I1
I1
I1
I1
I1
I1
I1
I1
I1
I1
I1
I1
I1
I1
I1
I1
I1
I1
I1
I1
I1
I1
I1
I1
I1
I1
I1
I1
I1
I1
I1
I1
I1
I1
I1
I1
I1
I1
I1
I1
I1
I1
I1
I1
I1
I1
I0
I0
I0
I0
I0
I0
I0
I0
I0
I0
I0
I0
I0
I0
I0
I0
I0
I0
I0
I0
I0
I0
I0
I0
I0
I0
I0
I0
I0
I0
I0
I0
I0
I0
I0
I0
I0
I0
I0
I0
I0
I0
I0
I0
I0
I0
I0
I0
I0
I0
I0
I0
tp188
g103
tp189
g4
(g8
S'\x05\xaf\x05(\xdcF\x01@'
p190
tp191
Rp192
s((I0
I0
I1
I0
I1
I1
I1
I1
I1
I1
I1
I1
I1
I1
I1
I1
I1
I1
I1
I1
I1
I1
I1
I1
I1
I1
I1
I1
I1
I1
I1
I1
I1
I1
I1
I1
I1
I1
I1
I1
I1
I1
I1
I1
I1
I1
I1
I1
I1
I1
I1
I1
I1
I1
I1
I1
I1
I1
I1
I1
I1
I1
I1
I1
I1
I1
I1
I1
I1
I1
I1
I1
I1
I1
I1
I1
I1
I0
I0
I0
I0
I0
I0
I0
I0
I0
I0
I0
I0
I0
I0
I0
I0
I0
I0
I0
I0
I0
I0
I0
I0
I0
I0
I0
tp193
g103
tp194
F0.2222222222222222
s((I0
I0
I0
I1
I1
I1
I1
I1
I1
I1
I1
I1
I1
I1
I1
I1
I1
I1
I1
I1
I1
I1
I1
I1
I1
I1
I1
I1
I1
I1
I1
I1
I1
I1
I1
I1
I1
I1
I1
I1
I1
I1
I1
I1
I1
I1
I1
I1
I1
I1
I1
I1
I1
I1
I1
I1
I1
I1
I1
I1
I1
I1
I1
I1
I1
I1
I1
I1
I1
I1
I1
I1
I1
I1
I0
I0
I0
I0
I0
I0
I0
I0
I0
I0
I0
I0
I0
I0
I0
I0
I0
I0
I0
I0
I0
I0
I0
I0
I0
I0
I0
I0
I0
I0
tp195
g63
tp196
g4
(g8
S'\x8a`!\x10_6\x01@'
p197
tp198
Rp199
s((I0
I0
I1
I0
I1
I1
I1
I1
I1
I1
I1
I1
I1
I1
I1
I1
I1
I1
I1
I1
I1
I1
I1
I1
I1
I1
I1
I1
I1
I1
I1
I1
I1
I1
I1
I1
I1
I1
I1
I1
I1
I1
I1
I1
I1
I1
I1
I1
I1
I1
I1
I1
I1
I1
I1
I1
I1
I1
I1
I1
I1
I1
I1
I1
I1
I1
I1
I1
I1
I1
I1
I1
I1
I1
I1
I1
I1
I1
I1
I1
I1
I1
I0
I0
I0
I0
I0
I0
I0
I0
I0
I0
I0
I0
I0
I0
I0
I0
I0
I0
I0
I0
I0
I0
tp200
g74
tp201
F0.2777777777777778
s((I0
I0
I0
I1
I1
I1
I1
I1
I1
I1
I1
I1
I1
I1
I1
I1
I1
I1
I1
I1
I1
I1
I1
I1
I1
I1
I1
I1
I1
I1
I1
I1
I1
I1
I1
I1
I1
I1
I1
I1
I1
I1
I1
I1
I1
I1
I1
I1
I1
I1
I1
I1
I1
I1
I1
I1
I1
I1
I1
I1
I1
I1
I0
I0
I0
I0
I0
I0
I0
I0
I0
I0
I0
I0
I0
I0
I0
I0
I0
I0
I0
I0
I0
I0
I0
I0
I0
I0
I0
I0
I0
I0
I0
I0
I0
I0
I0
I0
I0
I0
I0
I0
I0
I0
tp202
g63
tp203
g4
(g8
S'\x97\x91\xcc\x0cF\xc3\x01@'
p204
tp205
Rp206
s((I1
I0
I0
I0
I1
I1
I1
I1
I1
I1
I1
I1
I1
I1
I1
I1
I1
I1
I1
I1
I1
I1
I1
I1
I1
I1
I1
I1
I1
I1
I1
I1
I1
I0
I0
I0
I0
I0
I0
I0
I0
I0
I0
I0
I0
I0
I0
I0
I0
I0
I0
I0
I0
I0
I0
I0
I0
I0
I0
I0
I0
I0
I0
I0
I0
I0
I0
I0
I0
I0
I0
I0
I0
I0
I0
I0
I0
I0
I0
I0
I0
I0
I0
I0
I0
I0
I0
I0
I0
I0
I0
I0
I0
I0
I0
I0
I0
I0
I0
I0
I0
I0
I0
I0
tp207
g20
tp208
g4
(g8
S'u\x96\xb1\xf1\x06\xe3\xe7?'
p209
tp210
Rp211
s((I1
I0
I0
I0
I1
I1
I1
I1
I1
I1
I1
I1
I1
I1
I0
I0
I0
I0
I0
I0
I0
I0
I0
I0
I0
I0
I0
I0
I0
I0
I0
I0
I0
I0
I0
I0
I0
I0
I0
I0
I0
I0
I0
I0
I0
I0
I0
I0
I0
I0
I0
I0
I0
I0
I0
I0
I0
I0
I0
I0
I0
I0
I0
I0
I0
I0
I0
I0
I0
I0
I0
I0
I0
I0
I0
I0
I0
I0
I0
I0
I0
I0
I0
I0
I0
I0
I0
I0
I0
I0
I0
I0
I0
I0
I0
I0
I0
I0
I0
I0
I0
I0
I0
I0
tp212
g20
tp213
g4
(g8
S'\x9b\xed\x9d\x94\x9e\x9e\xf7?'
p214
tp215
Rp216
s((I0
I0
I0
I1
I1
I1
I1
I1
I1
I1
I1
I1
I1
I1
I1
I1
I1
I1
I1
I1
I1
I1
I1
I1
I1
I1
I1
I1
I1
I1
I1
I1
I1
I1
I1
I1
I1
I1
I1
I1
I1
I1
I1
I1
I1
I1
I1
I1
I1
I1
I1
I1
I1
I1
I0
I0
I0
I0
I0
I0
I0
I0
I0
I0
I0
I0
I0
I0
I0
I0
I0
I0
I0
I0
I0
I0
I0
I0
I0
I0
I0
I0
I0
I0
I0
I0
I0
I0
I0
I0
I0
I0
I0
I0
I0
I0
I0
I0
I0
I0
I0
I0
I0
I0
tp217
g63
tp218
g4
(g8
S'\xbfi^\xf9n>\x01@'
p219
tp220
Rp221
s((I1
I0
I0
I0
I1
I1
I1
I1
I1
I1
I1
I1
I1
I1
I1
I1
I1
I1
I1
I1
I1
I1
I1
I1
I1
I1
I1
I1
I1
I1
I1
I1
I1
I1
I0
I0
I0
I0
I0
I0
I0
I0
I0
I0
I0
I0
I0
I0
I0
I0
I0
I0
I0
I0
I0
I0
I0
I0
I0
I0
I0
I0
I0
I0
I0
I0
I0
I0
I0
I0
I0
I0
I0
I0
I0
I0
I0
I0
I0
I0
I0
I0
I0
I0
I0
I0
I0
I0
I0
I0
I0
I0
I0
I0
I0
I0
I0
I0
I0
I0
I0
I0
I0
I0
tp222
g20
tp223
g4
(g8
S'\x83\xa6<\x03B\xdf\xe1?'
p224
tp225
Rp226
s((I1
I0
I0
I0
I1
I1
I1
I1
I1
I1
I1
I1
I1
I1
I1
I1
I1
I1
I1
I1
I1
I1
I1
I1
I1
I1
I1
I0
I0
I0
I0
I0
I0
I0
I0
I0
I0
I0
I0
I0
I0
I0
I0
I0
I0
I0
I0
I0
I0
I0
I0
I0
I0
I0
I0
I0
I0
I0
I0
I0
I0
I0
I0
I0
I0
I0
I0
I0
I0
I0
I0
I0
I0
I0
I0
I0
I0
I0
I0
I0
I0
I0
I0
I0
I0
I0
I0
I0
I0
I0
I0
I0
I0
I0
I0
I0
I0
I0
I0
I0
I0
I0
I0
I0
tp227
g20
tp228
g4
(g8
S'8\xe6KJ; \x02@'
p229
tp230
Rp231
s((I0
I0
I1
I0
I1
I1
I1
I1
I1
I1
I1
I1
I1
I1
I1
I1
I1
I1
I1
I1
I1
I1
I1
I1
I1
I1
I1
I1
I1
I1
I1
I1
I1
I1
I1
I1
I1
I1
I1
I1
I1
I1
I1
I1
I1
I1
I1
I1
I1
I1
I1
I1
I1
I1
I1
I1
I1
I1
I1
I1
I1
I1
I1
I1
I1
I1
I0
I0
I0
I0
I0
I0
I0
I0
I0
I0
I0
I0
I0
I0
I0
I0
I0
I0
I0
I0
I0
I0
I0
I0
I0
I0
I0
I0
I0
I0
I0
I0
I0
I0
I0
I0
I0
I0
tp232
g74
tp233
g4
(g8
S'P{\xcd\xa6\xec\x17\x00@'
p234
tp235
Rp236
s((I0
I1
I0
I0
I1
I1
I1
I1
I1
I1
I1
I1
I1
I1
I1
I1
I1
I1
I1
I1
I1
I1
I1
I1
I1
I1
I1
I1
I1
I1
I1
I1
I1
I1
I1
I1
I1
I1
I1
I1
I1
I1
I1
I1
I1
I1
I1
I1
I1
I1
I1
I1
I0
I0
I0
I0
I0
I0
I0
I0
I0
I0
I0
I0
I0
I0
I0
I0
I0
I0
I0
I0
I0
I0
I0
I0
I0
I0
I0
I0
I0
I0
I0
I0
I0
I0
I0
I0
I0
I0
I0
I0
I0
I0
I0
I0
I0
I0
I0
I0
I0
I0
I0
I0
tp237
g2
tp238
g4
(g8
S"\x9a\xf9'\xc4p\\\x00@"
p239
tp240
Rp241
s((I0
I1
I0
I0
I1
I1
I1
I1
I1
I1
I1
I1
I1
I1
I1
I1
I1
I1
I1
I1
I1
I1
I1
I1
I1
I1
I1
I1
I1
I1
I1
I1
I1
I1
I1
I1
I1
I1
I1
I1
I1
I1
I1
I1
I1
I1
I1
I1
I1
I0
I0
I0
I0
I0
I0
I0
I0
I0
I0
I0
I0
I0
I0
I0
I0
I0
I0
I0
I0
I0
I0
I0
I0
I0
I0
I0
I0
I0
I0
I0
I0
I0
I0
I0
I0
I0
I0
I0
I0
I0
I0
I0
I0
I0
I0
I0
I0
I0
I0
I0
I0
I0
I0
I0
tp242
g2
tp243
g4
(g8
S'\xbb\x11D5?\xe9\x00@'
p244
tp245
Rp246
s((I1
I0
I0
I0
I1
I1
I1
I1
I1
I1
I1
I1
I1
I1
I1
I1
I1
I1
I1
I1
I1
I1
I1
I1
I1
I1
I1
I1
I1
I1
I1
I1
I1
I1
I1
I1
I1
I1
I1
I1
I1
I0
I0
I0
I0
I0
I0
I0
I0
I0
I0
I0
I0
I0
I0
I0
I0
I0
I0
I0
I0
I0
I0
I0
I0
I0
I0
I0
I0
I0
I0
I0
I0
I0
I0
I0
I0
I0
I0
I0
I0
I0
I0
I0
I0
I0
I0
I0
I0
I0
I0
I0
I0
I0
I0
I0
I0
I0
I0
I0
I0
I0
I0
I0
tp247
g20
tp248
g4
(g8
S'C\x9a\xccn\xf1\x99\xe9?'
p249
tp250
Rp251
s((I0
I1
I0
I0
I1
I1
I1
I1
I1
I1
I1
I1
I1
I1
I1
I1
I1
I1
I1
I1
I1
I1
I1
I1
I1
I1
I1
I1
I1
I1
I1
I1
I1
I1
I1
I1
I1
I1
I1
I1
I1
I0
I0
I0
I0
I0
I0
I0
I0
I0
I0
I0
I0
I0
I0
I0
I0
I0
I0
I0
I0
I0
I0
I0
I0
I0
I0
I0
I0
I0
I0
I0
I0
I0
I0
I0
I0
I0
I0
I0
I0
I0
I0
I0
I0
I0
I0
I0
I0
I0
I0
I0
I0
I0
I0
I0
I0
I0
I0
I0
I0
I0
I0
I0
tp252
g31
tp253
g4
(g8
S'\x15,\xf2\x96\x81\xac\x03@'
p254
tp255
Rp256
s((I1
I0
I0
I0
I1
I1
I1
I1
I1
I1
I1
I1
I1
I1
I1
I1
I1
I1
I1
I1
I1
I1
I1
I1
I0
I0
I0
I0
I0
I0
I0
I0
I0
I0
I0
I0
I0
I0
I0
I0
I0
I0
I0
I0
I0
I0
I0
I0
I0
I0
I0
I0
I0
I0
I0
I0
I0
I0
I0
I0
I0
I0
I0
I0
I0
I0
I0
I0
I0
I0
I0
I0
I0
I0
I0
I0
I0
I0
I0
I0
I0
I0
I0
I0
I0
I0
I0
I0
I0
I0
I0
I0
I0
I0
I0
I0
I0
I0
I0
I0
I0
I0
I0
I0
tp257
g20
tp258
g4
(g8
S'\xa8\xc2\xec\xac\xeb\xf3\xfd?'
p259
tp260
Rp261
s((I1
I0
I0
I0
I1
I1
I1
I1
I1
I1
I1
I1
I1
I1
I1
I1
I1
I1
I1
I1
I1
I1
I1
I1
I1
I1
I1
I1
I1
I1
I1
I1
I1
I1
I1
I1
I1
I1
I1
I0
I0
I0
I0
I0
I0
I0
I0
I0
I0
I0
I0
I0
I0
I0
I0
I0
I0
I0
I0
I0
I0
I0
I0
I0
I0
I0
I0
I0
I0
I0
I0
I0
I0
I0
I0
I0
I0
I0
I0
I0
I0
I0
I0
I0
I0
I0
I0
I0
I0
I0
I0
I0
I0
I0
I0
I0
I0
I0
I0
I0
I0
I0
I0
I0
tp262
g80
tp263
g4
(g8
S'Z\xb2\xcdW\x00\x96\xe9?'
p264
tp265
Rp266
s((I0
I1
I0
I0
I1
I1
I1
I1
I1
I1
I1
I1
I1
I1
I1
I1
I1
I1
I1
I1
I1
I1
I1
I1
I1
I1
I1
I1
I1
I1
I1
I1
I1
I1
I1
I1
I0
I0
I0
I0
I0
I0
I0
I0
I0
I0
I0
I0
I0
I0
I0
I0
I0
I0
I0
I0
I0
I0
I0
I0
I0
I0
I0
I0
I0
I0
I0
I0
I0
I0
I0
I0
I0
I0
I0
I0
I0
I0
I0
I0
I0
I0
I0
I0
I0
I0
I0
I0
I0
I0
I0
I0
I0
I0
I0
I0
I0
I0
I0
I0
I0
I0
I0
I0
tp267
g2
tp268
g4
(g8
S"P\x83\xc9\xe0V'\xff?"
p269
tp270
Rp271
s((I0
I1
I0
I0
I1
I1
I1
I1
I1
I1
I1
I1
I1
I1
I1
I1
I1
I1
I1
I1
I1
I1
I1
I1
I1
I1
I1
I1
I1
I1
I1
I1
I1
I1
I1
I1
I1
I1
I1
I1
I1
I1
I1
I1
I1
I1
I1
I1
I1
I1
I1
I1
I1
I1
I1
I1
I1
I1
I1
I1
I1
I1
I1
I1
I0
I0
I0
I0
I0
I0
I0
I0
I0
I0
I0
I0
I0
I0
I0
I0
I0
I0
I0
I0
I0
I0
I0
I0
I0
I0
I0
I0
I0
I0
I0
I0
I0
I0
I0
I0
I0
I0
I0
I0
tp272
g2
tp273
g4
(g8
S'!W\x0b\xb4Z\x93\xa4?'
p274
tp275
Rp276
s((I0
I1
I0
I0
I1
I1
I1
I1
I1
I1
I1
I1
I1
I1
I1
I1
I1
I1
I1
I1
I1
I1
I1
I1
I1
I1
I1
I1
I1
I1
I1
I1
I1
I1
I1
I1
I1
I1
I1
I1
I1
I1
I1
I1
I1
I1
I1
I1
I1
I1
I1
I1
I1
I1
I1
I1
I1
I1
I1
I1
I1
I1
I1
I1
I1
I0
I0
I0
I0
I0
I0
I0
I0
I0
I0
I0
I0
I0
I0
I0
I0
I0
I0
I0
I0
I0
I0
I0
I0
I0
I0
I0
I0
I0
I0
I0
I0
I0
I0
I0
I0
I0
I0
I0
tp277
g2
tp278
g4
(g8
S'\xc4\xcc\xe7\xff\x18\x8d\x02@'
p279
tp280
Rp281
s((I0
I0
I1
I0
I1
I1
I1
I1
I1
I1
I1
I1
I1
I1
I1
I1
I1
I1
I1
I1
I1
I1
I1
I1
I0
I0
I0
I0
I0
I0
I0
I0
I0
I0
I0
I0
I0
I0
I0
I0
I0
I0
I0
I0
I0
I0
I0
I0
I0
I0
I0
I0
I0
I0
I0
I0
I0
I0
I0
I0
I0
I0
I0
I0
I0
I0
I0
I0
I0
I0
I0
I0
I0
I0
I0
I0
I0
I0
I0
I0
I0
I0
I0
I0
I0
I0
I0
I0
I0
I0
I0
I0
I0
I0
I0
I0
I0
I0
I0
I0
I0
I0
I0
I0
tp282
g103
tp283
g4
(g8
S'T\xc0H\xd3D\xfd\xfa?'
p284
tp285
Rp286
s((I1
I0
I0
I0
I1
I1
I1
I1
I1
I1
I1
I1
I1
I1
I1
I1
I1
I1
I1
I1
I1
I1
I1
I1
I1
I1
I1
I0
I0
I0
I0
I0
I0
I0
I0
I0
I0
I0
I0
I0
I0
I0
I0
I0
I0
I0
I0
I0
I0
I0
I0
I0
I0
I0
I0
I0
I0
I0
I0
I0
I0
I0
I0
I0
I0
I0
I0
I0
I0
I0
I0
I0
I0
I0
I0
I0
I0
I0
I0
I0
I0
I0
I0
I0
I0
I0
I0
I0
I0
I0
I0
I0
I0
I0
I0
I0
I0
I0
I0
I0
I0
I0
I0
I0
tp287
g37
tp288
g4
(g8
S'MT?C\xeb/\x00@'
p289
tp290
Rp291
s((I0
I1
I0
I0
I1
I1
I1
I1
I1
I1
I1
I1
I1
I1
I1
I1
I1
I1
I1
I1
I1
I1
I1
I1
I1
I1
I1
I1
I1
I1
I1
I1
I1
I1
I1
I1
I1
I1
I1
I1
I1
I1
I1
I1
I1
I0
I0
I0
I0
I0
I0
I0
I0
I0
I0
I0
I0
I0
I0
I0
I0
I0
I0
I0
I0
I0
I0
I0
I0
I0
I0
I0
I0
I0
I0
I0
I0
I0
I0
I0
I0
I0
I0
I0
I0
I0
I0
I0
I0
I0
I0
I0
I0
I0
I0
I0
I0
I0
I0
I0
I0
I0
I0
I0
tp292
g2
tp293
g4
(g8
S'{\x9c\xec\x17\xae4\x00@'
p294
tp295
Rp296
s((I0
I0
I1
I0
I1
I1
I1
I1
I1
I1
I1
I1
I1
I1
I1
I1
I1
I1
I1
I1
I1
I1
I1
I1
I1
I1
I1
I1
I1
I0
I0
I0
I0
I0
I0
I0
I0
I0
I0
I0
I0
I0
I0
I0
I0
I0
I0
I0
I0
I0
I0
I0
I0
I0
I0
I0
I0
I0
I0
I0
I0
I0
I0
I0
I0
I0
I0
I0
I0
I0
I0
I0
I0
I0
I0
I0
I0
I0
I0
I0
I0
I0
I0
I0
I0
I0
I0
I0
I0
I0
I0
I0
I0
I0
I0
I0
I0
I0
I0
I0
I0
I0
I0
I0
tp297
g103
tp298
g4
(g8
S'\xd1\x01D_\x1f\xaf\xe5?'
p299
tp300
Rp301
s((I1
I0
I0
I0
I1
I1
I1
I1
I1
I1
I1
I1
I1
I1
I0
I0
I0
I0
I0
I0
I0
I0
I0
I0
I0
I0
I0
I0
I0
I0
I0
I0
I0
I0
I0
I0
I0
I0
I0
I0
I0
I0
I0
I0
I0
I0
I0
I0
I0
I0
I0
I0
I0
I0
I0
I0
I0
I0
I0
I0
I0
I0
I0
I0
I0
I0
I0
I0
I0
I0
I0
I0
I0
I0
I0
I0
I0
I0
I0
I0
I0
I0
I0
I0
I0
I0
I0
I0
I0
I0
I0
I0
I0
I0
I0
I0
I0
I0
I0
I0
I0
I0
I0
I0
tp302
g80
tp303
g4
(g8
S'\x8aU\x0c\x90\xf0\xff\xf7?'
p304
tp305
Rp306
s((I1
I0
I0
I0
I1
I1
I1
I1
I1
I1
I1
I1
I1
I1
I1
I1
I1
I1
I1
I1
I1
I1
I1
I1
I1
I1
I1
I1
I1
I1
I1
I1
I1
I1
I1
I1
I1
I1
I1
I1
I1
I1
I1
I1
I1
I1
I1
I0
I0
I0
I0
I0
I0
I0
I0
I0
I0
I0
I0
I0
I0
I0
I0
I0
I0
I0
I0
I0
I0
I0
I0
I0
I0
I0
I0
I0
I0
I0
I0
I0
I0
I0
I0
I0
I0
I0
I0
I0
I0
I0
I0
I0
I0
I0
I0
I0
I0
I0
I0
I0
I0
I0
I0
I0
tp307
g37
tp308
g4
(g8
S'\x89\x15\x8c\xbc]\xde\xcd?'
p309
tp310
Rp311
s((I0
I0
I1
I0
I1
I1
I1
I1
I1
I1
I1
I1
I1
I1
I1
I1
I1
I1
I1
I1
I1
I1
I1
I1
I1
I1
I1
I1
I1
I1
I1
I1
I1
I1
I1
I1
I1
I1
I1
I1
I1
I1
I1
I1
I1
I1
I1
I1
I1
I1
I1
I1
I1
I1
I1
I1
I1
I1
I1
I1
I1
I1
I1
I1
I1
I1
I1
I1
I1
I1
I1
I0
I0
I0
I0
I0
I0
I0
I0
I0
I0
I0
I0
I0
I0
I0
I0
I0
I0
I0
I0
I0
I0
I0
I0
I0
I0
I0
I0
I0
I0
I0
I0
I0
tp312
g74
tp313
g4
(g8
S'=\xefy\xb9\xd6\x8d\x00@'
p314
tp315
Rp316
s((I0
I0
I1
I0
I1
I1
I1
I1
I1
I1
I1
I1
I1
I1
I1
I1
I1
I1
I1
I1
I1
I1
I1
I1
I1
I1
I1
I1
I1
I1
I1
I1
I1
I1
I1
I1
I1
I1
I1
I1
I1
I0
I0
I0
I0
I0
I0
I0
I0
I0
I0
I0
I0
I0
I0
I0
I0
I0
I0
I0
I0
I0
I0
I0
I0
I0
I0
I0
I0
I0
I0
I0
I0
I0
I0
I0
I0
I0
I0
I0
I0
I0
I0
I0
I0
I0
I0
I0
I0
I0
I0
I0
I0
I0
I0
I0
I0
I0
I0
I0
I0
I0
I0
I0
tp317
g74
tp318
g4
(g8
S'Z\xae5\xd4\xfe\xc0\xb8?'
p319
tp320
Rp321
s((I0
I0
I1
I0
I1
I1
I1
I1
I1
I1
I1
I1
I1
I1
I1
I1
I1
I1
I1
I1
I1
I1
I1
I1
I1
I1
I1
I1
I1
I1
I1
I1
I1
I1
I1
I1
I1
I1
I1
I1
I1
I1
I1
I1
I1
I0
I0
I0
I0
I0
I0
I0
I0
I0
I0
I0
I0
I0
I0
I0
I0
I0
I0
I0
I0
I0
I0
I0
I0
I0
I0
I0
I0
I0
I0
I0
I0
I0
I0
I0
I0
I0
I0
I0
I0
I0
I0
I0
I0
I0
I0
I0
I0
I0
I0
I0
I0
I0
I0
I0
I0
I0
I0
I0
tp322
g74
tp323
g4
(g8
S'r\xcc\x837V\xa4\xf9?'
p324
tp325
Rp326
s((I0
I1
I0
I0
I1
I1
I1
I1
I1
I1
I1
I1
I1
I1
I1
I1
I1
I1
I1
I1
I1
I1
I1
I1
I1
I1
I1
I1
I1
I1
I1
I1
I1
I1
I1
I1
I1
I1
I1
I1
I1
I1
I1
I1
I1
I1
I1
I1
I1
I1
I1
I1
I1
I1
I1
I1
I1
I1
I1
I0
I0
I0
I0
I0
I0
I0
I0
I0
I0
I0
I0
I0
I0
I0
I0
I0
I0
I0
I0
I0
I0
I0
I0
I0
I0
I0
I0
I0
I0
I0
I0
I0
I0
I0
I0
I0
I0
I0
I0
I0
I0
I0
I0
I0
tp327
g31
tp328
g4
(g8
S'k\xc6\xc7\xfe\xefd\xd4?'
p329
tp330
Rp331
s((I0
I1
I0
I0
I1
I1
I1
I1
I1
I1
I1
I1
I1
I1
I1
I1
I1
I1
I1
I1
I1
I1
I1
I1
I1
I1
I1
I1
I1
I1
I1
I1
I1
I1
I1
I1
I1
I1
I1
I1
I1
I1
I1
I1
I1
I1
I1
I1
I1
I1
I1
I1
I1
I1
I1
I1
I1
I1
I1
I1
I1
I1
I1
I1
I1
I0
I0
I0
I0
I0
I0
I0
I0
I0
I0
I0
I0
I0
I0
I0
I0
I0
I0
I0
I0
I0
I0
I0
I0
I0
I0
I0
I0
I0
I0
I0
I0
I0
I0
I0
I0
I0
I0
I0
tp332
g31
tp333
g4
(g8
S'\x98\xb9f\x81\xe2w\xf8?'
p334
tp335
Rp336
s((I1
I0
I0
I0
I1
I1
I1
I1
I1
I1
I1
I1
I1
I1
I1
I1
I1
I1
I1
I1
I1
I1
I0
I0
I0
I0
I0
I0
I0
I0
I0
I0
I0
I0
I0
I0
I0
I0
I0
I0
I0
I0
I0
I0
I0
I0
I0
I0
I0
I0
I0
I0
I0
I0
I0
I0
I0
I0
I0
I0
I0
I0
I0
I0
I0
I0
I0
I0
I0
I0
I0
I0
I0
I0
I0
I0
I0
I0
I0
I0
I0
I0
I0
I0
I0
I0
I0
I0
I0
I0
I0
I0
I0
I0
I0
I0
I0
I0
I0
I0
I0
I0
I0
I0
tp337
g20
tp338
g4
(g8
S'8gEK\xc7\xad\x00@'
p339
tp340
Rp341
s((I0
I0
I0
I1
I1
I1
I1
I1
I1
I1
I1
I1
I1
I1
I1
I1
I1
I1
I1
I1
I1
I1
I1
I1
I1
I1
I1
I1
I1
I1
I1
I1
I1
I1
I1
I1
I1
I1
I1
I1
I1
I1
I1
I1
I1
I1
I1
I1
I1
I1
I1
I1
I1
I1
I1
I1
I1
I1
I1
I1
I1
I1
I1
I1
I1
I1
I1
I1
I1
I1
I1
I1
I1
I1
I1
I1
I1
I1
I1
I0
I0
I0
I0
I0
I0
I0
I0
I0
I0
I0
I0
I0
I0
I0
I0
I0
I0
I0
I0
I0
I0
I0
I0
I0
tp342
g63
tp343
g4
(g8
S'S~\x82\xb2)\\\xfc?'
p344
tp345
Rp346
s((I0
I1
I0
I0
I1
I1
I1
I1
I1
I1
I1
I1
I1
I1
I1
I1
I1
I1
I1
I1
I1
I1
I1
I1
I1
I1
I1
I1
I1
I1
I1
I1
I1
I1
I1
I1
I1
I1
I1
I1
I1
I1
I1
I1
I1
I1
I1
I1
I1
I1
I1
I1
I1
I1
I1
I1
I1
I1
I1
I1
I1
I1
I1
I1
I1
I1
I1
I1
I1
I1
I1
I1
I1
I1
I1
I1
I1
I1
I1
I1
I1
I1
I1
I0
I0
I0
I0
I0
I0
I0
I0
I0
I0
I0
I0
I0
I0
I0
I0
I0
I0
I0
I0
I0
tp347
g31
tp348
g4
(g8
S'\xbe\x8a\xb4\x04\xf2\xc1\xba?'
p349
tp350
Rp351
s((I0
I1
I0
I0
I1
I1
I1
I1
I1
I1
I1
I1
I1
I1
I0
I0
I0
I0
I0
I0
I0
I0
I0
I0
I0
I0
I0
I0
I0
I0
I0
I0
I0
I0
I0
I0
I0
I0
I0
I0
I0
I0
I0
I0
I0
I0
I0
I0
I0
I0
I0
I0
I0
I0
I0
I0
I0
I0
I0
I0
I0
I0
I0
I0
I0
I0
I0
I0
I0
I0
I0
I0
I0
I0
I0
I0
I0
I0
I0
I0
I0
I0
I0
I0
I0
I0
I0
I0
I0
I0
I0
I0
I0
I0
I0
I0
I0
I0
I0
I0
I0
I0
I0
I0
tp352
g31
tp353
g4
(g8
S'n\x11\x96\xa1C|\xef?'
p354
tp355
Rp356
s((I0
I0
I1
I0
I1
I1
I1
I1
I1
I1
I1
I1
I1
I1
I1
I1
I1
I1
I1
I1
I1
I1
I1
I1
I1
I1
I1
I1
I1
I1
I1
I1
I1
I1
I1
I1
I1
I1
I1
I1
I1
I1
I1
I1
I1
I1
I1
I1
I1
I1
I1
I1
I1
I1
I1
I1
I1
I1
I1
I1
I1
I1
I1
I1
I1
I1
I0
I0
I0
I0
I0
I0
I0
I0
I0
I0
I0
I0
I0
I0
I0
I0
I0
I0
I0
I0
I0
I0
I0
I0
I0
I0
I0
I0
I0
I0
I0
I0
I0
I0
I0
I0
I0
I0
tp357
g103
tp358
g4
(g8
S'\xc1?2K\x91B\xfe?'
p359
tp360
Rp361
s((I0
I0
I1
I0
I1
I1
I1
I1
I1
I1
I1
I1
I1
I1
I0
I0
I0
I0
I0
I0
I0
I0
I0
I0
I0
I0
I0
I0
I0
I0
I0
I0
I0
I0
I0
I0
I0
I0
I0
I0
I0
I0
I0
I0
I0
I0
I0
I0
I0
I0
I0
I0
I0
I0
I0
I0
I0
I0
I0
I0
I0
I0
I0
I0
I0
I0
I0
I0
I0
I0
I0
I0
I0
I0
I0
I0
I0
I0
I0
I0
I0
I0
I0
I0
I0
I0
I0
I0
I0
I0
I0
I0
I0
I0
I0
I0
I0
I0
I0
I0
I0
I0
I0
I0
tp362
g103
tp363
g4
(g8
S'R\xca)/:K\xf8?'
p364
tp365
Rp366
s((I0
I1
I0
I0
I1
I1
I1
I1
I1
I1
I1
I1
I1
I1
I1
I1
I1
I1
I1
I1
I1
I1
I1
I1
I1
I1
I1
I1
I1
I1
I1
I1
I1
I1
I1
I1
I1
I1
I1
I1
I1
I1
I1
I1
I1
I1
I1
I1
I1
I1
I0
I0
I0
I0
I0
I0
I0
I0
I0
I0
I0
I0
I0
I0
I0
I0
I0
I0
I0
I0
I0
I0
I0
I0
I0
I0
I0
I0
I0
I0
I0
I0
I0
I0
I0
I0
I0
I0
I0
I0
I0
I0
I0
I0
I0
I0
I0
I0
I0
I0
I0
I0
I0
I0
tp367
g31
tp368
g4
(g8
S'\x0e7\xe0Lka\x03@'
p369
tp370
Rp371
s((I0
I1
I0
I0
I1
I1
I1
I1
I1
I1
I1
I1
I1
I1
I1
I1
I1
I1
I1
I1
I1
I1
I1
I1
I1
I1
I1
I1
I1
I1
I1
I1
I1
I1
I1
I1
I1
I1
I1
I1
I1
I1
I1
I1
I1
I1
I1
I0
I0
I0
I0
I0
I0
I0
I0
I0
I0
I0
I0
I0
I0
I0
I0
I0
I0
I0
I0
I0
I0
I0
I0
I0
I0
I0
I0
I0
I0
I0
I0
I0
I0
I0
I0
I0
I0
I0
I0
I0
I0
I0
I0
I0
I0
I0
I0
I0
I0
I0
I0
I0
I0
I0
I0
I0
tp372
g31
tp373
g4
(g8
S'>E\xeb,\xea\x15\x03@'
p374
tp375
Rp376
s((I0
I0
I0
I1
I1
I1
I1
I1
I1
I1
I1
I1
I1
I1
I1
I1
I1
I1
I1
I1
I1
I1
I1
I1
I1
I1
I1
I1
I1
I1
I1
I1
I1
I1
I1
I1
I1
I1
I1
I1
I1
I1
I1
I1
I1
I1
I1
I1
I1
I1
I1
I1
I1
I1
I1
I1
I1
I1
I1
I1
I1
I0
I0
I0
I0
I0
I0
I0
I0
I0
I0
I0
I0
I0
I0
I0
I0
I0
I0
I0
I0
I0
I0
I0
I0
I0
I0
I0
I0
I0
I0
I0
I0
I0
I0
I0
I0
I0
I0
I0
I0
I0
I0
I0
tp377
g63
tp378
g4
(g8
S'\x9fK\x83\xce\xf3\x17\x03@'
p379
tp380
Rp381
s((I0
I0
I0
I1
I1
I1
I1
I1
I1
I1
I1
I1
I1
I1
I1
I1
I1
I1
I1
I1
I1
I1
I1
I1
I1
I1
I1
I1
I1
I1
I1
I1
I1
I1
I1
I1
I1
I1
I1
I1
I1
I1
I1
I0
I0
I0
I0
I0
I0
I0
I0
I0
I0
I0
I0
I0
I0
I0
I0
I0
I0
I0
I0
I0
I0
I0
I0
I0
I0
I0
I0
I0
I0
I0
I0
I0
I0
I0
I0
I0
I0
I0
I0
I0
I0
I0
I0
I0
I0
I0
I0
I0
I0
I0
I0
I0
I0
I0
I0
I0
I0
I0
I0
I0
tp382
g63
tp383
g4
(g8
S'g\xbc^@\xdfw\xfd?'
p384
tp385
Rp386
s((I1
I0
I0
I0
I1
I1
I1
I1
I1
I0
I0
I0
I0
I0
I0
I0
I0
I0
I0
I0
I0
I0
I0
I0
I0
I0
I0
I0
I0
I0
I0
I0
I0
I0
I0
I0
I0
I0
I0
I0
I0
I0
I0
I0
I0
I0
I0
I0
I0
I0
I0
I0
I0
I0
I0
I0
I0
I0
I0
I0
I0
I0
I0
I0
I0
I0
I0
I0
I0
I0
I0
I0
I0
I0
I0
I0
I0
I0
I0
I0
I0
I0
I0
I0
I0
I0
I0
I0
I0
I0
I0
I0
I0
I0
I0
I0
I0
I0
I0
I0
I0
I0
I0
I0
tp387
g20
tp388
g4
(g8
S'\x1a\xd2\xe9\x06\x1f\xc8\xf3?'
p389
tp390
Rp391
s((I0
I0
I0
I1
I1
I1
I1
I1
I1
I1
I1
I1
I1
I1
I1
I1
I1
I1
I1
I1
I1
I1
I1
I1
I1
I1
I1
I1
I1
I1
I1
I1
I0
I0
I0
I0
I0
I0
I0
I0
I0
I0
I0
I0
I0
I0
I0
I0
I0
I0
I0
I0
I0
I0
I0
I0
I0
I0
I0
I0
I0
I0
I0
I0
I0
I0
I0
I0
I0
I0
I0
I0
I0
I0
I0
I0
I0
I0
I0
I0
I0
I0
I0
I0
I0
I0
I0
I0
I0
I0
I0
I0
I0
I0
I0
I0
I0
I0
I0
I0
I0
I0
I0
I0
tp392
g63
tp393
g4
(g8
S'F\xec\x9d%\xca\t\xfa?'
p394
tp395
Rp396
s((I0
I0
I1
I0
I1
I1
I1
I1
I1
I1
I1
I1
I1
I1
I1
I1
I1
I1
I1
I1
I1
I1
I1
I1
I0
I0
I0
I0
I0
I0
I0
I0
I0
I0
I0
I0
I0
I0
I0
I0
I0
I0
I0
I0
I0
I0
I0
I0
I0
I0
I0
I0
I0
I0
I0
I0
I0
I0
I0
I0
I0
I0
I0
I0
I0
I0
I0
I0
I0
I0
I0
I0
I0
I0
I0
I0
I0
I0
I0
I0
I0
I0
I0
I0
I0
I0
I0
I0
I0
I0
I0
I0
I0
I0
I0
I0
I0
I0
I0
I0
I0
I0
I0
I0
tp397
g74
tp398
F0.047619047619047616
s((I0
I0
I0
I1
I1
I1
I1
I1
I1
I1
I1
I1
I1
I1
I1
I1
I1
I1
I1
I1
I1
I1
I1
I1
I1
I1
I1
I1
I1
I1
I1
I1
I1
I1
I1
I1
I1
I1
I1
I1
I1
I1
I1
I1
I1
I1
I1
I1
I1
I1
I1
I1
I1
I1
I1
I1
I1
I1
I1
I1
I1
I1
I1
I1
I1
I1
I1
I1
I1
I1
I1
I1
I1
I1
I1
I1
I1
I0
I0
I0
I0
I0
I0
I0
I0
I0
I0
I0
I0
I0
I0
I0
I0
I0
I0
I0
I0
I0
I0
I0
I0
I0
I0
I0
tp399
g63
tp400
g4
(g8
S'\xb6\xce\xb6\x8a\xcd\xa2\x01@'
p401
tp402
Rp403
s((I0
I0
I0
I1
I1
I1
I1
I1
I1
I1
I1
I1
I1
I1
I1
I1
I1
I1
I1
I1
I1
I1
I1
I1
I1
I1
I1
I1
I1
I1
I1
I1
I1
I1
I1
I1
I1
I1
I1
I1
I1
I1
I1
I1
I1
I1
I1
I1
I1
I1
I1
I1
I1
I1
I1
I1
I1
I1
I1
I1
I1
I1
I1
I1
I1
I1
I1
I1
I1
I1
I1
I1
I1
I1
I1
I1
I1
I1
I1
I1
I1
I1
I1
I1
I1
I1
I1
I1
I1
I0
I0
I0
I0
I0
I0
I0
I0
I0
I0
I0
I0
I0
I0
I0
tp404
g63
tp405
g4
(g8
S'\xd0\x9b)\x80\x05v\xf6?'
p406
tp407
Rp408
s((I1
I0
I0
I0
I1
I1
I1
I1
I1
I1
I1
I1
I1
I1
I1
I1
I1
I1
I1
I1
I1
I1
I1
I1
I1
I1
I1
I1
I1
I0
I0
I0
I0
I0
I0
I0
I0
I0
I0
I0
I0
I0
I0
I0
I0
I0
I0
I0
I0
I0
I0
I0
I0
I0
I0
I0
I0
I0
I0
I0
I0
I0
I0
I0
I0
I0
I0
I0
I0
I0
I0
I0
I0
I0
I0
I0
I0
I0
I0
I0
I0
I0
I0
I0
I0
I0
I0
I0
I0
I0
I0
I0
I0
I0
I0
I0
I0
I0
I0
I0
I0
I0
I0
I0
tp409
g20
tp410
g4
(g8
S'?\x8b\x9b\xa2.\x94\x01@'
p411
tp412
Rp413
s((I0
I0
I0
I1
I1
I1
I1
I1
I1
I1
I1
I1
I1
I1
I1
I1
I1
I1
I1
I1
I1
I1
I1
I1
I1
I1
I1
I1
I1
I1
I1
I1
I1
I1
I1
I1
I1
I1
I1
I1
I1
I1
I1
I1
I1
I1
I1
I1
I1
I1
I1
I1
I1
I1
I1
I1
I1
I1
I1
I1
I1
I1
I1
I1
I1
I1
I1
I1
I1
I1
I1
I1
I1
I1
I1
I1
I1
I1
I1
I1
I1
I1
I1
I1
I1
I0
I0
I0
I0
I0
I0
I0
I0
I0
I0
I0
I0
I0
I0
I0
I0
I0
I0
I0
tp414
g63
tp415
g4
(g8
S'\xb8\xe2\x0c=\x05\x9c\xfd?'
p416
tp417
Rp418
s((I0
I1
I0
I0
I1
I1
I1
I1
I1
I1
I1
I1
I1
I1
I1
I1
I1
I1
I1
I1
I1
I1
I1
I1
I1
I1
I1
I1
I1
I1
I1
I1
I1
I1
I1
I1
I1
I1
I1
I1
I1
I1
I1
I1
I1
I1
I1
I1
I1
I1
I1
I1
I1
I1
I1
I1
I1
I1
I1
I1
I1
I1
I1
I1
I1
I1
I1
I1
I1
I1
I1
I0
I0
I0
I0
I0
I0
I0
I0
I0
I0
I0
I0
I0
I0
I0
I0
I0
I0
I0
I0
I0
I0
I0
I0
I0
I0
I0
I0
I0
I0
I0
I0
I0
tp419
g2
tp420
g4
(g8
S'Y\x82\xca\xfc&q\xd8?'
p421
tp422
Rp423
s((I0
I0
I0
I1
I1
I1
I1
I1
I1
I1
I1
I1
I1
I1
I1
I1
I1
I1
I1
I1
I1
I1
I1
I1
I1
I1
I1
I1
I1
I1
I1
I1
I1
I1
I1
I1
I1
I1
I1
I1
I1
I1
I1
I1
I1
I1
I1
I1
I1
I1
I1
I1
I1
I1
I1
I1
I1
I1
I1
I1
I1
I1
I1
I1
I1
I1
I1
I1
I1
I1
I1
I1
I1
I1
I1
I1
I1
I1
I1
I1
I1
I1
I0
I0
I0
I0
I0
I0
I0
I0
I0
I0
I0
I0
I0
I0
I0
I0
I0
I0
I0
I0
I0
I0
tp424
g63
tp425
g4
(g8
S'\x12\x80\xff\x9a=\xce\x00@'
p426
tp427
Rp428
s((I0
I0
I0
I1
I1
I1
I1
I1
I1
I1
I1
I1
I1
I1
I1
I1
I1
I1
I1
I1
I0
I0
I0
I0
I0
I0
I0
I0
I0
I0
I0
I0
I0
I0
I0
I0
I0
I0
I0
I0
I0
I0
I0
I0
I0
I0
I0
I0
I0
I0
I0
I0
I0
I0
I0
I0
I0
I0
I0
I0
I0
I0
I0
I0
I0
I0
I0
I0
I0
I0
I0
I0
I0
I0
I0
I0
I0
I0
I0
I0
I0
I0
I0
I0
I0
I0
I0
I0
I0
I0
I0
I0
I0
I0
I0
I0
I0
I0
I0
I0
I0
I0
I0
I0
tp429
g63
tp430
g4
(g8
S'\x8a\xbeR,\xee\xfb\xf6?'
p431
tp432
Rp433
s((I0
I0
I0
I1
I1
I1
I1
I1
I1
I1
I1
I1
I1
I1
I1
I1
I1
I1
I1
I1
I1
I1
I1
I1
I1
I1
I1
I1
I1
I1
I1
I1
I1
I1
I1
I1
I1
I1
I1
I1
I1
I1
I1
I1
I1
I1
I1
I1
I1
I1
I1
I1
I1
I1
I1
I1
I1
I1
I1
I1
I1
I1
I1
I1
I1
I1
I1
I1
I1
I1
I1
I1
I1
I1
I1
I1
I1
I1
I1
I1
I1
I1
I1
I1
I1
I1
I1
I1
I1
I1
I1
I1
I1
I1
I0
I0
I0
I0
I0
I0
I0
I0
I0
I0
tp434
g63
tp435
g4
(g8
S'y\x1a\xbc:\x195\xf3?'
p436
tp437
Rp438
s((I0
I0
I0
I1
I1
I1
I1
I1
I1
I1
I1
I1
I1
I1
I1
I1
I1
I1
I1
I1
I1
I1
I1
I1
I1
I1
I1
I1
I1
I1
I1
I1
I1
I1
I1
I1
I1
I1
I1
I1
I1
I1
I1
I1
I1
I1
I1
I1
I1
I1
I1
I1
I1
I1
I1
I1
I1
I1
I1
I1
I1
I1
I1
I1
I1
I1
I1
I1
I1
I1
I1
I1
I1
I1
I1
I1
I1
I1
I1
I1
I1
I1
I1
I1
I1
I1
I1
I1
I1
I1
I1
I1
I1
I1
I1
I1
I1
I1
I1
I0
I0
I0
I0
I0
tp439
g63
tp440
g4
(g8
S'\xc4\r\xdcU\x81\xe9\xf0?'
p441
tp442
Rp443
s((I0
I0
I0
I1
I1
I1
I1
I1
I1
I1
I1
I1
I1
I1
I1
I1
I1
I1
I1
I1
I1
I1
I1
I1
I1
I1
I1
I1
I1
I1
I1
I1
I1
I1
I1
I1
I1
I1
I1
I1
I1
I1
I1
I1
I1
I1
I1
I1
I1
I1
I1
I1
I1
I1
I1
I1
I1
I1
I1
I1
I1
I1
I1
I1
I1
I1
I1
I1
I1
I1
I1
I1
I1
I1
I1
I1
I1
I1
I1
I1
I1
I1
I1
I1
I1
I1
I0
I0
I0
I0
I0
I0
I0
I0
I0
I0
I0
I0
I0
I0
I0
I0
I0
I0
tp444
g63
tp445
g4
(g8
S'\xe2\xb4\xab\x06z\x94\xfe?'
p446
tp447
Rp448
s((I1
I0
I0
I0
I1
I1
I1
I1
I1
I1
I1
I1
I1
I0
I0
I0
I0
I0
I0
I0
I0
I0
I0
I0
I0
I0
I0
I0
I0
I0
I0
I0
I0
I0
I0
I0
I0
I0
I0
I0
I0
I0
I0
I0
I0
I0
I0
I0
I0
I0
I0
I0
I0
I0
I0
I0
I0
I0
I0
I0
I0
I0
I0
I0
I0
I0
I0
I0
I0
I0
I0
I0
I0
I0
I0
I0
I0
I0
I0
I0
I0
I0
I0
I0
I0
I0
I0
I0
I0
I0
I0
I0
I0
I0
I0
I0
I0
I0
I0
I0
I0
I0
I0
I0
tp449
g37
tp450
g4
(g8
S'\xc9\x8d\xd8\xf8\x8eL\xfe?'
p451
tp452
Rp453
s((I0
I1
I0
I0
I1
I1
I1
I1
I1
I1
I1
I1
I1
I1
I1
I1
I1
I1
I1
I1
I1
I1
I0
I0
I0
I0
I0
I0
I0
I0
I0
I0
I0
I0
I0
I0
I0
I0
I0
I0
I0
I0
I0
I0
I0
I0
I0
I0
I0
I0
I0
I0
I0
I0
I0
I0
I0
I0
I0
I0
I0
I0
I0
I0
I0
I0
I0
I0
I0
I0
I0
I0
I0
I0
I0
I0
I0
I0
I0
I0
I0
I0
I0
I0
I0
I0
I0
I0
I0
I0
I0
I0
I0
I0
I0
I0
I0
I0
I0
I0
I0
I0
I0
I0
tp454
g2
tp455
g4
(g8
S'\xb8\xba\xb0%3e\xe9?'
p456
tp457
Rp458
s((I0
I0
I1
I0
I1
I1
I1
I1
I1
I1
I1
I1
I1
I1
I1
I1
I1
I1
I1
I1
I1
I1
I1
I1
I1
I1
I1
I1
I1
I1
I1
I1
I1
I1
I1
I1
I1
I1
I1
I1
I1
I1
I1
I1
I0
I0
I0
I0
I0
I0
I0
I0
I0
I0
I0
I0
I0
I0
I0
I0
I0
I0
I0
I0
I0
I0
I0
I0
I0
I0
I0
I0
I0
I0
I0
I0
I0
I0
I0
I0
I0
I0
I0
I0
I0
I0
I0
I0
I0
I0
I0
I0
I0
I0
I0
I0
I0
I0
I0
I0
I0
I0
I0
I0
tp459
g74
tp460
g4
(g8
S'\x86\x1fi\x1d\xbe\xfa\xff?'
p461
tp462
Rp463
s((I0
I0
I0
I1
I1
I1
I1
I1
I1
I1
I1
I1
I1
I1
I1
I1
I1
I1
I1
I1
I1
I1
I1
I1
I1
I1
I1
I1
I1
I1
I1
I1
I1
I1
I1
I1
I1
I1
I1
I1
I1
I1
I1
I1
I1
I1
I1
I1
I1
I1
I1
I1
I1
I1
I1
I1
I1
I1
I1
I1
I1
I1
I1
I1
I1
I1
I1
I1
I1
I1
I1
I1
I1
I1
I1
I1
I1
I1
I1
I1
I1
I0
I0
I0
I0
I0
I0
I0
I0
I0
I0
I0
I0
I0
I0
I0
I0
I0
I0
I0
I0
I0
I0
I0
tp464
g63
tp465
g4
(g8
S'\x8d-g\x8dp\xd6\xff?'
p466
tp467
Rp468
s((I0
I0
I1
I0
I1
I1
I1
I1
I1
I1
I1
I1
I1
I1
I1
I1
I0
I0
I0
I0
I0
I0
I0
I0
I0
I0
I0
I0
I0
I0
I0
I0
I0
I0
I0
I0
I0
I0
I0
I0
I0
I0
I0
I0
I0
I0
I0
I0
I0
I0
I0
I0
I0
I0
I0
I0
I0
I0
I0
I0
I0
I0
I0
I0
I0
I0
I0
I0
I0
I0
I0
I0
I0
I0
I0
I0
I0
I0
I0
I0
I0
I0
I0
I0
I0
I0
I0
I0
I0
I0
I0
I0
I0
I0
I0
I0
I0
I0
I0
I0
I0
I0
I0
I0
tp469
g74
tp470
g4
(g8
S'N\xe9\xd9\x12\xe3\xca\xf3?'
p471
tp472
Rp473
s((I0
I1
I0
I0
I1
I1
I1
I1
I1
I1
I1
I1
I1
I1
I1
I1
I1
I1
I1
I1
I1
I1
I1
I1
I1
I1
I1
I1
I1
I1
I1
I1
I1
I1
I1
I1
I1
I1
I1
I1
I1
I1
I1
I1
I1
I1
I1
I1
I1
I1
I1
I1
I1
I1
I1
I1
I1
I1
I1
I1
I1
I1
I0
I0
I0
I0
I0
I0
I0
I0
I0
I0
I0
I0
I0
I0
I0
I0
I0
I0
I0
I0
I0
I0
I0
I0
I0
I0
I0
I0
I0
I0
I0
I0
I0
I0
I0
I0
I0
I0
I0
I0
I0
I0
tp474
g2
tp475
g4
(g8
S'\xcc\x1a\xfb\x89t\xe2\xec?'
p476
tp477
Rp478
s((I0
I0
I1
I0
I1
I1
I1
I1
I1
I1
I1
I1
I1
I1
I1
I1
I1
I1
I1
I1
I1
I1
I1
I1
I1
I1
I1
I1
I1
I1
I1
I1
I1
I1
I1
I1
I1
I1
I1
I1
I1
I1
I1
I1
I1
I0
I0
I0
I0
I0
I0
I0
I0
I0
I0
I0
I0
I0
I0
I0
I0
I0
I0
I0
I0
I0
I0
I0
I0
I0
I0
I0
I0
I0
I0
I0
I0
I0
I0
I0
I0
I0
I0
I0
I0
I0
I0
I0
I0
I0
I0
I0
I0
I0
I0
I0
I0
I0
I0
I0
I0
I0
I0
I0
tp479
g103
tp480
g4
(g8
S'N\xe9\xe3\x06\xb0\\\xde?'
p481
tp482
Rp483
s((I0
I0
I0
I1
I1
I1
I1
I1
I1
I1
I1
I1
I1
I1
I1
I1
I1
I1
I1
I1
I1
I1
I1
I1
I1
I1
I1
I1
I1
I1
I1
I1
I1
I1
I1
I1
I1
I1
I1
I1
I1
I1
I1
I1
I1
I1
I1
I1
I1
I1
I1
I1
I1
I1
I1
I1
I1
I1
I1
I1
I1
I1
I1
I1
I1
I1
I1
I1
I1
I1
I1
I0
I0
I0
I0
I0
I0
I0
I0
I0
I0
I0
I0
I0
I0
I0
I0
I0
I0
I0
I0
I0
I0
I0
I0
I0
I0
I0
I0
I0
I0
I0
I0
I0
tp484
g63
tp485
g4
(g8
S'\xb2\xcc$\x19cY\x01@'
p486
tp487
Rp488
s((I0
I0
I1
I0
I1
I1
I1
I1
I1
I1
I1
I1
I1
I1
I1
I1
I1
I1
I1
I1
I1
I1
I1
I1
I1
I1
I1
I1
I1
I1
I1
I1
I1
I1
I1
I1
I1
I1
I1
I1
I1
I1
I1
I1
I1
I1
I1
I1
I1
I1
I1
I1
I1
I1
I1
I1
I1
I1
I1
I1
I1
I1
I0
I0
I0
I0
I0
I0
I0
I0
I0
I0
I0
I0
I0
I0
I0
I0
I0
I0
I0
I0
I0
I0
I0
I0
I0
I0
I0
I0
I0
I0
I0
I0
I0
I0
I0
I0
I0
I0
I0
I0
I0
I0
tp489
g74
tp490
g4
(g8
S'?\x0f\x0f;\xa1\xb9\xff?'
p491
tp492
Rp493
s((I0
I1
I0
I0
I1
I1
I1
I1
I1
I1
I0
I0
I0
I0
I0
I0
I0
I0
I0
I0
I0
I0
I0
I0
I0
I0
I0
I0
I0
I0
I0
I0
I0
I0
I0
I0
I0
I0
I0
I0
I0
I0
I0
I0
I0
I0
I0
I0
I0
I0
I0
I0
I0
I0
I0
I0
I0
I0
I0
I0
I0
I0
I0
I0
I0
I0
I0
I0
I0
I0
I0
I0
I0
I0
I0
I0
I0
I0
I0
I0
I0
I0
I0
I0
I0
I0
I0
I0
I0
I0
I0
I0
I0
I0
I0
I0
I0
I0
I0
I0
I0
I0
I0
I0
tp494
g2
tp495
g4
(g8
S'\x1c[\x9f\x12\xcb\xf1\xab?'
p496
tp497
Rp498
s((I0
I1
I0
I0
I1
I1
I1
I1
I1
I1
I1
I1
I1
I1
I1
I0
I0
I0
I0
I0
I0
I0
I0
I0
I0
I0
I0
I0
I0
I0
I0
I0
I0
I0
I0
I0
I0
I0
I0
I0
I0
I0
I0
I0
I0
I0
I0
I0
I0
I0
I0
I0
I0
I0
I0
I0
I0
I0
I0
I0
I0
I0
I0
I0
I0
I0
I0
I0
I0
I0
I0
I0
I0
I0
I0
I0
I0
I0
I0
I0
I0
I0
I0
I0
I0
I0
I0
I0
I0
I0
I0
I0
I0
I0
I0
I0
I0
I0
I0
I0
I0
I0
I0
I0
tp499
g2
tp500
g4
(g8
S'0\xdfE\xa0\xd6>\xf2?'
p501
tp502
Rp503
s((I0
I1
I0
I0
I1
I1
I1
I1
I1
I1
I1
I1
I1
I1
I1
I1
I1
I1
I1
I1
I1
I1
I1
I1
I1
I1
I1
I1
I1
I1
I1
I1
I1
I1
I0
I0
I0
I0
I0
I0
I0
I0
I0
I0
I0
I0
I0
I0
I0
I0
I0
I0
I0
I0
I0
I0
I0
I0
I0
I0
I0
I0
I0
I0
I0
I0
I0
I0
I0
I0
I0
I0
I0
I0
I0
I0
I0
I0
I0
I0
I0
I0
I0
I0
I0
I0
I0
I0
I0
I0
I0
I0
I0
I0
I0
I0
I0
I0
I0
I0
I0
I0
I0
I0
tp504
g2
tp505
g4
(g8
S'\xaa\r\x87+\xf9\x94\xff?'
p506
tp507
Rp508
s((I0
I1
I0
I0
I1
I1
I1
I1
I1
I1
I1
I1
I1
I1
I1
I1
I1
I1
I1
I1
I1
I0
I0
I0
I0
I0
I0
I0
I0
I0
I0
I0
I0
I0
I0
I0
I0
I0
I0
I0
I0
I0
I0
I0
I0
I0
I0
I0
I0
I0
I0
I0
I0
I0
I0
I0
I0
I0
I0
I0
I0
I0
I0
I0
I0
I0
I0
I0
I0
I0
I0
I0
I0
I0
I0
I0
I0
I0
I0
I0
I0
I0
I0
I0
I0
I0
I0
I0
I0
I0
I0
I0
I0
I0
I0
I0
I0
I0
I0
I0
I0
I0
I0
I0
tp509
g2
tp510
g4
(g8
S'\xf6SE\xd1\x84&\xd2?'
p511
tp512
Rp513
s((I0
I1
I0
I0
I1
I1
I1
I1
I1
I1
I1
I1
I1
I1
I1
I1
I1
I1
I1
I1
I1
I1
I1
I1
I1
I1
I1
I1
I1
I1
I1
I1
I1
I1
I1
I1
I1
I1
I1
I1
I1
I1
I1
I1
I1
I1
I1
I1
I1
I1
I1
I1
I1
I1
I1
I1
I1
I1
I1
I1
I1
I1
I0
I0
I0
I0
I0
I0
I0
I0
I0
I0
I0
I0
I0
I0
I0
I0
I0
I0
I0
I0
I0
I0
I0
I0
I0
I0
I0
I0
I0
I0
I0
I0
I0
I0
I0
I0
I0
I0
I0
I0
I0
I0
tp514
g31
tp515
g4
(g8
S'\xc7\xdc\x9d\x9e\xb0\x19\xfb?'
p516
tp517
Rp518
s((I0
I1
I0
I0
I1
I1
I1
I1
I1
I1
I1
I1
I1
I1
I1
I1
I1
I1
I1
I1
I1
I1
I1
I1
I1
I1
I1
I1
I1
I1
I1
I1
I1
I1
I1
I1
I1
I1
I1
I0
I0
I0
I0
I0
I0
I0
I0
I0
I0
I0
I0
I0
I0
I0
I0
I0
I0
I0
I0
I0
I0
I0
I0
I0
I0
I0
I0
I0
I0
I0
I0
I0
I0
I0
I0
I0
I0
I0
I0
I0
I0
I0
I0
I0
I0
I0
I0
I0
I0
I0
I0
I0
I0
I0
I0
I0
I0
I0
I0
I0
I0
I0
I0
I0
tp519
g31
tp520
g4
(g8
S'Y\xafL\xe3\xf7S\x03@'
p521
tp522
Rp523
s((I0
I0
I0
I1
I1
I1
I1
I1
I1
I1
I1
I1
I1
I1
I1
I1
I1
I1
I1
I1
I1
I1
I1
I1
I1
I1
I1
I1
I1
I1
I1
I1
I1
I1
I1
I1
I1
I1
I1
I1
I1
I1
I1
I1
I1
I1
I1
I1
I1
I1
I1
I1
I1
I1
I1
I1
I1
I1
I1
I1
I1
I1
I1
I1
I1
I1
I1
I1
I1
I1
I1
I1
I1
I1
I1
I1
I1
I1
I0
I0
I0
I0
I0
I0
I0
I0
I0
I0
I0
I0
I0
I0
I0
I0
I0
I0
I0
I0
I0
I0
I0
I0
I0
I0
tp524
g63
tp525
g4
(g8
S'g\x06QV\x12\x92\x00@'
p526
tp527
Rp528
s((I0
I1
I0
I0
I1
I1
I1
I1
I1
I1
I1
I1
I1
I1
I1
I1
I1
I1
I1
I1
I1
I1
I1
I1
I1
I1
I1
I1
I1
I1
I1
I1
I1
I0
I0
I0
I0
I0
I0
I0
I0
I0
I0
I0
I0
I0
I0
I0
I0
I0
I0
I0
I0
I0
I0
I0
I0
I0
I0
I0
I0
I0
I0
I0
I0
I0
I0
I0
I0
I0
I0
I0
I0
I0
I0
I0
I0
I0
I0
I0
I0
I0
I0
I0
I0
I0
I0
I0
I0
I0
I0
I0
I0
I0
I0
I0
I0
I0
I0
I0
I0
I0
I0
I0
tp529
g31
tp530
g4
(g8
S'h`i9\xe6\xc2\x01@'
p531
tp532
Rp533
s((I1
I0
I0
I0
I1
I1
I1
I1
I1
I1
I1
I1
I1
I1
I1
I1
I1
I1
I1
I1
I1
I1
I1
I0
I0
I0
I0
I0
I0
I0
I0
I0
I0
I0
I0
I0
I0
I0
I0
I0
I0
I0
I0
I0
I0
I0
I0
I0
I0
I0
I0
I0
I0
I0
I0
I0
I0
I0
I0
I0
I0
I0
I0
I0
I0
I0
I0
I0
I0
I0
I0
I0
I0
I0
I0
I0
I0
I0
I0
I0
I0
I0
I0
I0
I0
I0
I0
I0
I0
I0
I0
I0
I0
I0
I0
I0
I0
I0
I0
I0
I0
I0
I0
I0
tp534
g37
tp535
g4
(g8
S'\x83\xfa\x7f\xa3K{\x01@'
p536
tp537
Rp538
s((I0
I0
I0
I1
I1
I1
I1
I1
I1
I1
I1
I1
I1
I1
I1
I1
I1
I1
I1
I1
I1
I1
I1
I1
I1
I1
I1
I1
I1
I1
I1
I1
I1
I1
I1
I1
I1
I1
I1
I1
I1
I1
I1
I1
I1
I1
I1
I1
I1
I1
I1
I1
I0
I0
I0
I0
I0
I0
I0
I0
I0
I0
I0
I0
I0
I0
I0
I0
I0
I0
I0
I0
I0
I0
I0
I0
I0
I0
I0
I0
I0
I0
I0
I0
I0
I0
I0
I0
I0
I0
I0
I0
I0
I0
I0
I0
I0
I0
I0
I0
I0
I0
I0
I0
tp539
g63
tp540
g4
(g8
S'\x18^\x10tz\x18\x00@'
p541
tp542
Rp543
s((I1
I0
I0
I0
I1
I1
I1
I1
I1
I0
I0
I0
I0
I0
I0
I0
I0
I0
I0
I0
I0
I0
I0
I0
I0
I0
I0
I0
I0
I0
I0
I0
I0
I0
I0
I0
I0
I0
I0
I0
I0
I0
I0
I0
I0
I0
I0
I0
I0
I0
I0
I0
I0
I0
I0
I0
I0
I0
I0
I0
I0
I0
I0
I0
I0
I0
I0
I0
I0
I0
I0
I0
I0
I0
I0
I0
I0
I0
I0
I0
I0
I0
I0
I0
I0
I0
I0
I0
I0
I0
I0
I0
I0
I0
I0
I0
I0
I0
I0
I0
I0
I0
I0
I0
tp544
g37
tp545
g4
(g8
S'\xc4\xd3\xf2c\xef\x93\xfc?'
p546
tp547
Rp548
s((I0
I1
I0
I0
I1
I1
I1
I1
I1
I1
I1
I1
I1
I1
I1
I1
I1
I1
I1
I1
I1
I1
I1
I1
I1
I1
I1
I1
I1
I1
I1
I1
I1
I1
I1
I1
I1
I1
I1
I1
I1
I1
I1
I1
I1
I1
I1
I1
I1
I0
I0
I0
I0
I0
I0
I0
I0
I0
I0
I0
I0
I0
I0
I0
I0
I0
I0
I0
I0
I0
I0
I0
I0
I0
I0
I0
I0
I0
I0
I0
I0
I0
I0
I0
I0
I0
I0
I0
I0
I0
I0
I0
I0
I0
I0
I0
I0
I0
I0
I0
I0
I0
I0
I0
tp549
g31
tp550
g4
(g8
S'R\x9e\x1a\x81pG\x02@'
p551
tp552
Rp553
s((I0
I0
I0
I1
I1
I1
I1
I1
I1
I1
I1
I1
I1
I1
I1
I1
I1
I1
I1
I1
I1
I1
I1
I1
I1
I1
I1
I1
I1
I1
I1
I1
I1
I1
I0
I0
I0
I0
I0
I0
I0
I0
I0
I0
I0
I0
I0
I0
I0
I0
I0
I0
I0
I0
I0
I0
I0
I0
I0
I0
I0
I0
I0
I0
I0
I0
I0
I0
I0
I0
I0
I0
I0
I0
I0
I0
I0
I0
I0
I0
I0
I0
I0
I0
I0
I0
I0
I0
I0
I0
I0
I0
I0
I0
I0
I0
I0
I0
I0
I0
I0
I0
I0
I0
tp554
g63
tp555
g4
(g8
S'Qp\x85\xd9\xe5\xbc\xfb?'
p556
tp557
Rp558
s((I1
I0
I0
I0
I1
I1
I1
I1
I1
I1
I1
I1
I1
I1
I1
I1
I1
I1
I0
I0
I0
I0
I0
I0
I0
I0
I0
I0
I0
I0
I0
I0
I0
I0
I0
I0
I0
I0
I0
I0
I0
I0
I0
I0
I0
I0
I0
I0
I0
I0
I0
I0
I0
I0
I0
I0
I0
I0
I0
I0
I0
I0
I0
I0
I0
I0
I0
I0
I0
I0
I0
I0
I0
I0
I0
I0
I0
I0
I0
I0
I0
I0
I0
I0
I0
I0
I0
I0
I0
I0
I0
I0
I0
I0
I0
I0
I0
I0
I0
I0
I0
I0
I0
I0
tp559
g37
tp560
g4
(g8
S'\xe7>\xdb\x19T\x8d\x00@'
p561
tp562
Rp563
s((I0
I1
I0
I0
I1
I1
I1
I1
I1
I1
I1
I1
I1
I1
I1
I1
I1
I1
I1
I1
I1
I1
I1
I1
I1
I1
I1
I1
I1
I1
I1
I1
I1
I1
I1
I1
I1
I1
I1
I0
I0
I0
I0
I0
I0
I0
I0
I0
I0
I0
I0
I0
I0
I0
I0
I0
I0
I0
I0
I0
I0
I0
I0
I0
I0
I0
I0
I0
I0
I0
I0
I0
I0
I0
I0
I0
I0
I0
I0
I0
I0
I0
I0
I0
I0
I0
I0
I0
I0
I0
I0
I0
I0
I0
I0
I0
I0
I0
I0
I0
I0
I0
I0
I0
tp564
g2
tp565
g4
(g8
S'2\xa4\xf6\xbb\x92\x15\x00@'
p566
tp567
Rp568
s((I0
I0
I1
I0
I1
I1
I1
I1
I1
I0
I0
I0
I0
I0
I0
I0
I0
I0
I0
I0
I0
I0
I0
I0
I0
I0
I0
I0
I0
I0
I0
I0
I0
I0
I0
I0
I0
I0
I0
I0
I0
I0
I0
I0
I0
I0
I0
I0
I0
I0
I0
I0
I0
I0
I0
I0
I0
I0
I0
I0
I0
I0
I0
I0
I0
I0
I0
I0
I0
I0
I0
I0
I0
I0
I0
I0
I0
I0
I0
I0
I0
I0
I0
I0
I0
I0
I0
I0
I0
I0
I0
I0
I0
I0
I0
I0
I0
I0
I0
I0
I0
I0
I0
I0
tp569
g103
tp570
g4
(g8
S'\xbbL\xb0\xa12\xf3\xf6?'
p571
tp572
Rp573
s((I1
I0
I0
I0
I1
I1
I1
I1
I1
I1
I1
I1
I1
I1
I1
I1
I1
I1
I1
I1
I1
I1
I1
I1
I1
I1
I1
I1
I1
I1
I1
I1
I1
I1
I1
I1
I1
I1
I1
I1
I1
I1
I1
I0
I0
I0
I0
I0
I0
I0
I0
I0
I0
I0
I0
I0
I0
I0
I0
I0
I0
I0
I0
I0
I0
I0
I0
I0
I0
I0
I0
I0
I0
I0
I0
I0
I0
I0
I0
I0
I0
I0
I0
I0
I0
I0
I0
I0
I0
I0
I0
I0
I0
I0
I0
I0
I0
I0
I0
I0
I0
I0
I0
I0
tp574
g37
tp575
g4
(g8
S'=F\xe6\xdf\xc5\x92\xc9?'
p576
tp577
Rp578
s((I0
I0
I0
I1
I1
I1
I1
I1
I1
I1
I1
I1
I1
I1
I1
I1
I1
I1
I1
I1
I1
I1
I1
I1
I1
I1
I1
I1
I1
I0
I0
I0
I0
I0
I0
I0
I0
I0
I0
I0
I0
I0
I0
I0
I0
I0
I0
I0
I0
I0
I0
I0
I0
I0
I0
I0
I0
I0
I0
I0
I0
I0
I0
I0
I0
I0
I0
I0
I0
I0
I0
I0
I0
I0
I0
I0
I0
I0
I0
I0
I0
I0
I0
I0
I0
I0
I0
I0
I0
I0
I0
I0
I0
I0
I0
I0
I0
I0
I0
I0
I0
I0
I0
I0
tp579
g63
tp580
g4
(g8
S'\xd6A\xfd\xd3} \xfa?'
p581
tp582
Rp583
s((I0
I0
I1
I0
I1
I1
I1
I1
I1
I1
I1
I1
I1
I1
I1
I1
I1
I1
I1
I1
I1
I1
I1
I1
I1
I1
I1
I1
I1
I1
I1
I1
I1
I1
I1
I1
I1
I1
I1
I0
I0
I0
I0
I0
I0
I0
I0
I0
I0
I0
I0
I0
I0
I0
I0
I0
I0
I0
I0
I0
I0
I0
I0
I0
I0
I0
I0
I0
I0
I0
I0
I0
I0
I0
I0
I0
I0
I0
I0
I0
I0
I0
I0
I0
I0
I0
I0
I0
I0
I0
I0
I0
I0
I0
I0
I0
I0
I0
I0
I0
I0
I0
I0
I0
tp584
g74
tp585
F0.21739130434782608
s((I0
I1
I0
I0
I1
I1
I1
I1
I1
I1
I1
I1
I1
I1
I1
I1
I1
I1
I1
I1
I1
I1
I1
I1
I1
I1
I1
I1
I1
I1
I1
I1
I1
I1
I1
I1
I1
I1
I1
I1
I1
I1
I1
I1
I1
I1
I1
I1
I1
I1
I1
I1
I1
I1
I1
I1
I1
I1
I1
I1
I1
I1
I1
I1
I1
I1
I0
I0
I0
I0
I0
I0
I0
I0
I0
I0
I0
I0
I0
I0
I0
I0
I0
I0
I0
I0
I0
I0
I0
I0
I0
I0
I0
I0
I0
I0
I0
I0
I0
I0
I0
I0
I0
I0
tp586
g31
tp587
g4
(g8
S'\xdc\xb33\xda\xd0\xf6\xc8?'
p588
tp589
Rp590
s((I0
I0
I1
I0
I1
I1
I1
I1
I1
I1
I1
I1
I1
I1
I1
I1
I1
I1
I1
I1
I1
I1
I1
I1
I1
I1
I0
I0
I0
I0
I0
I0
I0
I0
I0
I0
I0
I0
I0
I0
I0
I0
I0
I0
I0
I0
I0
I0
I0
I0
I0
I0
I0
I0
I0
I0
I0
I0
I0
I0
I0
I0
I0
I0
I0
I0
I0
I0
I0
I0
I0
I0
I0
I0
I0
I0
I0
I0
I0
I0
I0
I0
I0
I0
I0
I0
I0
I0
I0
I0
I0
I0
I0
I0
I0
I0
I0
I0
I0
I0
I0
I0
I0
I0
tp591
g74
tp592
g4
(g8
S'b\xdd\xe7\xbe\xfe\x1b\xe6?'
p593
tp594
Rp595
s((I1
I0
I0
I0
I1
I1
I1
I1
I1
I1
I1
I1
I1
I1
I1
I1
I1
I1
I1
I1
I1
I1
I1
I1
I1
I1
I1
I1
I0
I0
I0
I0
I0
I0
I0
I0
I0
I0
I0
I0
I0
I0
I0
I0
I0
I0
I0
I0
I0
I0
I0
I0
I0
I0
I0
I0
I0
I0
I0
I0
I0
I0
I0
I0
I0
I0
I0
I0
I0
I0
I0
I0
I0
I0
I0
I0
I0
I0
I0
I0
I0
I0
I0
I0
I0
I0
I0
I0
I0
I0
I0
I0
I0
I0
I0
I0
I0
I0
I0
I0
I0
I0
I0
I0
tp596
g37
tp597
g4
(g8
S'z\xbda\xa0a\xab\xfe?'
p598
tp599
Rp600
s((I1
I0
I0
I0
I1
I1
I1
I1
I1
I1
I1
I1
I1
I1
I1
I1
I1
I1
I1
I1
I1
I1
I1
I1
I1
I1
I1
I1
I1
I1
I1
I1
I1
I1
I1
I1
I1
I1
I0
I0
I0
I0
I0
I0
I0
I0
I0
I0
I0
I0
I0
I0
I0
I0
I0
I0
I0
I0
I0
I0
I0
I0
I0
I0
I0
I0
I0
I0
I0
I0
I0
I0
I0
I0
I0
I0
I0
I0
I0
I0
I0
I0
I0
I0
I0
I0
I0
I0
I0
I0
I0
I0
I0
I0
I0
I0
I0
I0
I0
I0
I0
I0
I0
I0
tp601
g37
tp602
g4
(g8
S's\xb1\x06\x8a\xf1]\xd7?'
p603
tp604
Rp605
s((I0
I0
I1
I0
I1
I1
I1
I1
I1
I1
I1
I1
I1
I0
I0
I0
I0
I0
I0
I0
I0
I0
I0
I0
I0
I0
I0
I0
I0
I0
I0
I0
I0
I0
I0
I0
I0
I0
I0
I0
I0
I0
I0
I0
I0
I0
I0
I0
I0
I0
I0
I0
I0
I0
I0
I0
I0
I0
I0
I0
I0
I0
I0
I0
I0
I0
I0
I0
I0
I0
I0
I0
I0
I0
I0
I0
I0
I0
I0
I0
I0
I0
I0
I0
I0
I0
I0
I0
I0
I0
I0
I0
I0
I0
I0
I0
I0
I0
I0
I0
I0
I0
I0
I0
tp606
g74
tp607
g4
(g8
S'\xd1R\xfc*M\x82\xf3?'
p608
tp609
Rp610
s((I1
I0
I0
I0
I1
I1
I1
I1
I1
I1
I1
I1
I1
I1
I1
I1
I1
I1
I1
I1
I1
I1
I1
I1
I1
I1
I1
I1
I0
I0
I0
I0
I0
I0
I0
I0
I0
I0
I0
I0
I0
I0
I0
I0
I0
I0
I0
I0
I0
I0
I0
I0
I0
I0
I0
I0
I0
I0
I0
I0
I0
I0
I0
I0
I0
I0
I0
I0
I0
I0
I0
I0
I0
I0
I0
I0
I0
I0
I0
I0
I0
I0
I0
I0
I0
I0
I0
I0
I0
I0
I0
I0
I0
I0
I0
I0
I0
I0
I0
I0
I0
I0
I0
I0
tp611
g80
tp612
g4
(g8
S'\xba\x17\xea\xa4\xf1\xa4\xfe?'
p613
tp614
Rp615
s((I0
I1
I0
I0
I1
I1
I1
I1
I1
I1
I1
I1
I1
I1
I1
I1
I1
I1
I1
I1
I1
I1
I1
I1
I1
I1
I0
I0
I0
I0
I0
I0
I0
I0
I0
I0
I0
I0
I0
I0
I0
I0
I0
I0
I0
I0
I0
I0
I0
I0
I0
I0
I0
I0
I0
I0
I0
I0
I0
I0
I0
I0
I0
I0
I0
I0
I0
I0
I0
I0
I0
I0
I0
I0
I0
I0
I0
I0
I0
I0
I0
I0
I0
I0
I0
I0
I0
I0
I0
I0
I0
I0
I0
I0
I0
I0
I0
I0
I0
I0
I0
I0
I0
I0
tp616
g31
tp617
g4
(g8
S'\xb1\x83\xa5F\xeaq\x01@'
p618
tp619
Rp620
s((I0
I1
I0
I0
I1
I1
I1
I1
I1
I1
I1
I1
I1
I0
I0
I0
I0
I0
I0
I0
I0
I0
I0
I0
I0
I0
I0
I0
I0
I0
I0
I0
I0
I0
I0
I0
I0
I0
I0
I0
I0
I0
I0
I0
I0
I0
I0
I0
I0
I0
I0
I0
I0
I0
I0
I0
I0
I0
I0
I0
I0
I0
I0
I0
I0
I0
I0
I0
I0
I0
I0
I0
I0
I0
I0
I0
I0
I0
I0
I0
I0
I0
I0
I0
I0
I0
I0
I0
I0
I0
I0
I0
I0
I0
I0
I0
I0
I0
I0
I0
I0
I0
I0
I0
tp621
g31
tp622
g4
(g8
S"'5\x1a\xa6\x9d\xb1\xfc?"
p623
tp624
Rp625
s((I1
I0
I0
I0
I0
I0
I0
I0
I0
I0
I0
I0
I0
I0
I0
I0
I0
I0
I0
I0
I0
I0
I0
I0
I0
I0
I0
I0
I0
I0
I0
I0
I0
I0
I0
I0
I0
I0
I0
I0
I0
I0
I0
I0
I0
I0
I0
I0
I0
I0
I0
I0
I0
I0
I0
I0
I0
I0
I0
I0
I0
I0
I0
I0
I0
I0
I0
I0
I0
I0
I0
I0
I0
I0
I0
I0
I0
I0
I0
I0
I0
I0
I0
I0
I0
I0
I0
I0
I0
I0
I0
I0
I0
I0
I0
I0
I0
I0
I0
I0
I0
I0
I0
I0
tp626
g37
tp627
g4
(g8
S'(\x8d!m39\xfa?'
p628
tp629
Rp630
s((I0
I0
I0
I1
I1
I1
I1
I1
I1
I1
I1
I1
I1
I1
I1
I1
I1
I1
I1
I1
I1
I1
I1
I1
I1
I1
I1
I1
I1
I1
I1
I1
I1
I1
I1
I1
I0
I0
I0
I0
I0
I0
I0
I0
I0
I0
I0
I0
I0
I0
I0
I0
I0
I0
I0
I0
I0
I0
I0
I0
I0
I0
I0
I0
I0
I0
I0
I0
I0
I0
I0
I0
I0
I0
I0
I0
I0
I0
I0
I0
I0
I0
I0
I0
I0
I0
I0
I0
I0
I0
I0
I0
I0
I0
I0
I0
I0
I0
I0
I0
I0
I0
I0
I0
tp631
g63
tp632
g4
(g8
S'E\xe1.Tz\xc1\xfa?'
p633
tp634
Rp635
s((I0
I1
I0
I0
I1
I1
I1
I1
I1
I1
I0
I0
I0
I0
I0
I0
I0
I0
I0
I0
I0
I0
I0
I0
I0
I0
I0
I0
I0
I0
I0
I0
I0
I0
I0
I0
I0
I0
I0
I0
I0
I0
I0
I0
I0
I0
I0
I0
I0
I0
I0
I0
I0
I0
I0
I0
I0
I0
I0
I0
I0
I0
I0
I0
I0
I0
I0
I0
I0
I0
I0
I0
I0
I0
I0
I0
I0
I0
I0
I0
I0
I0
I0
I0
I0
I0
I0
I0
I0
I0
I0
I0
I0
I0
I0
I0
I0
I0
I0
I0
I0
I0
I0
I0
tp636
g31
tp637
g4
(g8
S'\xce\xdd\xbc\x1e\xe1\xce\xe0?'
p638
tp639
Rp640
s((I0
I0
I1
I0
I1
I1
I1
I1
I1
I1
I1
I1
I1
I1
I1
I1
I1
I1
I1
I1
I1
I0
I0
I0
I0
I0
I0
I0
I0
I0
I0
I0
I0
I0
I0
I0
I0
I0
I0
I0
I0
I0
I0
I0
I0
I0
I0
I0
I0
I0
I0
I0
I0
I0
I0
I0
I0
I0
I0
I0
I0
I0
I0
I0
I0
I0
I0
I0
I0
I0
I0
I0
I0
I0
I0
I0
I0
I0
I0
I0
I0
I0
I0
I0
I0
I0
I0
I0
I0
I0
I0
I0
I0
I0
I0
I0
I0
I0
I0
I0
I0
I0
I0
I0
tp641
g103
tp642
g4
(g8
S'{k\xa4T\x039\xfa?'
p643
tp644
Rp645
s((I0
I1
I0
I0
I1
I1
I1
I1
I1
I1
I1
I1
I1
I1
I1
I1
I1
I1
I1
I1
I1
I1
I1
I1
I1
I1
I1
I1
I1
I0
I0
I0
I0
I0
I0
I0
I0
I0
I0
I0
I0
I0
I0
I0
I0
I0
I0
I0
I0
I0
I0
I0
I0
I0
I0
I0
I0
I0
I0
I0
I0
I0
I0
I0
I0
I0
I0
I0
I0
I0
I0
I0
I0
I0
I0
I0
I0
I0
I0
I0
I0
I0
I0
I0
I0
I0
I0
I0
I0
I0
I0
I0
I0
I0
I0
I0
I0
I0
I0
I0
I0
I0
I0
I0
tp646
g31
tp647
g4
(g8
S'u\xbec\xc3\x97{\xd9?'
p648
tp649
Rp650
s((I0
I0
I0
I1
I1
I1
I1
I1
I1
I1
I1
I1
I1
I1
I1
I1
I1
I1
I1
I1
I1
I1
I1
I1
I1
I1
I1
I1
I1
I1
I1
I1
I1
I1
I1
I1
I1
I1
I1
I1
I1
I1
I1
I1
I0
I0
I0
I0
I0
I0
I0
I0
I0
I0
I0
I0
I0
I0
I0
I0
I0
I0
I0
I0
I0
I0
I0
I0
I0
I0
I0
I0
I0
I0
I0
I0
I0
I0
I0
I0
I0
I0
I0
I0
I0
I0
I0
I0
I0
I0
I0
I0
I0
I0
I0
I0
I0
I0
I0
I0
I0
I0
I0
I0
tp651
g63
tp652
g4
(g8
S'\xcfN|\xcd\x94m\xff?'
p653
tp654
Rp655
s((I0
I0
I1
I0
I1
I1
I1
I1
I1
I1
I1
I1
I1
I1
I1
I1
I1
I1
I1
I1
I1
I1
I1
I1
I1
I1
I1
I1
I1
I1
I1
I1
I0
I0
I0
I0
I0
I0
I0
I0
I0
I0
I0
I0
I0
I0
I0
I0
I0
I0
I0
I0
I0
I0
I0
I0
I0
I0
I0
I0
I0
I0
I0
I0
I0
I0
I0
I0
I0
I0
I0
I0
I0
I0
I0
I0
I0
I0
I0
I0
I0
I0
I0
I0
I0
I0
I0
I0
I0
I0
I0
I0
I0
I0
I0
I0
I0
I0
I0
I0
I0
I0
I0
I0
tp656
g74
tp657
g4
(g8
S'Zqqd\xa1\x9c\xfb?'
p658
tp659
Rp660
s((I0
I0
I1
I0
I1
I1
I1
I1
I1
I1
I1
I1
I1
I1
I1
I1
I1
I1
I1
I1
I1
I1
I1
I1
I1
I1
I1
I1
I1
I1
I1
I1
I1
I1
I1
I1
I1
I1
I1
I1
I1
I1
I1
I1
I1
I1
I1
I1
I1
I1
I1
I1
I1
I1
I1
I1
I1
I0
I0
I0
I0
I0
I0
I0
I0
I0
I0
I0
I0
I0
I0
I0
I0
I0
I0
I0
I0
I0
I0
I0
I0
I0
I0
I0
I0
I0
I0
I0
I0
I0
I0
I0
I0
I0
I0
I0
I0
I0
I0
I0
I0
I0
I0
I0
tp661
g103
tp662
g4
(g8
S'}\x8d\xe6\xb4\xdd\xca\x00@'
p663
tp664
Rp665
s((I0
I1
I0
I0
I1
I1
I1
I1
I1
I1
I1
I1
I1
I1
I1
I1
I1
I1
I1
I1
I1
I1
I1
I1
I1
I1
I1
I1
I1
I1
I1
I1
I1
I1
I1
I1
I1
I1
I1
I1
I1
I1
I1
I1
I1
I1
I1
I1
I1
I1
I1
I1
I1
I1
I1
I1
I1
I1
I1
I1
I1
I1
I1
I1
I1
I1
I1
I1
I1
I1
I1
I1
I1
I1
I0
I0
I0
I0
I0
I0
I0
I0
I0
I0
I0
I0
I0
I0
I0
I0
I0
I0
I0
I0
I0
I0
I0
I0
I0
I0
I0
I0
I0
I0
tp666
g31
tp667
g4
(g8
S'@\xf5\xb5\x8a@\xc6\xb4?'
p668
tp669
Rp670
s((I1
I0
I0
I0
I0
I0
I0
I0
I0
I0
I0
I0
I0
I0
I0
I0
I0
I0
I0
I0
I0
I0
I0
I0
I0
I0
I0
I0
I0
I0
I0
I0
I0
I0
I0
I0
I0
I0
I0
I0
I0
I0
I0
I0
I0
I0
I0
I0
I0
I0
I0
I0
I0
I0
I0
I0
I0
I0
I0
I0
I0
I0
I0
I0
I0
I0
I0
I0
I0
I0
I0
I0
I0
I0
I0
I0
I0
I0
I0
I0
I0
I0
I0
I0
I0
I0
I0
I0
I0
I0
I0
I0
I0
I0
I0
I0
I0
I0
I0
I0
I0
I0
I0
I0
tp671
g20
tp672
g4
(g8
S'\xde\xe0\xd9\x11D\t\xf5?'
p673
tp674
Rp675
s((I0
I0
I1
I0
I1
I1
I1
I1
I1
I1
I1
I1
I1
I1
I1
I1
I1
I1
I1
I1
I1
I1
I1
I1
I1
I1
I1
I1
I1
I1
I1
I1
I1
I1
I1
I1
I1
I1
I1
I1
I1
I1
I1
I1
I1
I1
I1
I0
I0
I0
I0
I0
I0
I0
I0
I0
I0
I0
I0
I0
I0
I0
I0
I0
I0
I0
I0
I0
I0
I0
I0
I0
I0
I0
I0
I0
I0
I0
I0
I0
I0
I0
I0
I0
I0
I0
I0
I0
I0
I0
I0
I0
I0
I0
I0
I0
I0
I0
I0
I0
I0
I0
I0
I0
tp676
g74
tp677
g4
(g8
S'\xd6\xe9\xd1\xf044\x00@'
p678
tp679
Rp680
s((I0
I0
I1
I0
I1
I1
I1
I1
I1
I1
I1
I1
I1
I1
I1
I1
I1
I1
I1
I0
I0
I0
I0
I0
I0
I0
I0
I0
I0
I0
I0
I0
I0
I0
I0
I0
I0
I0
I0
I0
I0
I0
I0
I0
I0
I0
I0
I0
I0
I0
I0
I0
I0
I0
I0
I0
I0
I0
I0
I0
I0
I0
I0
I0
I0
I0
I0
I0
I0
I0
I0
I0
I0
I0
I0
I0
I0
I0
I0
I0
I0
I0
I0
I0
I0
I0
I0
I0
I0
I0
I0
I0
I0
I0
I0
I0
I0
I0
I0
I0
I0
I0
I0
I0
tp681
g103
tp682
g4
(g8
S'\x16\xf8\xe8\xdbQ \xe8?'
p683
tp684
Rp685
s((I0
I0
I0
I1
I1
I1
I1
I1
I1
I1
I1
I1
I1
I1
I1
I1
I1
I1
I1
I1
I1
I1
I0
I0
I0
I0
I0
I0
I0
I0
I0
I0
I0
I0
I0
I0
I0
I0
I0
I0
I0
I0
I0
I0
I0
I0
I0
I0
I0
I0
I0
I0
I0
I0
I0
I0
I0
I0
I0
I0
I0
I0
I0
I0
I0
I0
I0
I0
I0
I0
I0
I0
I0
I0
I0
I0
I0
I0
I0
I0
I0
I0
I0
I0
I0
I0
I0
I0
I0
I0
I0
I0
I0
I0
I0
I0
I0
I0
I0
I0
I0
I0
I0
I0
tp686
g63
tp687
g4
(g8
S'\xee\xa7n\x86\xb07\xf6?'
p688
tp689
Rp690
s((I0
I0
I1
I0
I1
I1
I1
I1
I1
I1
I1
I1
I1
I1
I1
I0
I0
I0
I0
I0
I0
I0
I0
I0
I0
I0
I0
I0
I0
I0
I0
I0
I0
I0
I0
I0
I0
I0
I0
I0
I0
I0
I0
I0
I0
I0
I0
I0
I0
I0
I0
I0
I0
I0
I0
I0
I0
I0
I0
I0
I0
I0
I0
I0
I0
I0
I0
I0
I0
I0
I0
I0
I0
I0
I0
I0
I0
I0
I0
I0
I0
I0
I0
I0
I0
I0
I0
I0
I0
I0
I0
I0
I0
I0
I0
I0
I0
I0
I0
I0
I0
I0
I0
I0
tp691
g103
tp692
g4
(g8
S'\xcc\xa2\xa5f2@\xf0?'
p693
tp694
Rp695
s((I0
I0
I0
I1
I1
I1
I1
I1
I1
I1
I1
I1
I1
I1
I1
I1
I1
I1
I1
I1
I1
I1
I1
I1
I1
I1
I1
I1
I1
I1
I1
I1
I1
I1
I1
I1
I1
I1
I1
I1
I1
I1
I1
I1
I1
I1
I1
I1
I1
I1
I1
I1
I1
I1
I1
I1
I1
I1
I1
I1
I1
I1
I1
I1
I1
I0
I0
I0
I0
I0
I0
I0
I0
I0
I0
I0
I0
I0
I0
I0
I0
I0
I0
I0
I0
I0
I0
I0
I0
I0
I0
I0
I0
I0
I0
I0
I0
I0
I0
I0
I0
I0
I0
I0
tp696
g63
tp697
g4
(g8
S'\xc2\xd3\xf1A4\xa0\x02@'
p698
tp699
Rp700
s((I0
I1
I0
I0
I1
I1
I1
I1
I1
I1
I1
I1
I1
I1
I1
I1
I1
I1
I1
I1
I1
I1
I1
I1
I1
I1
I1
I1
I1
I1
I1
I1
I1
I1
I1
I1
I1
I1
I1
I1
I1
I1
I1
I1
I1
I1
I1
I1
I1
I1
I1
I1
I1
I1
I1
I1
I1
I1
I1
I1
I1
I1
I1
I1
I1
I1
I0
I0
I0
I0
I0
I0
I0
I0
I0
I0
I0
I0
I0
I0
I0
I0
I0
I0
I0
I0
I0
I0
I0
I0
I0
I0
I0
I0
I0
I0
I0
I0
I0
I0
I0
I0
I0
I0
tp701
g2
tp702
g4
(g8
S'c\xc2\x80\xe3*n\xff?'
p703
tp704
Rp705
s((I1
I0
I0
I0
I1
I1
I1
I1
I1
I1
I1
I1
I1
I1
I1
I0
I0
I0
I0
I0
I0
I0
I0
I0
I0
I0
I0
I0
I0
I0
I0
I0
I0
I0
I0
I0
I0
I0
I0
I0
I0
I0
I0
I0
I0
I0
I0
I0
I0
I0
I0
I0
I0
I0
I0
I0
I0
I0
I0
I0
I0
I0
I0
I0
I0
I0
I0
I0
I0
I0
I0
I0
I0
I0
I0
I0
I0
I0
I0
I0
I0
I0
I0
I0
I0
I0
I0
I0
I0
I0
I0
I0
I0
I0
I0
I0
I0
I0
I0
I0
I0
I0
I0
I0
tp706
g80
tp707
g4
(g8
S'\x07r\x85\xe9+\xa1\xf0?'
p708
tp709
Rp710
s((I0
I0
I1
I0
I1
I1
I1
I1
I1
I1
I1
I1
I1
I1
I1
I1
I1
I1
I1
I1
I1
I1
I1
I1
I1
I1
I1
I1
I1
I1
I1
I0
I0
I0
I0
I0
I0
I0
I0
I0
I0
I0
I0
I0
I0
I0
I0
I0
I0
I0
I0
I0
I0
I0
I0
I0
I0
I0
I0
I0
I0
I0
I0
I0
I0
I0
I0
I0
I0
I0
I0
I0
I0
I0
I0
I0
I0
I0
I0
I0
I0
I0
I0
I0
I0
I0
I0
I0
I0
I0
I0
I0
I0
I0
I0
I0
I0
I0
I0
I0
I0
I0
I0
I0
tp711
g103
tp712
g4
(g8
S'c\x94\xd5\r\xe2\xf8\xf1?'
p713
tp714
Rp715
s((I0
I0
I1
I0
I1
I1
I1
I1
I1
I1
I1
I1
I1
I1
I1
I1
I1
I1
I1
I1
I1
I1
I1
I1
I1
I1
I1
I1
I1
I1
I1
I1
I1
I1
I1
I1
I1
I1
I1
I1
I1
I1
I1
I0
I0
I0
I0
I0
I0
I0
I0
I0
I0
I0
I0
I0
I0
I0
I0
I0
I0
I0
I0
I0
I0
I0
I0
I0
I0
I0
I0
I0
I0
I0
I0
I0
I0
I0
I0
I0
I0
I0
I0
I0
I0
I0
I0
I0
I0
I0
I0
I0
I0
I0
I0
I0
I0
I0
I0
I0
I0
I0
I0
I0
tp716
g74
tp717
g4
(g8
S'\x94\xad\x02\x1e\xbe\xa8\xff?'
p718
tp719
Rp720
s((I0
I0
I1
I0
I1
I1
I1
I1
I1
I1
I1
I1
I1
I1
I1
I1
I1
I1
I0
I0
I0
I0
I0
I0
I0
I0
I0
I0
I0
I0
I0
I0
I0
I0
I0
I0
I0
I0
I0
I0
I0
I0
I0
I0
I0
I0
I0
I0
I0
I0
I0
I0
I0
I0
I0
I0
I0
I0
I0
I0
I0
I0
I0
I0
I0
I0
I0
I0
I0
I0
I0
I0
I0
I0
I0
I0
I0
I0
I0
I0
I0
I0
I0
I0
I0
I0
I0
I0
I0
I0
I0
I0
I0
I0
I0
I0
I0
I0
I0
I0
I0
I0
I0
I0
tp721
g103
tp722
g4
(g8
S'v\xa1\xf9\x86\xd7\xe0\xfa?'
p723
tp724
Rp725
s((I0
I1
I0
I0
I1
I1
I1
I1
I1
I1
I1
I1
I1
I1
I1
I1
I1
I1
I1
I1
I1
I0
I0
I0
I0
I0
I0
I0
I0
I0
I0
I0
I0
I0
I0
I0
I0
I0
I0
I0
I0
I0
I0
I0
I0
I0
I0
I0
I0
I0
I0
I0
I0
I0
I0
I0
I0
I0
I0
I0
I0
I0
I0
I0
I0
I0
I0
I0
I0
I0
I0
I0
I0
I0
I0
I0
I0
I0
I0
I0
I0
I0
I0
I0
I0
I0
I0
I0
I0
I0
I0
I0
I0
I0
I0
I0
I0
I0
I0
I0
I0
I0
I0
I0
tp726
g31
tp727
g4
(g8
S'\xec\x19h\xd3Pz\xef?'
p728
tp729
Rp730
s((I0
I0
I0
I1
I1
I1
I1
I1
I1
I1
I1
I1
I1
I1
I1
I1
I1
I1
I1
I1
I1
I1
I1
I1
I1
I1
I1
I1
I0
I0
I0
I0
I0
I0
I0
I0
I0
I0
I0
I0
I0
I0
I0
I0
I0
I0
I0
I0
I0
I0
I0
I0
I0
I0
I0
I0
I0
I0
I0
I0
I0
I0
I0
I0
I0
I0
I0
I0
I0
I0
I0
I0
I0
I0
I0
I0
I0
I0
I0
I0
I0
I0
I0
I0
I0
I0
I0
I0
I0
I0
I0
I0
I0
I0
I0
I0
I0
I0
I0
I0
I0
I0
I0
I0
tp731
g63
tp732
g4
(g8
S'\xc9\xfd<^x(\xf9?'
p733
tp734
Rp735
s((I0
I0
I0
I1
I1
I1
I1
I1
I1
I1
I1
I1
I1
I1
I1
I1
I1
I1
I1
I1
I1
I1
I1
I0
I0
I0
I0
I0
I0
I0
I0
I0
I0
I0
I0
I0
I0
I0
I0
I0
I0
I0
I0
I0
I0
I0
I0
I0
I0
I0
I0
I0
I0
I0
I0
I0
I0
I0
I0
I0
I0
I0
I0
I0
I0
I0
I0
I0
I0
I0
I0
I0
I0
I0
I0
I0
I0
I0
I0
I0
I0
I0
I0
I0
I0
I0
I0
I0
I0
I0
I0
I0
I0
I0
I0
I0
I0
I0
I0
I0
I0
I0
I0
I0
tp736
g63
tp737
g4
(g8
S'\xe0\xa3C\x06`9\xf7?'
p738
tp739
Rp740
s((I0
I0
I1
I0
I1
I1
I1
I1
I1
I1
I1
I1
I1
I1
I1
I1
I1
I1
I1
I1
I1
I1
I1
I1
I1
I1
I0
I0
I0
I0
I0
I0
I0
I0
I0
I0
I0
I0
I0
I0
I0
I0
I0
I0
I0
I0
I0
I0
I0
I0
I0
I0
I0
I0
I0
I0
I0
I0
I0
I0
I0
I0
I0
I0
I0
I0
I0
I0
I0
I0
I0
I0
I0
I0
I0
I0
I0
I0
I0
I0
I0
I0
I0
I0
I0
I0
I0
I0
I0
I0
I0
I0
I0
I0
I0
I0
I0
I0
I0
I0
I0
I0
I0
I0
tp741
g103
tp742
g4
(g8
S'<XlW\x9a9\xfc?'
p743
tp744
Rp745
s((I0
I0
I0
I1
I1
I1
I1
I1
I1
I1
I1
I1
I1
I1
I1
I1
I1
I1
I1
I1
I1
I1
I1
I1
I1
I1
I1
I0
I0
I0
I0
I0
I0
I0
I0
I0
I0
I0
I0
I0
I0
I0
I0
I0
I0
I0
I0
I0
I0
I0
I0
I0
I0
I0
I0
I0
I0
I0
I0
I0
I0
I0
I0
I0
I0
I0
I0
I0
I0
I0
I0
I0
I0
I0
I0
I0
I0
I0
I0
I0
I0
I0
I0
I0
I0
I0
I0
I0
I0
I0
I0
I0
I0
I0
I0
I0
I0
I0
I0
I0
I0
I0
I0
I0
tp746
g63
tp747
g4
(g8
S'+-[\x02O\xc4\xf8?'
p748
tp749
Rp750
s((I0
I0
I0
I1
I1
I1
I1
I1
I1
I1
I1
I1
I1
I1
I1
I1
I1
I1
I1
I1
I1
I1
I1
I1
I1
I1
I1
I1
I1
I1
I1
I1
I1
I1
I1
I1
I1
I1
I1
I1
I1
I1
I1
I1
I1
I1
I1
I1
I1
I1
I1
I1
I1
I1
I1
I1
I1
I1
I1
I1
I1
I1
I1
I1
I1
I1
I1
I1
I0
I0
I0
I0
I0
I0
I0
I0
I0
I0
I0
I0
I0
I0
I0
I0
I0
I0
I0
I0
I0
I0
I0
I0
I0
I0
I0
I0
I0
I0
I0
I0
I0
I0
I0
I0
tp751
g63
tp752
g4
(g8
S'B P3\xd4\x8a\x01@'
p753
tp754
Rp755
s((I0
I0
I0
I1
I1
I1
I1
I1
I1
I1
I1
I1
I1
I1
I1
I1
I1
I1
I1
I1
I1
I1
I1
I1
I1
I1
I1
I1
I1
I1
I1
I1
I1
I1
I1
I1
I1
I1
I1
I1
I1
I1
I1
I1
I1
I1
I1
I0
I0
I0
I0
I0
I0
I0
I0
I0
I0
I0
I0
I0
I0
I0
I0
I0
I0
I0
I0
I0
I0
I0
I0
I0
I0
I0
I0
I0
I0
I0
I0
I0
I0
I0
I0
I0
I0
I0
I0
I0
I0
I0
I0
I0
I0
I0
I0
I0
I0
I0
I0
I0
I0
I0
I0
I0
tp756
g63
tp757
g4
(g8
S'HH\xcc\x99\xa5\xa4\xfd?'
p758
tp759
Rp760
s((I1
I0
I0
I0
I1
I1
I1
I1
I1
I1
I0
I0
I0
I0
I0
I0
I0
I0
I0
I0
I0
I0
I0
I0
I0
I0
I0
I0
I0
I0
I0
I0
I0
I0
I0
I0
I0
I0
I0
I0
I0
I0
I0
I0
I0
I0
I0
I0
I0
I0
I0
I0
I0
I0
I0
I0
I0
I0
I0
I0
I0
I0
I0
I0
I0
I0
I0
I0
I0
I0
I0
I0
I0
I0
I0
I0
I0
I0
I0
I0
I0
I0
I0
I0
I0
I0
I0
I0
I0
I0
I0
I0
I0
I0
I0
I0
I0
I0
I0
I0
I0
I0
I0
I0
tp761
g37
tp762
g4
(g8
S'\xd8~/\x08\xc8\xa2\xed?'
p763
tp764
Rp765
s((I0
I1
I0
I0
I1
I1
I1
I1
I1
I1
I1
I1
I1
I1
I1
I1
I1
I1
I1
I1
I1
I1
I1
I1
I1
I1
I1
I1
I1
I1
I1
I1
I1
I1
I1
I1
I1
I1
I1
I1
I1
I1
I1
I1
I1
I1
I1
I1
I1
I1
I1
I1
I1
I1
I1
I1
I1
I1
I1
I1
I1
I1
I1
I1
I1
I1
I1
I1
I1
I1
I1
I1
I1
I1
I1
I1
I1
I1
I1
I1
I1
I1
I1
I1
I1
I0
I0
I0
I0
I0
I0
I0
I0
I0
I0
I0
I0
I0
I0
I0
I0
I0
I0
I0
tp766
g2
tp767
g4
(g8
S'1\xd6\xe6\xe2\x12\xcb\xd0?'
p768
tp769
Rp770
s((I1
I0
I0
I0
I1
I1
I1
I1
I1
I1
I1
I1
I1
I1
I1
I1
I1
I1
I1
I1
I1
I1
I1
I1
I1
I1
I1
I1
I1
I1
I1
I1
I0
I0
I0
I0
I0
I0
I0
I0
I0
I0
I0
I0
I0
I0
I0
I0
I0
I0
I0
I0
I0
I0
I0
I0
I0
I0
I0
I0
I0
I0
I0
I0
I0
I0
I0
I0
I0
I0
I0
I0
I0
I0
I0
I0
I0
I0
I0
I0
I0
I0
I0
I0
I0
I0
I0
I0
I0
I0
I0
I0
I0
I0
I0
I0
I0
I0
I0
I0
I0
I0
I0
I0
tp771
g20
tp772
g4
(g8
S'\xbd\x18\xf6\xac\xf6\xbf\x01@'
p773
tp774
Rp775
s((I0
I1
I0
I0
I1
I1
I1
I1
I1
I1
I1
I1
I1
I1
I1
I1
I1
I1
I1
I1
I1
I1
I1
I1
I1
I1
I1
I1
I0
I0
I0
I0
I0
I0
I0
I0
I0
I0
I0
I0
I0
I0
I0
I0
I0
I0
I0
I0
I0
I0
I0
I0
I0
I0
I0
I0
I0
I0
I0
I0
I0
I0
I0
I0
I0
I0
I0
I0
I0
I0
I0
I0
I0
I0
I0
I0
I0
I0
I0
I0
I0
I0
I0
I0
I0
I0
I0
I0
I0
I0
I0
I0
I0
I0
I0
I0
I0
I0
I0
I0
I0
I0
I0
I0
tp776
g2
tp777
g4
(g8
S'\x07\x81\x99\xec\xe3\xd3\xd6?'
p778
tp779
Rp780
s((I0
I0
I1
I0
I1
I1
I1
I1
I1
I1
I1
I1
I1
I1
I1
I1
I1
I1
I1
I1
I1
I1
I0
I0
I0
I0
I0
I0
I0
I0
I0
I0
I0
I0
I0
I0
I0
I0
I0
I0
I0
I0
I0
I0
I0
I0
I0
I0
I0
I0
I0
I0
I0
I0
I0
I0
I0
I0
I0
I0
I0
I0
I0
I0
I0
I0
I0
I0
I0
I0
I0
I0
I0
I0
I0
I0
I0
I0
I0
I0
I0
I0
I0
I0
I0
I0
I0
I0
I0
I0
I0
I0
I0
I0
I0
I0
I0
I0
I0
I0
I0
I0
I0
I0
tp781
g103
tp782
g4
(g8
S'L\xf6\xb1\xcaD\xbe\xfa?'
p783
tp784
Rp785
s((I0
I0
I0
I1
I1
I1
I1
I1
I1
I1
I1
I1
I1
I1
I1
I1
I1
I1
I1
I1
I1
I1
I1
I1
I1
I1
I1
I1
I1
I1
I1
I1
I1
I1
I1
I1
I1
I1
I1
I1
I1
I1
I1
I1
I1
I1
I1
I1
I1
I1
I1
I1
I1
I1
I1
I1
I1
I1
I1
I1
I1
I1
I1
I1
I1
I1
I0
I0
I0
I0
I0
I0
I0
I0
I0
I0
I0
I0
I0
I0
I0
I0
I0
I0
I0
I0
I0
I0
I0
I0
I0
I0
I0
I0
I0
I0
I0
I0
I0
I0
I0
I0
I0
I0
tp786
g63
tp787
g4
(g8
S')\x98\xeb\xc5\xf4\xbf\x01@'
p788
tp789
Rp790
s((I1
I0
I0
I0
I1
I1
I1
I1
I1
I1
I1
I1
I1
I1
I1
I1
I1
I1
I1
I1
I1
I1
I0
I0
I0
I0
I0
I0
I0
I0
I0
I0
I0
I0
I0
I0
I0
I0
I0
I0
I0
I0
I0
I0
I0
I0
I0
I0
I0
I0
I0
I0
I0
I0
I0
I0
I0
I0
I0
I0
I0
I0
I0
I0
I0
I0
I0
I0
I0
I0
I0
I0
I0
I0
I0
I0
I0
I0
I0
I0
I0
I0
I0
I0
I0
I0
I0
I0
I0
I0
I0
I0
I0
I0
I0
I0
I0
I0
I0
I0
I0
I0
I0
I0
tp791
g80
tp792
g4
(g8
S'\x8c\x0b\x18\xc9\xd4N\xfa?'
p793
tp794
Rp795
s((I1
I0
I0
I0
I1
I1
I1
I1
I1
I1
I1
I1
I1
I1
I1
I1
I1
I1
I1
I1
I1
I1
I1
I1
I1
I1
I1
I1
I1
I0
I0
I0
I0
I0
I0
I0
I0
I0
I0
I0
I0
I0
I0
I0
I0
I0
I0
I0
I0
I0
I0
I0
I0
I0
I0
I0
I0
I0
I0
I0
I0
I0
I0
I0
I0
I0
I0
I0
I0
I0
I0
I0
I0
I0
I0
I0
I0
I0
I0
I0
I0
I0
I0
I0
I0
I0
I0
I0
I0
I0
I0
I0
I0
I0
I0
I0
I0
I0
I0
I0
I0
I0
I0
I0
tp796
g37
tp797
g4
(g8
S'~\x0fu\xb2|\x13\xfe?'
p798
tp799
Rp800
s((I0
I0
I0
I1
I1
I1
I1
I1
I1
I1
I1
I1
I1
I1
I0
I0
I0
I0
I0
I0
I0
I0
I0
I0
I0
I0
I0
I0
I0
I0
I0
I0
I0
I0
I0
I0
I0
I0
I0
I0
I0
I0
I0
I0
I0
I0
I0
I0
I0
I0
I0
I0
I0
I0
I0
I0
I0
I0
I0
I0
I0
I0
I0
I0
I0
I0
I0
I0
I0
I0
I0
I0
I0
I0
I0
I0
I0
I0
I0
I0
I0
I0
I0
I0
I0
I0
I0
I0
I0
I0
I0
I0
I0
I0
I0
I0
I0
I0
I0
I0
I0
I0
I0
I0
tp801
g63
tp802
g4
(g8
S'\xaa~\xbe,\xaf\x99\xdf?'
p803
tp804
Rp805
s((I0
I1
I0
I0
I1
I1
I1
I1
I1
I1
I1
I1
I1
I1
I1
I1
I1
I1
I1
I1
I1
I1
I1
I1
I1
I1
I1
I1
I1
I1
I1
I1
I1
I1
I1
I1
I1
I1
I1
I1
I1
I0
I0
I0
I0
I0
I0
I0
I0
I0
I0
I0
I0
I0
I0
I0
I0
I0
I0
I0
I0
I0
I0
I0
I0
I0
I0
I0
I0
I0
I0
I0
I0
I0
I0
I0
I0
I0
I0
I0
I0
I0
I0
I0
I0
I0
I0
I0
I0
I0
I0
I0
I0
I0
I0
I0
I0
I0
I0
I0
I0
I0
I0
I0
tp806
g2
tp807
g4
(g8
S'\xef\x04\xb4e\xaf\x07\x01@'
p808
tp809
Rp810
s((I1
I0
I0
I0
I1
I1
I1
I1
I1
I1
I1
I1
I1
I1
I0
I0
I0
I0
I0
I0
I0
I0
I0
I0
I0
I0
I0
I0
I0
I0
I0
I0
I0
I0
I0
I0
I0
I0
I0
I0
I0
I0
I0
I0
I0
I0
I0
I0
I0
I0
I0
I0
I0
I0
I0
I0
I0
I0
I0
I0
I0
I0
I0
I0
I0
I0
I0
I0
I0
I0
I0
I0
I0
I0
I0
I0
I0
I0
I0
I0
I0
I0
I0
I0
I0
I0
I0
I0
I0
I0
I0
I0
I0
I0
I0
I0
I0
I0
I0
I0
I0
I0
I0
I0
tp811
g37
tp812
g4
(g8
S'\xfcx\xbcm\xb7\t\xff?'
p813
tp814
Rp815
s((I0
I0
I0
I1
I1
I1
I1
I1
I1
I1
I1
I1
I1
I1
I1
I1
I1
I1
I1
I1
I1
I1
I1
I1
I1
I1
I1
I1
I1
I1
I1
I1
I1
I1
I1
I1
I1
I1
I1
I1
I1
I1
I1
I1
I1
I1
I1
I1
I1
I1
I1
I1
I1
I1
I1
I1
I1
I1
I1
I1
I1
I1
I1
I1
I1
I1
I1
I1
I1
I1
I1
I1
I1
I1
I1
I1
I1
I1
I1
I1
I1
I1
I1
I1
I1
I1
I1
I1
I0
I0
I0
I0
I0
I0
I0
I0
I0
I0
I0
I0
I0
I0
I0
I0
tp816
g63
tp817
g4
(g8
S'\xadFv\xa0[\x04\xfc?'
p818
tp819
Rp820
s((I0
I1
I0
I0
I1
I1
I1
I1
I1
I1
I1
I1
I1
I1
I1
I1
I1
I1
I1
I1
I1
I1
I1
I1
I1
I1
I1
I1
I1
I1
I1
I1
I1
I1
I1
I1
I1
I1
I1
I1
I1
I1
I1
I1
I1
I1
I1
I1
I1
I1
I1
I1
I1
I1
I1
I1
I1
I0
I0
I0
I0
I0
I0
I0
I0
I0
I0
I0
I0
I0
I0
I0
I0
I0
I0
I0
I0
I0
I0
I0
I0
I0
I0
I0
I0
I0
I0
I0
I0
I0
I0
I0
I0
I0
I0
I0
I0
I0
I0
I0
I0
I0
I0
I0
tp821
g31
tp822
g4
(g8
S']\x98\xa5\xda\xa8\x8a\x00@'
p823
tp824
Rp825
s((I1
I0
I0
I0
I1
I1
I1
I1
I1
I1
I1
I1
I1
I1
I1
I1
I1
I1
I1
I1
I1
I1
I1
I1
I1
I1
I1
I1
I1
I1
I1
I1
I1
I1
I1
I1
I1
I1
I0
I0
I0
I0
I0
I0
I0
I0
I0
I0
I0
I0
I0
I0
I0
I0
I0
I0
I0
I0
I0
I0
I0
I0
I0
I0
I0
I0
I0
I0
I0
I0
I0
I0
I0
I0
I0
I0
I0
I0
I0
I0
I0
I0
I0
I0
I0
I0
I0
I0
I0
I0
I0
I0
I0
I0
I0
I0
I0
I0
I0
I0
I0
I0
I0
I0
tp826
g80
tp827
g4
(g8
S'q\x9a\xb0\x05xA\xf7?'
p828
tp829
Rp830
s((I0
I1
I0
I0
I1
I1
I1
I1
I1
I1
I1
I1
I1
I1
I1
I1
I1
I1
I1
I1
I1
I1
I1
I1
I1
I1
I1
I1
I1
I1
I1
I1
I1
I1
I1
I1
I1
I1
I0
I0
I0
I0
I0
I0
I0
I0
I0
I0
I0
I0
I0
I0
I0
I0
I0
I0
I0
I0
I0
I0
I0
I0
I0
I0
I0
I0
I0
I0
I0
I0
I0
I0
I0
I0
I0
I0
I0
I0
I0
I0
I0
I0
I0
I0
I0
I0
I0
I0
I0
I0
I0
I0
I0
I0
I0
I0
I0
I0
I0
I0
I0
I0
I0
I0
tp831
g31
tp832
g4
(g8
S'\xbc\x8d6\xbb\x9fV\x02@'
p833
tp834
Rp835
s((I0
I0
I1
I0
I1
I1
I1
I1
I1
I1
I1
I1
I1
I1
I1
I1
I1
I1
I1
I1
I1
I1
I1
I1
I1
I1
I1
I1
I1
I1
I1
I1
I1
I1
I1
I1
I1
I1
I1
I1
I1
I1
I1
I1
I1
I1
I1
I1
I1
I1
I1
I1
I1
I1
I1
I1
I1
I1
I1
I1
I0
I0
I0
I0
I0
I0
I0
I0
I0
I0
I0
I0
I0
I0
I0
I0
I0
I0
I0
I0
I0
I0
I0
I0
I0
I0
I0
I0
I0
I0
I0
I0
I0
I0
I0
I0
I0
I0
I0
I0
I0
I0
I0
I0
tp836
g103
tp837
F0.2222222222222222
s((I0
I0
I1
I0
I1
I1
I1
I1
I1
I1
I1
I1
I1
I1
I1
I1
I1
I1
I1
I1
I1
I1
I1
I1
I1
I1
I1
I1
I1
I1
I1
I1
I1
I0
I0
I0
I0
I0
I0
I0
I0
I0
I0
I0
I0
I0
I0
I0
I0
I0
I0
I0
I0
I0
I0
I0
I0
I0
I0
I0
I0
I0
I0
I0
I0
I0
I0
I0
I0
I0
I0
I0
I0
I0
I0
I0
I0
I0
I0
I0
I0
I0
I0
I0
I0
I0
I0
I0
I0
I0
I0
I0
I0
I0
I0
I0
I0
I0
I0
I0
I0
I0
I0
I0
tp838
g103
tp839
g4
(g8
S'~\xd0\x15\x02@\xbe\xff?'
p840
tp841
Rp842
s((I0
I0
I1
I0
I1
I1
I1
I1
I1
I1
I1
I1
I1
I1
I1
I1
I1
I1
I1
I1
I1
I1
I1
I1
I1
I1
I1
I1
I1
I1
I1
I1
I1
I1
I1
I1
I0
I0
I0
I0
I0
I0
I0
I0
I0
I0
I0
I0
I0
I0
I0
I0
I0
I0
I0
I0
I0
I0
I0
I0
I0
I0
I0
I0
I0
I0
I0
I0
I0
I0
I0
I0
I0
I0
I0
I0
I0
I0
I0
I0
I0
I0
I0
I0
I0
I0
I0
I0
I0
I0
I0
I0
I0
I0
I0
I0
I0
I0
I0
I0
I0
I0
I0
I0
tp843
g103
tp844
g4
(g8
S'L.18!\n\xf1?'
p845
tp846
Rp847
s((I0
I0
I0
I1
I1
I1
I1
I1
I1
I1
I1
I1
I1
I1
I1
I1
I1
I1
I1
I1
I1
I1
I1
I1
I1
I1
I1
I1
I1
I1
I1
I1
I1
I1
I1
I1
I1
I1
I1
I1
I1
I1
I1
I1
I1
I1
I1
I1
I1
I1
I1
I1
I1
I1
I1
I1
I1
I1
I1
I1
I1
I1
I1
I1
I1
I1
I1
I1
I1
I1
I1
I1
I1
I1
I1
I1
I1
I1
I1
I1
I1
I1
I1
I1
I1
I1
I1
I1
I1
I1
I1
I0
I0
I0
I0
I0
I0
I0
I0
I0
I0
I0
I0
I0
tp848
g63
tp849
g4
(g8
S'ziQ\xe1\xe1\xb7\xfc?'
p850
tp851
Rp852
s((I0
I1
I0
I0
I1
I1
I1
I1
I1
I1
I1
I1
I1
I1
I1
I1
I1
I1
I0
I0
I0
I0
I0
I0
I0
I0
I0
I0
I0
I0
I0
I0
I0
I0
I0
I0
I0
I0
I0
I0
I0
I0
I0
I0
I0
I0
I0
I0
I0
I0
I0
I0
I0
I0
I0
I0
I0
I0
I0
I0
I0
I0
I0
I0
I0
I0
I0
I0
I0
I0
I0
I0
I0
I0
I0
I0
I0
I0
I0
I0
I0
I0
I0
I0
I0
I0
I0
I0
I0
I0
I0
I0
I0
I0
I0
I0
I0
I0
I0
I0
I0
I0
I0
I0
tp853
g2
tp854
g4
(g8
S'\x0b\xf7\xb4\xe4\xe7\xdc\xf0?'
p855
tp856
Rp857
s((I0
I0
I0
I1
I1
I1
I1
I1
I1
I1
I1
I1
I1
I1
I1
I1
I1
I1
I1
I1
I1
I0
I0
I0
I0
I0
I0
I0
I0
I0
I0
I0
I0
I0
I0
I0
I0
I0
I0
I0
I0
I0
I0
I0
I0
I0
I0
I0
I0
I0
I0
I0
I0
I0
I0
I0
I0
I0
I0
I0
I0
I0
I0
I0
I0
I0
I0
I0
I0
I0
I0
I0
I0
I0
I0
I0
I0
I0
I0
I0
I0
I0
I0
I0
I0
I0
I0
I0
I0
I0
I0
I0
I0
I0
I0
I0
I0
I0
I0
I0
I0
I0
I0
I0
tp858
g63
tp859
g4
(g8
S'\xaa\xec\x13\xbcn\x94\xf6?'
p860
tp861
Rp862
s((I0
I0
I1
I0
I1
I1
I1
I1
I1
I1
I1
I1
I1
I1
I1
I1
I1
I1
I1
I1
I1
I1
I1
I1
I1
I1
I1
I1
I1
I1
I1
I1
I1
I1
I1
I1
I1
I1
I1
I0
I0
I0
I0
I0
I0
I0
I0
I0
I0
I0
I0
I0
I0
I0
I0
I0
I0
I0
I0
I0
I0
I0
I0
I0
I0
I0
I0
I0
I0
I0
I0
I0
I0
I0
I0
I0
I0
I0
I0
I0
I0
I0
I0
I0
I0
I0
I0
I0
I0
I0
I0
I0
I0
I0
I0
I0
I0
I0
I0
I0
I0
I0
I0
I0
tp863
g103
tp864
g4
(g8
S'\xb9\xaeST^\t\x00@'
p865
tp866
Rp867
s((I0
I1
I0
I0
I1
I1
I1
I1
I1
I1
I1
I1
I1
I1
I1
I1
I1
I1
I1
I1
I1
I1
I1
I1
I1
I1
I1
I1
I1
I1
I1
I0
I0
I0
I0
I0
I0
I0
I0
I0
I0
I0
I0
I0
I0
I0
I0
I0
I0
I0
I0
I0
I0
I0
I0
I0
I0
I0
I0
I0
I0
I0
I0
I0
I0
I0
I0
I0
I0
I0
I0
I0
I0
I0
I0
I0
I0
I0
I0
I0
I0
I0
I0
I0
I0
I0
I0
I0
I0
I0
I0
I0
I0
I0
I0
I0
I0
I0
I0
I0
I0
I0
I0
I0
tp868
g31
tp869
g4
(g8
S'\xc7\x08@p\xae&\x02@'
p870
tp871
Rp872
s((I0
I0
I0
I1
I1
I1
I1
I1
I1
I1
I1
I1
I1
I1
I1
I1
I1
I1
I1
I1
I1
I1
I1
I1
I1
I1
I1
I1
I1
I1
I1
I1
I1
I1
I1
I1
I1
I1
I1
I1
I1
I1
I1
I1
I1
I1
I1
I1
I1
I1
I1
I1
I1
I1
I1
I1
I1
I1
I1
I1
I0
I0
I0
I0
I0
I0
I0
I0
I0
I0
I0
I0
I0
I0
I0
I0
I0
I0
I0
I0
I0
I0
I0
I0
I0
I0
I0
I0
I0
I0
I0
I0
I0
I0
I0
I0
I0
I0
I0
I0
I0
I0
I0
I0
tp873
g63
tp874
g4
(g8
S'\xb1\xf6\xaf\xe4~V\x01@'
p875
tp876
Rp877
s((I0
I0
I0
I1
I1
I1
I1
I1
I1
I1
I1
I1
I1
I1
I1
I1
I1
I1
I1
I1
I1
I1
I1
I1
I1
I1
I1
I1
I1
I1
I1
I1
I1
I1
I1
I1
I1
I1
I1
I1
I1
I0
I0
I0
I0
I0
I0
I0
I0
I0
I0
I0
I0
I0
I0
I0
I0
I0
I0
I0
I0
I0
I0
I0
I0
I0
I0
I0
I0
I0
I0
I0
I0
I0
I0
I0
I0
I0
I0
I0
I0
I0
I0
I0
I0
I0
I0
I0
I0
I0
I0
I0
I0
I0
I0
I0
I0
I0
I0
I0
I0
I0
I0
I0
tp878
g63
tp879
g4
(g8
S'\x17h\xe5\x80\x10\xf6\xfd?'
p880
tp881
Rp882
s((I0
I0
I0
I1
I1
I1
I1
I1
I1
I1
I1
I1
I1
I1
I1
I1
I0
I0
I0
I0
I0
I0
I0
I0
I0
I0
I0
I0
I0
I0
I0
I0
I0
I0
I0
I0
I0
I0
I0
I0
I0
I0
I0
I0
I0
I0
I0
I0
I0
I0
I0
I0
I0
I0
I0
I0
I0
I0
I0
I0
I0
I0
I0
I0
I0
I0
I0
I0
I0
I0
I0
I0
I0
I0
I0
I0
I0
I0
I0
I0
I0
I0
I0
I0
I0
I0
I0
I0
I0
I0
I0
I0
I0
I0
I0
I0
I0
I0
I0
I0
I0
I0
I0
I0
tp883
g63
tp884
g4
(g8
S'`\xd1\xd3`\xad\xfc\xab?'
p885
tp886
Rp887
s((I0
I1
I0
I0
I1
I1
I1
I1
I1
I1
I1
I1
I1
I0
I0
I0
I0
I0
I0
I0
I0
I0
I0
I0
I0
I0
I0
I0
I0
I0
I0
I0
I0
I0
I0
I0
I0
I0
I0
I0
I0
I0
I0
I0
I0
I0
I0
I0
I0
I0
I0
I0
I0
I0
I0
I0
I0
I0
I0
I0
I0
I0
I0
I0
I0
I0
I0
I0
I0
I0
I0
I0
I0
I0
I0
I0
I0
I0
I0
I0
I0
I0
I0
I0
I0
I0
I0
I0
I0
I0
I0
I0
I0
I0
I0
I0
I0
I0
I0
I0
I0
I0
I0
I0
tp888
g2
tp889
g4
(g8
S'\xd0\xb9e\x06]T\xd3?'
p890
tp891
Rp892
s((I1
I0
I0
I0
I1
I1
I1
I1
I1
I1
I1
I1
I1
I1
I1
I1
I1
I1
I1
I1
I1
I1
I1
I1
I1
I1
I1
I1
I1
I1
I1
I1
I1
I1
I1
I1
I0
I0
I0
I0
I0
I0
I0
I0
I0
I0
I0
I0
I0
I0
I0
I0
I0
I0
I0
I0
I0
I0
I0
I0
I0
I0
I0
I0
I0
I0
I0
I0
I0
I0
I0
I0
I0
I0
I0
I0
I0
I0
I0
I0
I0
I0
I0
I0
I0
I0
I0
I0
I0
I0
I0
I0
I0
I0
I0
I0
I0
I0
I0
I0
I0
I0
I0
I0
tp893
g37
tp894
g4
(g8
S'\xab\x1f\xa3M!\x95\xe6?'
p895
tp896
Rp897
s((I0
I0
I1
I0
I1
I1
I1
I1
I1
I1
I1
I1
I1
I1
I1
I1
I1
I1
I1
I1
I1
I1
I1
I1
I1
I1
I1
I1
I1
I1
I1
I1
I1
I1
I1
I1
I1
I1
I1
I1
I1
I1
I1
I1
I1
I1
I1
I1
I1
I1
I1
I1
I1
I1
I0
I0
I0
I0
I0
I0
I0
I0
I0
I0
I0
I0
I0
I0
I0
I0
I0
I0
I0
I0
I0
I0
I0
I0
I0
I0
I0
I0
I0
I0
I0
I0
I0
I0
I0
I0
I0
I0
I0
I0
I0
I0
I0
I0
I0
I0
I0
I0
I0
I0
tp898
g103
tp899
g4
(g8
S'*\xd5=M\xdf\xa7\xfb?'
p900
tp901
Rp902
s((I0
I0
I1
I0
I1
I1
I1
I1
I1
I1
I1
I1
I1
I1
I1
I1
I1
I1
I1
I1
I1
I1
I1
I1
I1
I1
I1
I1
I1
I1
I1
I1
I1
I1
I1
I1
I0
I0
I0
I0
I0
I0
I0
I0
I0
I0
I0
I0
I0
I0
I0
I0
I0
I0
I0
I0
I0
I0
I0
I0
I0
I0
I0
I0
I0
I0
I0
I0
I0
I0
I0
I0
I0
I0
I0
I0
I0
I0
I0
I0
I0
I0
I0
I0
I0
I0
I0
I0
I0
I0
I0
I0
I0
I0
I0
I0
I0
I0
I0
I0
I0
I0
I0
I0
tp903
g74
tp904
g4
(g8
S'\xaf\x16R\x9b\x1b\x8b\xfe?'
p905
tp906
Rp907
s((I0
I0
I0
I1
I1
I1
I1
I1
I1
I1
I1
I1
I1
I1
I1
I1
I1
I1
I1
I1
I1
I1
I1
I1
I1
I1
I1
I1
I1
I1
I1
I1
I1
I1
I1
I1
I1
I1
I1
I1
I1
I1
I1
I1
I1
I1
I1
I1
I1
I1
I1
I1
I1
I1
I1
I1
I1
I1
I1
I1
I1
I1
I1
I1
I1
I1
I1
I1
I1
I1
I1
I1
I1
I1
I1
I1
I1
I1
I1
I1
I1
I1
I1
I1
I1
I1
I1
I1
I1
I1
I1
I1
I1
I1
I1
I1
I1
I1
I1
I1
I0
I0
I0
I0
tp908
g63
tp909
g4
(g8
S'\xdam\xbb\xe6\xab\xc7\xf2?'
p910
tp911
Rp912
s((I1
I0
I0
I0
I1
I1
I1
I1
I1
I1
I1
I1
I1
I1
I1
I1
I1
I1
I1
I1
I1
I1
I1
I1
I1
I1
I1
I1
I1
I1
I1
I1
I0
I0
I0
I0
I0
I0
I0
I0
I0
I0
I0
I0
I0
I0
I0
I0
I0
I0
I0
I0
I0
I0
I0
I0
I0
I0
I0
I0
I0
I0
I0
I0
I0
I0
I0
I0
I0
I0
I0
I0
I0
I0
I0
I0
I0
I0
I0
I0
I0
I0
I0
I0
I0
I0
I0
I0
I0
I0
I0
I0
I0
I0
I0
I0
I0
I0
I0
I0
I0
I0
I0
I0
tp913
g37
tp914
g4
(g8
S'\x19\x93\x08\x16\xf1\xcb\xea?'
p915
tp916
Rp917
s((I0
I1
I0
I0
I1
I1
I1
I1
I1
I1
I1
I1
I1
I1
I1
I1
I1
I1
I1
I1
I1
I1
I1
I0
I0
I0
I0
I0
I0
I0
I0
I0
I0
I0
I0
I0
I0
I0
I0
I0
I0
I0
I0
I0
I0
I0
I0
I0
I0
I0
I0
I0
I0
I0
I0
I0
I0
I0
I0
I0
I0
I0
I0
I0
I0
I0
I0
I0
I0
I0
I0
I0
I0
I0
I0
I0
I0
I0
I0
I0
I0
I0
I0
I0
I0
I0
I0
I0
I0
I0
I0
I0
I0
I0
I0
I0
I0
I0
I0
I0
I0
I0
I0
I0
tp918
g2
tp919
g4
(g8
S'EQ\xfc\xf8\xd2\xee\xf8?'
p920
tp921
Rp922
s((I0
I1
I0
I0
I1
I1
I1
I1
I1
I1
I1
I1
I1
I1
I1
I1
I1
I1
I1
I1
I0
I0
I0
I0
I0
I0
I0
I0
I0
I0
I0
I0
I0
I0
I0
I0
I0
I0
I0
I0
I0
I0
I0
I0
I0
I0
I0
I0
I0
I0
I0
I0
I0
I0
I0
I0
I0
I0
I0
I0
I0
I0
I0
I0
I0
I0
I0
I0
I0
I0
I0
I0
I0
I0
I0
I0
I0
I0
I0
I0
I0
I0
I0
I0
I0
I0
I0
I0
I0
I0
I0
I0
I0
I0
I0
I0
I0
I0
I0
I0
I0
I0
I0
I0
tp923
g2
tp924
F0.05263157894736842
s((I1
I0
I0
I0
I1
I1
I1
I1
I1
I1
I1
I1
I1
I1
I1
I1
I1
I1
I1
I1
I1
I1
I1
I1
I1
I1
I1
I1
I1
I1
I1
I1
I1
I0
I0
I0
I0
I0
I0
I0
I0
I0
I0
I0
I0
I0
I0
I0
I0
I0
I0
I0
I0
I0
I0
I0
I0
I0
I0
I0
I0
I0
I0
I0
I0
I0
I0
I0
I0
I0
I0
I0
I0
I0
I0
I0
I0
I0
I0
I0
I0
I0
I0
I0
I0
I0
I0
I0
I0
I0
I0
I0
I0
I0
I0
I0
I0
I0
I0
I0
I0
I0
I0
I0
tp925
g37
tp926
g4
(g8
S'\xfd!\xd5\xc3\x81W\x00@'
p927
tp928
Rp929
s((I0
I0
I0
I1
I1
I1
I1
I1
I1
I1
I1
I1
I1
I1
I1
I1
I1
I1
I1
I1
I1
I1
I1
I1
I0
I0
I0
I0
I0
I0
I0
I0
I0
I0
I0
I0
I0
I0
I0
I0
I0
I0
I0
I0
I0
I0
I0
I0
I0
I0
I0
I0
I0
I0
I0
I0
I0
I0
I0
I0
I0
I0
I0
I0
I0
I0
I0
I0
I0
I0
I0
I0
I0
I0
I0
I0
I0
I0
I0
I0
I0
I0
I0
I0
I0
I0
I0
I0
I0
I0
I0
I0
I0
I0
I0
I0
I0
I0
I0
I0
I0
I0
I0
I0
tp930
g63
tp931
g4
(g8
S'\x9dU\xf3D{\xc2\xf7?'
p932
tp933
Rp934
s((I1
I0
I0
I0
I1
I1
I1
I1
I1
I1
I1
I1
I1
I1
I1
I1
I1
I1
I1
I1
I1
I1
I1
I1
I1
I1
I1
I1
I1
I1
I1
I1
I1
I1
I1
I1
I0
I0
I0
I0
I0
I0
I0
I0
I0
I0
I0
I0
I0
I0
I0
I0
I0
I0
I0
I0
I0
I0
I0
I0
I0
I0
I0
I0
I0
I0
I0
I0
I0
I0
I0
I0
I0
I0
I0
I0
I0
I0
I0
I0
I0
I0
I0
I0
I0
I0
I0
I0
I0
I0
I0
I0
I0
I0
I0
I0
I0
I0
I0
I0
I0
I0
I0
I0
tp935
g80
tp936
g4
(g8
S'\x14\xde\x04\xb5qG\xce?'
p937
tp938
Rp939
s((I0
I1
I0
I0
I1
I1
I1
I1
I1
I1
I1
I1
I1
I1
I1
I1
I1
I1
I1
I1
I1
I1
I1
I1
I1
I1
I1
I1
I0
I0
I0
I0
I0
I0
I0
I0
I0
I0
I0
I0
I0
I0
I0
I0
I0
I0
I0
I0
I0
I0
I0
I0
I0
I0
I0
I0
I0
I0
I0
I0
I0
I0
I0
I0
I0
I0
I0
I0
I0
I0
I0
I0
I0
I0
I0
I0
I0
I0
I0
I0
I0
I0
I0
I0
I0
I0
I0
I0
I0
I0
I0
I0
I0
I0
I0
I0
I0
I0
I0
I0
I0
I0
I0
I0
tp940
g31
tp941
g4
(g8
S'\r\xdc+#\xe2\x1c\x00@'
p942
tp943
Rp944
s((I0
I1
I0
I0
I1
I1
I1
I1
I1
I1
I1
I1
I1
I1
I1
I1
I1
I1
I1
I1
I1
I1
I1
I1
I1
I1
I1
I1
I1
I1
I1
I1
I1
I1
I1
I1
I1
I1
I1
I1
I1
I1
I1
I1
I1
I1
I1
I1
I1
I1
I1
I1
I1
I1
I1
I1
I1
I1
I1
I1
I1
I1
I1
I1
I1
I1
I1
I1
I1
I1
I1
I1
I1
I1
I1
I1
I1
I1
I1
I1
I1
I1
I1
I1
I1
I1
I1
I1
I1
I1
I1
I0
I0
I0
I0
I0
I0
I0
I0
I0
I0
I0
I0
I0
tp945
g2
tp946
g4
(g8
S'\x97\xaf1g\xfb\x8e\xc9?'
p947
tp948
Rp949
s((I0
I1
I0
I0
I1
I1
I1
I1
I1
I1
I1
I1
I1
I1
I1
I1
I1
I1
I1
I1
I1
I1
I1
I1
I1
I1
I1
I1
I1
I1
I1
I1
I1
I1
I1
I1
I0
I0
I0
I0
I0
I0
I0
I0
I0
I0
I0
I0
I0
I0
I0
I0
I0
I0
I0
I0
I0
I0
I0
I0
I0
I0
I0
I0
I0
I0
I0
I0
I0
I0
I0
I0
I0
I0
I0
I0
I0
I0
I0
I0
I0
I0
I0
I0
I0
I0
I0
I0
I0
I0
I0
I0
I0
I0
I0
I0
I0
I0
I0
I0
I0
I0
I0
I0
tp950
g31
tp951
g4
(g8
S'[\\v\xe5\xd4Y\x03@'
p952
tp953
Rp954
s((I0
I0
I1
I0
I1
I1
I1
I1
I1
I1
I1
I1
I1
I1
I1
I1
I1
I1
I1
I1
I1
I1
I1
I1
I1
I1
I1
I1
I1
I1
I1
I1
I1
I1
I1
I1
I1
I1
I1
I1
I1
I1
I1
I1
I1
I1
I1
I1
I1
I1
I1
I1
I1
I1
I1
I1
I1
I0
I0
I0
I0
I0
I0
I0
I0
I0
I0
I0
I0
I0
I0
I0
I0
I0
I0
I0
I0
I0
I0
I0
I0
I0
I0
I0
I0
I0
I0
I0
I0
I0
I0
I0
I0
I0
I0
I0
I0
I0
I0
I0
I0
I0
I0
I0
tp955
g74
tp956
g4
(g8
S'4t\xe35W*\x01@'
p957
tp958
Rp959
s((I0
I1
I0
I0
I1
I1
I1
I1
I1
I1
I1
I1
I1
I1
I1
I1
I1
I1
I1
I1
I1
I1
I1
I1
I1
I1
I1
I1
I1
I1
I1
I1
I1
I1
I1
I1
I1
I1
I1
I1
I1
I1
I1
I1
I1
I1
I1
I1
I1
I1
I1
I1
I1
I1
I1
I1
I1
I0
I0
I0
I0
I0
I0
I0
I0
I0
I0
I0
I0
I0
I0
I0
I0
I0
I0
I0
I0
I0
I0
I0
I0
I0
I0
I0
I0
I0
I0
I0
I0
I0
I0
I0
I0
I0
I0
I0
I0
I0
I0
I0
I0
I0
I0
I0
tp960
g2
tp961
g4
(g8
S'O\xf8\xe1\x9e\xcf\xff\x02@'
p962
tp963
Rp964
s((I1
I0
I0
I0
I1
I1
I1
I1
I1
I1
I1
I1
I1
I1
I1
I1
I0
I0
I0
I0
I0
I0
I0
I0
I0
I0
I0
I0
I0
I0
I0
I0
I0
I0
I0
I0
I0
I0
I0
I0
I0
I0
I0
I0
I0
I0
I0
I0
I0
I0
I0
I0
I0
I0
I0
I0
I0
I0
I0
I0
I0
I0
I0
I0
I0
I0
I0
I0
I0
I0
I0
I0
I0
I0
I0
I0
I0
I0
I0
I0
I0
I0
I0
I0
I0
I0
I0
I0
I0
I0
I0
I0
I0
I0
I0
I0
I0
I0
I0
I0
I0
I0
I0
I0
tp965
g80
tp966
g4
(g8
S'j\xa2G\x91>\xf5\xe4?'
p967
tp968
Rp969
s((I0
I0
I0
I1
I1
I1
I1
I1
I1
I1
I1
I1
I1
I1
I1
I1
I1
I1
I1
I1
I1
I1
I1
I1
I1
I1
I1
I1
I1
I1
I1
I1
I1
I0
I0
I0
I0
I0
I0
I0
I0
I0
I0
I0
I0
I0
I0
I0
I0
I0
I0
I0
I0
I0
I0
I0
I0
I0
I0
I0
I0
I0
I0
I0
I0
I0
I0
I0
I0
I0
I0
I0
I0
I0
I0
I0
I0
I0
I0
I0
I0
I0
I0
I0
I0
I0
I0
I0
I0
I0
I0
I0
I0
I0
I0
I0
I0
I0
I0
I0
I0
I0
I0
I0
tp970
g63
tp971
g4
(g8
S'Js\x04$Wg\xfa?'
p972
tp973
Rp974
s((I0
I1
I0
I0
I1
I1
I1
I1
I1
I1
I1
I1
I1
I1
I1
I1
I1
I1
I1
I0
I0
I0
I0
I0
I0
I0
I0
I0
I0
I0
I0
I0
I0
I0
I0
I0
I0
I0
I0
I0
I0
I0
I0
I0
I0
I0
I0
I0
I0
I0
I0
I0
I0
I0
I0
I0
I0
I0
I0
I0
I0
I0
I0
I0
I0
I0
I0
I0
I0
I0
I0
I0
I0
I0
I0
I0
I0
I0
I0
I0
I0
I0
I0
I0
I0
I0
I0
I0
I0
I0
I0
I0
I0
I0
I0
I0
I0
I0
I0
I0
I0
I0
I0
I0
tp975
g31
tp976
g4
(g8
S'p_\xc9\xc8\x8b\x08\xe7?'
p977
tp978
Rp979
s((I0
I1
I0
I0
I1
I1
I1
I1
I1
I1
I1
I1
I1
I1
I1
I1
I1
I1
I1
I1
I1
I1
I1
I1
I1
I1
I1
I1
I1
I1
I1
I1
I1
I1
I1
I1
I1
I1
I1
I1
I1
I1
I1
I1
I1
I1
I1
I1
I1
I1
I1
I1
I1
I1
I1
I1
I1
I1
I1
I1
I1
I1
I1
I1
I1
I1
I1
I1
I1
I1
I0
I0
I0
I0
I0
I0
I0
I0
I0
I0
I0
I0
I0
I0
I0
I0
I0
I0
I0
I0
I0
I0
I0
I0
I0
I0
I0
I0
I0
I0
I0
I0
I0
I0
tp980
g31
tp981
g4
(g8
S'\xab&\xd0\x1b\xe4\xca\xde?'
p982
tp983
Rp984
s((I1
I0
I0
I0
I1
I1
I1
I1
I1
I1
I1
I1
I1
I1
I1
I1
I1
I1
I1
I1
I1
I1
I1
I1
I0
I0
I0
I0
I0
I0
I0
I0
I0
I0
I0
I0
I0
I0
I0
I0
I0
I0
I0
I0
I0
I0
I0
I0
I0
I0
I0
I0
I0
I0
I0
I0
I0
I0
I0
I0
I0
I0
I0
I0
I0
I0
I0
I0
I0
I0
I0
I0
I0
I0
I0
I0
I0
I0
I0
I0
I0
I0
I0
I0
I0
I0
I0
I0
I0
I0
I0
I0
I0
I0
I0
I0
I0
I0
I0
I0
I0
I0
I0
I0
tp985
g80
tp986
g4
(g8
S'\x0b\xc3\x1e\x11!P\xfa?'
p987
tp988
Rp989
s((I0
I0
I1
I0
I1
I1
I1
I1
I1
I1
I1
I1
I1
I1
I1
I1
I0
I0
I0
I0
I0
I0
I0
I0
I0
I0
I0
I0
I0
I0
I0
I0
I0
I0
I0
I0
I0
I0
I0
I0
I0
I0
I0
I0
I0
I0
I0
I0
I0
I0
I0
I0
I0
I0
I0
I0
I0
I0
I0
I0
I0
I0
I0
I0
I0
I0
I0
I0
I0
I0
I0
I0
I0
I0
I0
I0
I0
I0
I0
I0
I0
I0
I0
I0
I0
I0
I0
I0
I0
I0
I0
I0
I0
I0
I0
I0
I0
I0
I0
I0
I0
I0
I0
I0
tp990
g103
tp991
g4
(g8
S'\\\xbf\x7f\xf6$\x8a\xf8?'
p992
tp993
Rp994
s((I0
I0
I0
I1
I1
I1
I1
I1
I1
I1
I1
I1
I1
I1
I1
I1
I1
I1
I1
I1
I1
I1
I1
I1
I1
I1
I1
I1
I1
I1
I1
I1
I1
I1
I1
I1
I1
I1
I1
I1
I1
I1
I1
I1
I1
I0
I0
I0
I0
I0
I0
I0
I0
I0
I0
I0
I0
I0
I0
I0
I0
I0
I0
I0
I0
I0
I0
I0
I0
I0
I0
I0
I0
I0
I0
I0
I0
I0
I0
I0
I0
I0
I0
I0
I0
I0
I0
I0
I0
I0
I0
I0
I0
I0
I0
I0
I0
I0
I0
I0
I0
I0
I0
I0
tp995
g63
tp996
g4
(g8
S'\xa8\x81;{\x0b\xb2\xff?'
p997
tp998
Rp999
s((I0
I0
I1
I0
I1
I1
I1
I1
I1
I1
I1
I1
I1
I1
I1
I1
I1
I1
I1
I1
I1
I1
I1
I1
I1
I1
I1
I1
I1
I1
I1
I1
I1
I0
I0
I0
I0
I0
I0
I0
I0
I0
I0
I0
I0
I0
I0
I0
I0
I0
I0
I0
I0
I0
I0
I0
I0
I0
I0
I0
I0
I0
I0
I0
I0
I0
I0
I0
I0
I0
I0
I0
I0
I0
I0
I0
I0
I0
I0
I0
I0
I0
I0
I0
I0
I0
I0
I0
I0
I0
I0
I0
I0
I0
I0
I0
I0
I0
I0
I0
I0
I0
I0
I0
tp1000
g74
tp1001
g4
(g8
S'\xae\xcc\t\x0f6\xfa\xfc?'
p1002
tp1003
Rp1004
s((I0
I1
I0
I0
I1
I1
I1
I1
I1
I1
I1
I1
I1
I1
I1
I1
I1
I1
I1
I1
I1
I1
I1
I1
I1
I1
I1
I1
I1
I1
I1
I1
I1
I1
I1
I1
I1
I1
I1
I1
I1
I1
I1
I1
I1
I1
I1
I1
I1
I1
I1
I1
I1
I1
I1
I1
I1
I1
I1
I1
I1
I1
I1
I1
I1
I1
I1
I1
I1
I1
I1
I1
I1
I1
I1
I1
I1
I1
I1
I1
I1
I0
I0
I0
I0
I0
I0
I0
I0
I0
I0
I0
I0
I0
I0
I0
I0
I0
I0
I0
I0
I0
I0
I0
tp1005
g31
tp1006
g4
(g8
S'\xf0s\x84\xf2s\xbc\xc3?'
p1007
tp1008
Rp1009
s((I0
I1
I0
I0
I1
I1
I1
I1
I1
I1
I1
I1
I1
I1
I1
I1
I1
I1
I1
I1
I1
I1
I1
I1
I1
I1
I1
I1
I1
I1
I1
I1
I1
I1
I1
I1
I1
I1
I1
I1
I1
I1
I1
I1
I1
I1
I1
I1
I1
I1
I1
I1
I1
I1
I1
I1
I1
I1
I1
I1
I1
I1
I1
I1
I1
I1
I1
I1
I1
I1
I1
I1
I1
I1
I1
I1
I0
I0
I0
I0
I0
I0
I0
I0
I0
I0
I0
I0
I0
I0
I0
I0
I0
I0
I0
I0
I0
I0
I0
I0
I0
I0
I0
I0
tp1010
g31
tp1011
g4
(g8
S'/\xb0\xcb\xad\xf2\xba\xb9?'
p1012
tp1013
Rp1014
s((I0
I1
I0
I0
I1
I1
I1
I1
I1
I1
I1
I1
I1
I1
I1
I0
I0
I0
I0
I0
I0
I0
I0
I0
I0
I0
I0
I0
I0
I0
I0
I0
I0
I0
I0
I0
I0
I0
I0
I0
I0
I0
I0
I0
I0
I0
I0
I0
I0
I0
I0
I0
I0
I0
I0
I0
I0
I0
I0
I0
I0
I0
I0
I0
I0
I0
I0
I0
I0
I0
I0
I0
I0
I0
I0
I0
I0
I0
I0
I0
I0
I0
I0
I0
I0
I0
I0
I0
I0
I0
I0
I0
I0
I0
I0
I0
I0
I0
I0
I0
I0
I0
I0
I0
tp1015
g31
tp1016
F0.05263157894736842
s((I0
I0
I1
I0
I1
I1
I1
I1
I1
I1
I0
I0
I0
I0
I0
I0
I0
I0
I0
I0
I0
I0
I0
I0
I0
I0
I0
I0
I0
I0
I0
I0
I0
I0
I0
I0
I0
I0
I0
I0
I0
I0
I0
I0
I0
I0
I0
I0
I0
I0
I0
I0
I0
I0
I0
I0
I0
I0
I0
I0
I0
I0
I0
I0
I0
I0
I0
I0
I0
I0
I0
I0
I0
I0
I0
I0
I0
I0
I0
I0
I0
I0
I0
I0
I0
I0
I0
I0
I0
I0
I0
I0
I0
I0
I0
I0
I0
I0
I0
I0
I0
I0
I0
I0
tp1017
g103
tp1018
g4
(g8
S'\x12IV\xba\xca\x84\xac?'
p1019
tp1020
Rp1021
s((I0
I1
I0
I0
I1
I1
I1
I1
I1
I1
I1
I1
I1
I1
I1
I1
I1
I1
I1
I1
I1
I1
I0
I0
I0
I0
I0
I0
I0
I0
I0
I0
I0
I0
I0
I0
I0
I0
I0
I0
I0
I0
I0
I0
I0
I0
I0
I0
I0
I0
I0
I0
I0
I0
I0
I0
I0
I0
I0
I0
I0
I0
I0
I0
I0
I0
I0
I0
I0
I0
I0
I0
I0
I0
I0
I0
I0
I0
I0
I0
I0
I0
I0
I0
I0
I0
I0
I0
I0
I0
I0
I0
I0
I0
I0
I0
I0
I0
I0
I0
I0
I0
I0
I0
tp1022
g31
tp1023
g4
(g8
S'\x80\x9fvo2\xad\x00@'
p1024
tp1025
Rp1026
s((I0
I0
I0
I1
I1
I1
I1
I1
I1
I1
I1
I1
I1
I1
I1
I1
I1
I1
I1
I1
I1
I1
I1
I1
I1
I1
I1
I1
I1
I1
I1
I1
I1
I1
I1
I1
I1
I1
I1
I1
I1
I1
I1
I1
I1
I1
I1
I1
I1
I1
I1
I1
I1
I1
I1
I1
I1
I1
I1
I1
I1
I1
I1
I1
I1
I1
I1
I1
I1
I0
I0
I0
I0
I0
I0
I0
I0
I0
I0
I0
I0
I0
I0
I0
I0
I0
I0
I0
I0
I0
I0
I0
I0
I0
I0
I0
I0
I0
I0
I0
I0
I0
I0
I0
tp1027
g63
tp1028
g4
(g8
S'\x8e\xee\xcb:\xee\x99\x00@'
p1029
tp1030
Rp1031
s((I0
I0
I0
I1
I1
I1
I1
I1
I1
I1
I1
I1
I1
I1
I1
I1
I1
I1
I1
I1
I1
I1
I1
I1
I1
I1
I1
I1
I1
I1
I1
I1
I1
I1
I1
I1
I1
I1
I1
I1
I1
I1
I1
I1
I1
I1
I1
I1
I1
I1
I1
I1
I1
I1
I1
I1
I1
I1
I1
I1
I1
I1
I1
I1
I1
I1
I1
I1
I1
I1
I1
I1
I1
I1
I1
I1
I1
I1
I1
I1
I1
I1
I1
I1
I1
I1
I1
I1
I1
I1
I1
I1
I1
I1
I1
I1
I0
I0
I0
I0
I0
I0
I0
I0
tp1032
g63
tp1033
g4
(g8
S'\xce\x13K\xa5\xd0\xdc\xf4?'
p1034
tp1035
Rp1036
s((I0
I1
I0
I0
I1
I1
I1
I1
I1
I1
I1
I1
I1
I1
I1
I1
I1
I1
I1
I1
I1
I1
I1
I1
I1
I1
I1
I1
I1
I1
I1
I1
I1
I1
I1
I1
I1
I1
I1
I1
I1
I1
I1
I1
I1
I1
I1
I1
I1
I1
I1
I1
I1
I1
I1
I1
I1
I1
I1
I1
I1
I1
I1
I1
I1
I1
I1
I1
I0
I0
I0
I0
I0
I0
I0
I0
I0
I0
I0
I0
I0
I0
I0
I0
I0
I0
I0
I0
I0
I0
I0
I0
I0
I0
I0
I0
I0
I0
I0
I0
I0
I0
I0
I0
tp1037
g2
tp1038
g4
(g8
S'\x93\xc4\xd1\x0e|\\\xe2?'
p1039
tp1040
Rp1041
s((I1
I0
I0
I0
I1
I1
I1
I1
I1
I1
I1
I1
I1
I1
I1
I1
I1
I1
I1
I1
I1
I1
I1
I1
I1
I1
I1
I1
I1
I1
I1
I1
I1
I1
I1
I1
I0
I0
I0
I0
I0
I0
I0
I0
I0
I0
I0
I0
I0
I0
I0
I0
I0
I0
I0
I0
I0
I0
I0
I0
I0
I0
I0
I0
I0
I0
I0
I0
I0
I0
I0
I0
I0
I0
I0
I0
I0
I0
I0
I0
I0
I0
I0
I0
I0
I0
I0
I0
I0
I0
I0
I0
I0
I0
I0
I0
I0
I0
I0
I0
I0
I0
I0
I0
tp1042
g20
tp1043
g4
(g8
S'boo-,\xa8\xf1?'
p1044
tp1045
Rp1046
s((I0
I1
I0
I0
I1
I1
I1
I1
I1
I1
I1
I1
I1
I1
I1
I1
I1
I1
I1
I1
I1
I1
I1
I1
I1
I1
I1
I1
I1
I0
I0
I0
I0
I0
I0
I0
I0
I0
I0
I0
I0
I0
I0
I0
I0
I0
I0
I0
I0
I0
I0
I0
I0
I0
I0
I0
I0
I0
I0
I0
I0
I0
I0
I0
I0
I0
I0
I0
I0
I0
I0
I0
I0
I0
I0
I0
I0
I0
I0
I0
I0
I0
I0
I0
I0
I0
I0
I0
I0
I0
I0
I0
I0
I0
I0
I0
I0
I0
I0
I0
I0
I0
I0
I0
tp1047
g2
tp1048
g4
(g8
S'\xd2A\x92\xc61\xe9\xfb?'
p1049
tp1050
Rp1051
s((I0
I0
I0
I1
I1
I1
I1
I1
I1
I1
I1
I1
I1
I1
I1
I1
I1
I1
I1
I1
I1
I1
I1
I1
I1
I1
I1
I1
I1
I1
I1
I1
I1
I1
I1
I1
I1
I1
I1
I1
I1
I1
I1
I1
I1
I1
I1
I1
I0
I0
I0
I0
I0
I0
I0
I0
I0
I0
I0
I0
I0
I0
I0
I0
I0
I0
I0
I0
I0
I0
I0
I0
I0
I0
I0
I0
I0
I0
I0
I0
I0
I0
I0
I0
I0
I0
I0
I0
I0
I0
I0
I0
I0
I0
I0
I0
I0
I0
I0
I0
I0
I0
I0
I0
tp1052
g63
tp1053
g4
(g8
S'\x05\x0e\x10l\xd77\x00@'
p1054
tp1055
Rp1056
s((I0
I0
I1
I0
I1
I1
I1
I1
I1
I1
I1
I1
I1
I1
I1
I1
I1
I1
I1
I1
I1
I1
I1
I1
I1
I1
I1
I1
I1
I1
I1
I1
I0
I0
I0
I0
I0
I0
I0
I0
I0
I0
I0
I0
I0
I0
I0
I0
I0
I0
I0
I0
I0
I0
I0
I0
I0
I0
I0
I0
I0
I0
I0
I0
I0
I0
I0
I0
I0
I0
I0
I0
I0
I0
I0
I0
I0
I0
I0
I0
I0
I0
I0
I0
I0
I0
I0
I0
I0
I0
I0
I0
I0
I0
I0
I0
I0
I0
I0
I0
I0
I0
I0
I0
tp1057
g103
tp1058
g4
(g8
S'\x90\x07\x01\x86\x1b\xcd\xfe?'
p1059
tp1060
Rp1061
s((I0
I1
I0
I0
I1
I1
I1
I1
I1
I1
I1
I1
I1
I1
I1
I1
I1
I1
I1
I1
I1
I1
I1
I1
I1
I1
I1
I1
I1
I1
I1
I0
I0
I0
I0
I0
I0
I0
I0
I0
I0
I0
I0
I0
I0
I0
I0
I0
I0
I0
I0
I0
I0
I0
I0
I0
I0
I0
I0
I0
I0
I0
I0
I0
I0
I0
I0
I0
I0
I0
I0
I0
I0
I0
I0
I0
I0
I0
I0
I0
I0
I0
I0
I0
I0
I0
I0
I0
I0
I0
I0
I0
I0
I0
I0
I0
I0
I0
I0
I0
I0
I0
I0
I0
tp1062
g2
tp1063
g4
(g8
S'3\xffP\xd8\xe3\x88\xfc?'
p1064
tp1065
Rp1066
s((I1
I0
I0
I0
I1
I1
I1
I1
I1
I1
I1
I1
I1
I1
I1
I1
I1
I1
I1
I0
I0
I0
I0
I0
I0
I0
I0
I0
I0
I0
I0
I0
I0
I0
I0
I0
I0
I0
I0
I0
I0
I0
I0
I0
I0
I0
I0
I0
I0
I0
I0
I0
I0
I0
I0
I0
I0
I0
I0
I0
I0
I0
I0
I0
I0
I0
I0
I0
I0
I0
I0
I0
I0
I0
I0
I0
I0
I0
I0
I0
I0
I0
I0
I0
I0
I0
I0
I0
I0
I0
I0
I0
I0
I0
I0
I0
I0
I0
I0
I0
I0
I0
I0
I0
tp1067
g80
tp1068
g4
(g8
S'<\xae\xcb\x8cel\xfa?'
p1069
tp1070
Rp1071
s((I1
I0
I0
I0
I1
I1
I1
I1
I1
I1
I1
I1
I1
I1
I1
I1
I1
I1
I1
I1
I1
I1
I1
I1
I1
I1
I1
I1
I1
I1
I1
I1
I1
I1
I1
I1
I1
I1
I1
I0
I0
I0
I0
I0
I0
I0
I0
I0
I0
I0
I0
I0
I0
I0
I0
I0
I0
I0
I0
I0
I0
I0
I0
I0
I0
I0
I0
I0
I0
I0
I0
I0
I0
I0
I0
I0
I0
I0
I0
I0
I0
I0
I0
I0
I0
I0
I0
I0
I0
I0
I0
I0
I0
I0
I0
I0
I0
I0
I0
I0
I0
I0
I0
I0
tp1072
g20
tp1073
g4
(g8
S'\xcb\x88L2\xce1\xc2?'
p1074
tp1075
Rp1076
s((I0
I1
I0
I0
I1
I1
I1
I1
I1
I1
I1
I1
I1
I1
I1
I1
I1
I1
I1
I1
I1
I1
I1
I1
I0
I0
I0
I0
I0
I0
I0
I0
I0
I0
I0
I0
I0
I0
I0
I0
I0
I0
I0
I0
I0
I0
I0
I0
I0
I0
I0
I0
I0
I0
I0
I0
I0
I0
I0
I0
I0
I0
I0
I0
I0
I0
I0
I0
I0
I0
I0
I0
I0
I0
I0
I0
I0
I0
I0
I0
I0
I0
I0
I0
I0
I0
I0
I0
I0
I0
I0
I0
I0
I0
I0
I0
I0
I0
I0
I0
I0
I0
I0
I0
tp1077
g2
tp1078
g4
(g8
S'9\xbcT\xf8T\xcf\xf9?'
p1079
tp1080
Rp1081
s((I0
I0
I0
I1
I1
I1
I1
I1
I1
I1
I1
I1
I1
I1
I1
I1
I1
I1
I1
I1
I1
I1
I1
I1
I1
I1
I1
I1
I1
I1
I1
I0
I0
I0
I0
I0
I0
I0
I0
I0
I0
I0
I0
I0
I0
I0
I0
I0
I0
I0
I0
I0
I0
I0
I0
I0
I0
I0
I0
I0
I0
I0
I0
I0
I0
I0
I0
I0
I0
I0
I0
I0
I0
I0
I0
I0
I0
I0
I0
I0
I0
I0
I0
I0
I0
I0
I0
I0
I0
I0
I0
I0
I0
I0
I0
I0
I0
I0
I0
I0
I0
I0
I0
I0
tp1082
g63
tp1083
g4
(g8
S'.W3{\xfd\xeb\xf9?'
p1084
tp1085
Rp1086
s((I1
I0
I0
I0
I1
I1
I1
I1
I1
I1
I1
I1
I1
I1
I1
I0
I0
I0
I0
I0
I0
I0
I0
I0
I0
I0
I0
I0
I0
I0
I0
I0
I0
I0
I0
I0
I0
I0
I0
I0
I0
I0
I0
I0
I0
I0
I0
I0
I0
I0
I0
I0
I0
I0
I0
I0
I0
I0
I0
I0
I0
I0
I0
I0
I0
I0
I0
I0
I0
I0
I0
I0
I0
I0
I0
I0
I0
I0
I0
I0
I0
I0
I0
I0
I0
I0
I0
I0
I0
I0
I0
I0
I0
I0
I0
I0
I0
I0
I0
I0
I0
I0
I0
I0
tp1087
g20
tp1088
F0.05263157894736842
s((I0
I1
I0
I0
I1
I1
I1
I1
I1
I1
I1
I1
I1
I1
I1
I1
I1
I1
I1
I1
I1
I1
I1
I1
I1
I1
I0
I0
I0
I0
I0
I0
I0
I0
I0
I0
I0
I0
I0
I0
I0
I0
I0
I0
I0
I0
I0
I0
I0
I0
I0
I0
I0
I0
I0
I0
I0
I0
I0
I0
I0
I0
I0
I0
I0
I0
I0
I0
I0
I0
I0
I0
I0
I0
I0
I0
I0
I0
I0
I0
I0
I0
I0
I0
I0
I0
I0
I0
I0
I0
I0
I0
I0
I0
I0
I0
I0
I0
I0
I0
I0
I0
I0
I0
tp1089
g2
tp1090
g4
(g8
S'\xe8^S\xae\xd6V\xfa?'
p1091
tp1092
Rp1093
s((I1
I0
I0
I0
I1
I1
I1
I1
I1
I1
I1
I1
I1
I0
I0
I0
I0
I0
I0
I0
I0
I0
I0
I0
I0
I0
I0
I0
I0
I0
I0
I0
I0
I0
I0
I0
I0
I0
I0
I0
I0
I0
I0
I0
I0
I0
I0
I0
I0
I0
I0
I0
I0
I0
I0
I0
I0
I0
I0
I0
I0
I0
I0
I0
I0
I0
I0
I0
I0
I0
I0
I0
I0
I0
I0
I0
I0
I0
I0
I0
I0
I0
I0
I0
I0
I0
I0
I0
I0
I0
I0
I0
I0
I0
I0
I0
I0
I0
I0
I0
I0
I0
I0
I0
tp1094
g20
tp1095
g4
(g8
S'D\xa8\xc8\x87\xa1\xa7\xf9?'
p1096
tp1097
Rp1098
s((I0
I1
I0
I0
I1
I1
I1
I1
I1
I1
I1
I1
I1
I1
I1
I1
I1
I1
I1
I1
I1
I1
I1
I1
I1
I1
I1
I1
I1
I1
I1
I1
I0
I0
I0
I0
I0
I0
I0
I0
I0
I0
I0
I0
I0
I0
I0
I0
I0
I0
I0
I0
I0
I0
I0
I0
I0
I0
I0
I0
I0
I0
I0
I0
I0
I0
I0
I0
I0
I0
I0
I0
I0
I0
I0
I0
I0
I0
I0
I0
I0
I0
I0
I0
I0
I0
I0
I0
I0
I0
I0
I0
I0
I0
I0
I0
I0
I0
I0
I0
I0
I0
I0
I0
tp1099
g31
tp1100
g4
(g8
S'{\x016\x18<\xd3\x02@'
p1101
tp1102
Rp1103
s((I0
I0
I0
I1
I1
I1
I1
I1
I1
I1
I1
I1
I1
I1
I1
I1
I1
I1
I1
I1
I1
I1
I1
I1
I1
I1
I0
I0
I0
I0
I0
I0
I0
I0
I0
I0
I0
I0
I0
I0
I0
I0
I0
I0
I0
I0
I0
I0
I0
I0
I0
I0
I0
I0
I0
I0
I0
I0
I0
I0
I0
I0
I0
I0
I0
I0
I0
I0
I0
I0
I0
I0
I0
I0
I0
I0
I0
I0
I0
I0
I0
I0
I0
I0
I0
I0
I0
I0
I0
I0
I0
I0
I0
I0
I0
I0
I0
I0
I0
I0
I0
I0
I0
I0
tp1104
g63
tp1105
g4
(g8
S'\xb7\x9d\t\x82\x99[\xf8?'
p1106
tp1107
Rp1108
s((I0
I1
I0
I0
I1
I1
I1
I1
I1
I1
I1
I1
I1
I1
I1
I1
I1
I1
I1
I1
I1
I1
I1
I1
I1
I1
I1
I1
I1
I1
I1
I1
I1
I1
I1
I1
I1
I1
I1
I1
I1
I1
I1
I1
I1
I1
I1
I1
I1
I1
I1
I1
I1
I1
I1
I1
I1
I1
I1
I1
I1
I1
I1
I1
I1
I1
I1
I1
I1
I1
I0
I0
I0
I0
I0
I0
I0
I0
I0
I0
I0
I0
I0
I0
I0
I0
I0
I0
I0
I0
I0
I0
I0
I0
I0
I0
I0
I0
I0
I0
I0
I0
I0
I0
tp1109
g2
tp1110
g4
(g8
S'\xed\x89\x17%\xc1\xd3\xfb?'
p1111
tp1112
Rp1113
s((I0
I0
I1
I0
I1
I1
I1
I1
I1
I1
I1
I1
I1
I1
I1
I1
I1
I1
I1
I1
I1
I1
I1
I1
I1
I1
I1
I1
I1
I1
I1
I0
I0
I0
I0
I0
I0
I0
I0
I0
I0
I0
I0
I0
I0
I0
I0
I0
I0
I0
I0
I0
I0
I0
I0
I0
I0
I0
I0
I0
I0
I0
I0
I0
I0
I0
I0
I0
I0
I0
I0
I0
I0
I0
I0
I0
I0
I0
I0
I0
I0
I0
I0
I0
I0
I0
I0
I0
I0
I0
I0
I0
I0
I0
I0
I0
I0
I0
I0
I0
I0
I0
I0
I0
tp1114
g74
tp1115
g4
(g8
S'\xdb\xaf\xba\xc0\xa2\xcb\xfc?'
p1116
tp1117
Rp1118
s((I1
I0
I0
I0
I0
I0
I0
I0
I0
I0
I0
I0
I0
I0
I0
I0
I0
I0
I0
I0
I0
I0
I0
I0
I0
I0
I0
I0
I0
I0
I0
I0
I0
I0
I0
I0
I0
I0
I0
I0
I0
I0
I0
I0
I0
I0
I0
I0
I0
I0
I0
I0
I0
I0
I0
I0
I0
I0
I0
I0
I0
I0
I0
I0
I0
I0
I0
I0
I0
I0
I0
I0
I0
I0
I0
I0
I0
I0
I0
I0
I0
I0
I0
I0
I0
I0
I0
I0
I0
I0
I0
I0
I0
I0
I0
I0
I0
I0
I0
I0
I0
I0
I0
I0
tp1119
g80
tp1120
g4
(g8
S'\x10\xbc\x89\x16}\xce\xf4?'
p1121
tp1122
Rp1123
s((I0
I1
I0
I0
I1
I1
I1
I1
I1
I1
I1
I1
I1
I1
I1
I1
I1
I1
I1
I1
I1
I1
I1
I1
I1
I1
I1
I1
I1
I1
I1
I1
I1
I1
I0
I0
I0
I0
I0
I0
I0
I0
I0
I0
I0
I0
I0
I0
I0
I0
I0
I0
I0
I0
I0
I0
I0
I0
I0
I0
I0
I0
I0
I0
I0
I0
I0
I0
I0
I0
I0
I0
I0
I0
I0
I0
I0
I0
I0
I0
I0
I0
I0
I0
I0
I0
I0
I0
I0
I0
I0
I0
I0
I0
I0
I0
I0
I0
I0
I0
I0
I0
I0
I0
tp1124
g31
tp1125
g4
(g8
S'\x02\xe7\x1f\xe4\xb7)\x02@'
p1126
tp1127
Rp1128
s((I1
I0
I0
I0
I1
I1
I1
I1
I1
I1
I1
I1
I1
I1
I1
I0
I0
I0
I0
I0
I0
I0
I0
I0
I0
I0
I0
I0
I0
I0
I0
I0
I0
I0
I0
I0
I0
I0
I0
I0
I0
I0
I0
I0
I0
I0
I0
I0
I0
I0
I0
I0
I0
I0
I0
I0
I0
I0
I0
I0
I0
I0
I0
I0
I0
I0
I0
I0
I0
I0
I0
I0
I0
I0
I0
I0
I0
I0
I0
I0
I0
I0
I0
I0
I0
I0
I0
I0
I0
I0
I0
I0
I0
I0
I0
I0
I0
I0
I0
I0
I0
I0
I0
I0
tp1129
g37
tp1130
g4
(g8
S'{\xf4\xa8\xf5\x03\x08\xcc?'
p1131
tp1132
Rp1133
s((I0
I1
I0
I0
I1
I1
I1
I1
I1
I1
I1
I1
I1
I1
I1
I1
I1
I1
I1
I1
I1
I1
I1
I1
I1
I1
I1
I1
I1
I1
I1
I1
I1
I1
I1
I1
I1
I1
I1
I1
I1
I1
I1
I1
I1
I1
I1
I1
I1
I1
I1
I1
I1
I1
I1
I1
I1
I1
I1
I1
I1
I1
I1
I1
I1
I1
I1
I1
I1
I1
I1
I0
I0
I0
I0
I0
I0
I0
I0
I0
I0
I0
I0
I0
I0
I0
I0
I0
I0
I0
I0
I0
I0
I0
I0
I0
I0
I0
I0
I0
I0
I0
I0
I0
tp1134
g31
tp1135
g4
(g8
S'9K\xb3\xd2.\xe8\xb2?'
p1136
tp1137
Rp1138
s((I1
I0
I0
I0
I1
I1
I1
I1
I1
I1
I1
I1
I1
I1
I1
I1
I1
I1
I1
I1
I1
I1
I1
I1
I1
I1
I1
I1
I1
I0
I0
I0
I0
I0
I0
I0
I0
I0
I0
I0
I0
I0
I0
I0
I0
I0
I0
I0
I0
I0
I0
I0
I0
I0
I0
I0
I0
I0
I0
I0
I0
I0
I0
I0
I0
I0
I0
I0
I0
I0
I0
I0
I0
I0
I0
I0
I0
I0
I0
I0
I0
I0
I0
I0
I0
I0
I0
I0
I0
I0
I0
I0
I0
I0
I0
I0
I0
I0
I0
I0
I0
I0
I0
I0
tp1139
g80
tp1140
g4
(g8
S'\xb1Gn\x04\xef\x08\xfd?'
p1141
tp1142
Rp1143
s((I1
I0
I0
I0
I1
I1
I1
I1
I1
I0
I0
I0
I0
I0
I0
I0
I0
I0
I0
I0
I0
I0
I0
I0
I0
I0
I0
I0
I0
I0
I0
I0
I0
I0
I0
I0
I0
I0
I0
I0
I0
I0
I0
I0
I0
I0
I0
I0
I0
I0
I0
I0
I0
I0
I0
I0
I0
I0
I0
I0
I0
I0
I0
I0
I0
I0
I0
I0
I0
I0
I0
I0
I0
I0
I0
I0
I0
I0
I0
I0
I0
I0
I0
I0
I0
I0
I0
I0
I0
I0
I0
I0
I0
I0
I0
I0
I0
I0
I0
I0
I0
I0
I0
I0
tp1144
g80
tp1145
g4
(g8
S'\xdd\xaa\xb8\xfb^\xd8\xf5?'
p1146
tp1147
Rp1148
s((I0
I0
I1
I0
I1
I1
I1
I1
I1
I1
I1
I1
I1
I1
I0
I0
I0
I0
I0
I0
I0
I0
I0
I0
I0
I0
I0
I0
I0
I0
I0
I0
I0
I0
I0
I0
I0
I0
I0
I0
I0
I0
I0
I0
I0
I0
I0
I0
I0
I0
I0
I0
I0
I0
I0
I0
I0
I0
I0
I0
I0
I0
I0
I0
I0
I0
I0
I0
I0
I0
I0
I0
I0
I0
I0
I0
I0
I0
I0
I0
I0
I0
I0
I0
I0
I0
I0
I0
I0
I0
I0
I0
I0
I0
I0
I0
I0
I0
I0
I0
I0
I0
I0
I0
tp1149
g74
tp1150
g4
(g8
S'\x90\x96\xdfK \xca\xe8?'
p1151
tp1152
Rp1153
s((I0
I0
I1
I0
I1
I1
I1
I1
I1
I1
I1
I1
I1
I1
I1
I1
I1
I1
I1
I1
I1
I1
I1
I1
I1
I1
I1
I1
I1
I1
I1
I1
I1
I1
I1
I1
I1
I1
I1
I1
I1
I1
I1
I1
I1
I1
I1
I1
I1
I1
I1
I1
I1
I1
I1
I1
I1
I1
I1
I1
I0
I0
I0
I0
I0
I0
I0
I0
I0
I0
I0
I0
I0
I0
I0
I0
I0
I0
I0
I0
I0
I0
I0
I0
I0
I0
I0
I0
I0
I0
I0
I0
I0
I0
I0
I0
I0
I0
I0
I0
I0
I0
I0
I0
tp1154
g74
tp1155
g4
(g8
S':\xb2|\xf4\xc2\xb5\xff?'
p1156
tp1157
Rp1158
s((I0
I0
I1
I0
I1
I1
I1
I1
I1
I1
I1
I1
I1
I1
I1
I1
I1
I1
I1
I1
I1
I1
I1
I1
I1
I1
I1
I1
I1
I1
I1
I1
I1
I1
I1
I1
I1
I1
I1
I1
I1
I1
I1
I1
I0
I0
I0
I0
I0
I0
I0
I0
I0
I0
I0
I0
I0
I0
I0
I0
I0
I0
I0
I0
I0
I0
I0
I0
I0
I0
I0
I0
I0
I0
I0
I0
I0
I0
I0
I0
I0
I0
I0
I0
I0
I0
I0
I0
I0
I0
I0
I0
I0
I0
I0
I0
I0
I0
I0
I0
I0
I0
I0
I0
tp1159
g103
tp1160
g4
(g8
S'\x05\x10\x0cO8\x16\xd5?'
p1161
tp1162
Rp1163
s((I0
I1
I0
I0
I1
I1
I1
I1
I1
I1
I1
I1
I1
I1
I1
I1
I1
I1
I1
I1
I1
I1
I1
I1
I1
I1
I1
I1
I1
I1
I1
I1
I1
I1
I1
I0
I0
I0
I0
I0
I0
I0
I0
I0
I0
I0
I0
I0
I0
I0
I0
I0
I0
I0
I0
I0
I0
I0
I0
I0
I0
I0
I0
I0
I0
I0
I0
I0
I0
I0
I0
I0
I0
I0
I0
I0
I0
I0
I0
I0
I0
I0
I0
I0
I0
I0
I0
I0
I0
I0
I0
I0
I0
I0
I0
I0
I0
I0
I0
I0
I0
I0
I0
I0
tp1164
g2
tp1165
g4
(g8
S'\xdf_d\xa3\xc1\xd4\xfd?'
p1166
tp1167
Rp1168
s((I0
I1
I0
I0
I1
I1
I1
I1
I1
I1
I1
I1
I1
I1
I1
I1
I0
I0
I0
I0
I0
I0
I0
I0
I0
I0
I0
I0
I0
I0
I0
I0
I0
I0
I0
I0
I0
I0
I0
I0
I0
I0
I0
I0
I0
I0
I0
I0
I0
I0
I0
I0
I0
I0
I0
I0
I0
I0
I0
I0
I0
I0
I0
I0
I0
I0
I0
I0
I0
I0
I0
I0
I0
I0
I0
I0
I0
I0
I0
I0
I0
I0
I0
I0
I0
I0
I0
I0
I0
I0
I0
I0
I0
I0
I0
I0
I0
I0
I0
I0
I0
I0
I0
I0
tp1169
g31
tp1170
g4
(g8
S'\xfd.\xder\xe3\xba\xe5?'
p1171
tp1172
Rp1173
s((I0
I1
I0
I0
I1
I1
I1
I1
I1
I1
I1
I1
I1
I1
I1
I1
I1
I1
I1
I1
I1
I1
I1
I1
I1
I1
I1
I1
I1
I1
I1
I1
I1
I1
I1
I1
I1
I1
I1
I1
I1
I1
I1
I1
I0
I0
I0
I0
I0
I0
I0
I0
I0
I0
I0
I0
I0
I0
I0
I0
I0
I0
I0
I0
I0
I0
I0
I0
I0
I0
I0
I0
I0
I0
I0
I0
I0
I0
I0
I0
I0
I0
I0
I0
I0
I0
I0
I0
I0
I0
I0
I0
I0
I0
I0
I0
I0
I0
I0
I0
I0
I0
I0
I0
tp1174
g31
tp1175
g4
(g8
S'5g\xca\x84\xcf\x80\x03@'
p1176
tp1177
Rp1178
s((I0
I0
I0
I1
I1
I1
I1
I1
I1
I1
I1
I1
I1
I1
I1
I1
I1
I1
I1
I1
I1
I1
I1
I1
I1
I1
I1
I1
I1
I1
I1
I1
I1
I1
I1
I1
I1
I1
I1
I1
I1
I1
I1
I1
I1
I1
I1
I1
I1
I1
I1
I1
I1
I1
I1
I1
I1
I1
I1
I1
I1
I1
I1
I1
I1
I1
I1
I1
I1
I1
I1
I1
I1
I1
I1
I1
I1
I1
I1
I1
I1
I1
I1
I1
I1
I1
I1
I1
I1
I1
I1
I1
I1
I1
I1
I0
I0
I0
I0
I0
I0
I0
I0
I0
tp1179
g63
tp1180
g4
(g8
S'\x8e&\x02\xc2\xb4\x02\xf9?'
p1181
tp1182
Rp1183
s((I1
I0
I0
I0
I1
I1
I1
I1
I1
I1
I1
I1
I1
I1
I1
I1
I1
I1
I1
I1
I1
I1
I1
I1
I1
I1
I0
I0
I0
I0
I0
I0
I0
I0
I0
I0
I0
I0
I0
I0
I0
I0
I0
I0
I0
I0
I0
I0
I0
I0
I0
I0
I0
I0
I0
I0
I0
I0
I0
I0
I0
I0
I0
I0
I0
I0
I0
I0
I0
I0
I0
I0
I0
I0
I0
I0
I0
I0
I0
I0
I0
I0
I0
I0
I0
I0
I0
I0
I0
I0
I0
I0
I0
I0
I0
I0
I0
I0
I0
I0
I0
I0
I0
I0
tp1184
g37
tp1185
g4
(g8
S'\xe7!?#\x07\x01\xce?'
p1186
tp1187
Rp1188
s((I0
I1
I0
I0
I1
I1
I1
I1
I1
I1
I1
I1
I1
I1
I1
I1
I1
I1
I1
I1
I1
I1
I1
I1
I1
I1
I1
I1
I1
I1
I1
I1
I1
I1
I1
I1
I1
I1
I1
I1
I1
I1
I1
I1
I1
I1
I1
I1
I1
I1
I1
I1
I1
I1
I0
I0
I0
I0
I0
I0
I0
I0
I0
I0
I0
I0
I0
I0
I0
I0
I0
I0
I0
I0
I0
I0
I0
I0
I0
I0
I0
I0
I0
I0
I0
I0
I0
I0
I0
I0
I0
I0
I0
I0
I0
I0
I0
I0
I0
I0
I0
I0
I0
I0
tp1189
g2
tp1190
g4
(g8
S'\x0c\x14\xf0*\xf2\x00\x03@'
p1191
tp1192
Rp1193
s((I0
I0
I1
I0
I1
I1
I1
I1
I1
I1
I1
I1
I1
I1
I1
I1
I1
I1
I1
I1
I1
I0
I0
I0
I0
I0
I0
I0
I0
I0
I0
I0
I0
I0
I0
I0
I0
I0
I0
I0
I0
I0
I0
I0
I0
I0
I0
I0
I0
I0
I0
I0
I0
I0
I0
I0
I0
I0
I0
I0
I0
I0
I0
I0
I0
I0
I0
I0
I0
I0
I0
I0
I0
I0
I0
I0
I0
I0
I0
I0
I0
I0
I0
I0
I0
I0
I0
I0
I0
I0
I0
I0
I0
I0
I0
I0
I0
I0
I0
I0
I0
I0
I0
I0
tp1194
g74
tp1195
g4
(g8
S'|e\xf3\x91\x97\x01\xf4?'
p1196
tp1197
Rp1198
s((I0
I1
I0
I0
I1
I1
I1
I1
I1
I1
I1
I1
I1
I1
I1
I1
I1
I1
I1
I1
I1
I1
I1
I1
I1
I1
I1
I1
I1
I1
I1
I1
I1
I1
I1
I1
I1
I1
I1
I1
I1
I1
I1
I1
I1
I1
I1
I0
I0
I0
I0
I0
I0
I0
I0
I0
I0
I0
I0
I0
I0
I0
I0
I0
I0
I0
I0
I0
I0
I0
I0
I0
I0
I0
I0
I0
I0
I0
I0
I0
I0
I0
I0
I0
I0
I0
I0
I0
I0
I0
I0
I0
I0
I0
I0
I0
I0
I0
I0
I0
I0
I0
I0
I0
tp1199
g2
tp1200
g4
(g8
S'\xa2\x08\xd3Q\n\xdc\xfe?'
p1201
tp1202
Rp1203
s((I1
I0
I0
I0
I1
I1
I1
I1
I1
I1
I1
I1
I1
I1
I1
I1
I1
I1
I1
I1
I1
I1
I1
I0
I0
I0
I0
I0
I0
I0
I0
I0
I0
I0
I0
I0
I0
I0
I0
I0
I0
I0
I0
I0
I0
I0
I0
I0
I0
I0
I0
I0
I0
I0
I0
I0
I0
I0
I0
I0
I0
I0
I0
I0
I0
I0
I0
I0
I0
I0
I0
I0
I0
I0
I0
I0
I0
I0
I0
I0
I0
I0
I0
I0
I0
I0
I0
I0
I0
I0
I0
I0
I0
I0
I0
I0
I0
I0
I0
I0
I0
I0
I0
I0
tp1204
g20
tp1205
g4
(g8
S'+\xb8&\x99\xe7*\xfb?'
p1206
tp1207
Rp1208
s((I0
I1
I0
I0
I1
I1
I1
I1
I1
I1
I1
I1
I1
I1
I1
I1
I1
I1
I1
I1
I1
I1
I1
I1
I1
I1
I1
I1
I1
I1
I1
I1
I1
I1
I1
I1
I1
I1
I1
I1
I1
I1
I1
I1
I1
I1
I1
I1
I1
I1
I1
I1
I1
I1
I1
I1
I1
I1
I1
I1
I1
I0
I0
I0
I0
I0
I0
I0
I0
I0
I0
I0
I0
I0
I0
I0
I0
I0
I0
I0
I0
I0
I0
I0
I0
I0
I0
I0
I0
I0
I0
I0
I0
I0
I0
I0
I0
I0
I0
I0
I0
I0
I0
I0
tp1209
g31
tp1210
g4
(g8
S'\x1e\xb6K=\xcdS\x03@'
p1211
tp1212
Rp1213
s((I1
I0
I0
I0
I1
I1
I1
I1
I1
I1
I1
I1
I1
I1
I1
I1
I1
I1
I1
I1
I1
I1
I1
I1
I1
I1
I1
I1
I1
I1
I1
I1
I0
I0
I0
I0
I0
I0
I0
I0
I0
I0
I0
I0
I0
I0
I0
I0
I0
I0
I0
I0
I0
I0
I0
I0
I0
I0
I0
I0
I0
I0
I0
I0
I0
I0
I0
I0
I0
I0
I0
I0
I0
I0
I0
I0
I0
I0
I0
I0
I0
I0
I0
I0
I0
I0
I0
I0
I0
I0
I0
I0
I0
I0
I0
I0
I0
I0
I0
I0
I0
I0
I0
I0
tp1214
g80
tp1215
g4
(g8
S'\xfe\x155\xc9\xb2.\xf5?'
p1216
tp1217
Rp1218
s((I0
I0
I0
I1
I1
I1
I1
I1
I1
I1
I1
I1
I1
I1
I1
I1
I1
I1
I1
I1
I1
I1
I1
I1
I1
I1
I1
I1
I1
I1
I1
I1
I1
I1
I1
I1
I1
I1
I1
I1
I1
I1
I1
I1
I1
I1
I1
I1
I1
I0
I0
I0
I0
I0
I0
I0
I0
I0
I0
I0
I0
I0
I0
I0
I0
I0
I0
I0
I0
I0
I0
I0
I0
I0
I0
I0
I0
I0
I0
I0
I0
I0
I0
I0
I0
I0
I0
I0
I0
I0
I0
I0
I0
I0
I0
I0
I0
I0
I0
I0
I0
I0
I0
I0
tp1219
g63
tp1220
g4
(g8
S'\x1dz\xed!\x1fZ\x00@'
p1221
tp1222
Rp1223
s((I0
I0
I1
I0
I1
I1
I1
I1
I1
I1
I1
I1
I1
I1
I1
I1
I1
I1
I1
I1
I1
I1
I0
I0
I0
I0
I0
I0
I0
I0
I0
I0
I0
I0
I0
I0
I0
I0
I0
I0
I0
I0
I0
I0
I0
I0
I0
I0
I0
I0
I0
I0
I0
I0
I0
I0
I0
I0
I0
I0
I0
I0
I0
I0
I0
I0
I0
I0
I0
I0
I0
I0
I0
I0
I0
I0
I0
I0
I0
I0
I0
I0
I0
I0
I0
I0
I0
I0
I0
I0
I0
I0
I0
I0
I0
I0
I0
I0
I0
I0
I0
I0
I0
I0
tp1224
g74
tp1225
g4
(g8
S'k\xb6M\x85\x00\xef\xdd?'
p1226
tp1227
Rp1228
s((I0
I0
I0
I1
I1
I1
I1
I1
I1
I1
I1
I1
I1
I1
I1
I1
I1
I1
I1
I1
I1
I1
I1
I1
I1
I1
I1
I1
I1
I1
I1
I1
I1
I1
I1
I1
I1
I1
I1
I1
I1
I1
I1
I1
I1
I1
I1
I1
I1
I1
I1
I1
I1
I1
I1
I1
I1
I1
I1
I1
I1
I1
I1
I1
I1
I1
I1
I1
I1
I1
I1
I1
I1
I1
I1
I1
I0
I0
I0
I0
I0
I0
I0
I0
I0
I0
I0
I0
I0
I0
I0
I0
I0
I0
I0
I0
I0
I0
I0
I0
I0
I0
I0
I0
tp1229
g63
tp1230
g4
(g8
S'\xcc\xd3\xb3\xcaE\xb1\x00@'
p1231
tp1232
Rp1233
s((I0
I0
I0
I1
I1
I1
I1
I1
I1
I1
I1
I1
I1
I1
I1
I1
I1
I1
I1
I1
I1
I1
I1
I1
I1
I1
I1
I1
I1
I1
I1
I1
I1
I1
I1
I1
I1
I1
I1
I0
I0
I0
I0
I0
I0
I0
I0
I0
I0
I0
I0
I0
I0
I0
I0
I0
I0
I0
I0
I0
I0
I0
I0
I0
I0
I0
I0
I0
I0
I0
I0
I0
I0
I0
I0
I0
I0
I0
I0
I0
I0
I0
I0
I0
I0
I0
I0
I0
I0
I0
I0
I0
I0
I0
I0
I0
I0
I0
I0
I0
I0
I0
I0
I0
tp1234
g63
tp1235
g4
(g8
S'\xdap\xa4\x96v\xd9\xfd?'
p1236
tp1237
Rp1238
s((I0
I0
I1
I0
I1
I1
I1
I1
I1
I1
I1
I1
I1
I1
I1
I1
I1
I1
I0
I0
I0
I0
I0
I0
I0
I0
I0
I0
I0
I0
I0
I0
I0
I0
I0
I0
I0
I0
I0
I0
I0
I0
I0
I0
I0
I0
I0
I0
I0
I0
I0
I0
I0
I0
I0
I0
I0
I0
I0
I0
I0
I0
I0
I0
I0
I0
I0
I0
I0
I0
I0
I0
I0
I0
I0
I0
I0
I0
I0
I0
I0
I0
I0
I0
I0
I0
I0
I0
I0
I0
I0
I0
I0
I0
I0
I0
I0
I0
I0
I0
I0
I0
I0
I0
tp1239
g74
tp1240
g4
(g8
S'\r\xfb\xbb\xb3\x86\xf3\xf5?'
p1241
tp1242
Rp1243
s((I0
I0
I1
I0
I1
I1
I1
I1
I1
I1
I1
I1
I1
I1
I1
I1
I1
I1
I1
I1
I1
I1
I1
I1
I1
I1
I1
I1
I0
I0
I0
I0
I0
I0
I0
I0
I0
I0
I0
I0
I0
I0
I0
I0
I0
I0
I0
I0
I0
I0
I0
I0
I0
I0
I0
I0
I0
I0
I0
I0
I0
I0
I0
I0
I0
I0
I0
I0
I0
I0
I0
I0
I0
I0
I0
I0
I0
I0
I0
I0
I0
I0
I0
I0
I0
I0
I0
I0
I0
I0
I0
I0
I0
I0
I0
I0
I0
I0
I0
I0
I0
I0
I0
I0
tp1244
g103
tp1245
g4
(g8
S'\x07A\x02\n\xe9\xf1\xe0?'
p1246
tp1247
Rp1248
s((I1
I0
I0
I0
I1
I1
I1
I1
I1
I1
I1
I1
I1
I1
I1
I1
I1
I1
I1
I1
I1
I1
I1
I1
I1
I1
I0
I0
I0
I0
I0
I0
I0
I0
I0
I0
I0
I0
I0
I0
I0
I0
I0
I0
I0
I0
I0
I0
I0
I0
I0
I0
I0
I0
I0
I0
I0
I0
I0
I0
I0
I0
I0
I0
I0
I0
I0
I0
I0
I0
I0
I0
I0
I0
I0
I0
I0
I0
I0
I0
I0
I0
I0
I0
I0
I0
I0
I0
I0
I0
I0
I0
I0
I0
I0
I0
I0
I0
I0
I0
I0
I0
I0
I0
tp1249
g20
tp1250
g4
(g8
S'\x05/\xe7>\xaaW\x01@'
p1251
tp1252
Rp1253
s((I0
I0
I0
I1
I1
I1
I1
I1
I1
I1
I1
I1
I1
I1
I1
I1
I1
I1
I1
I1
I1
I1
I1
I1
I1
I1
I1
I1
I1
I1
I1
I1
I1
I1
I1
I1
I1
I1
I1
I1
I1
I1
I1
I1
I1
I1
I1
I1
I1
I1
I1
I1
I1
I1
I1
I1
I1
I1
I1
I1
I1
I1
I1
I1
I1
I1
I1
I1
I1
I1
I1
I1
I1
I1
I1
I1
I1
I1
I1
I1
I1
I1
I1
I1
I1
I1
I1
I0
I0
I0
I0
I0
I0
I0
I0
I0
I0
I0
I0
I0
I0
I0
I0
I0
tp1254
g63
tp1255
g4
(g8
S'\xf3\x91p\xd4\x0ci\xfe?'
p1256
tp1257
Rp1258
s((I0
I1
I0
I0
I1
I1
I1
I1
I1
I1
I1
I1
I1
I1
I1
I1
I1
I1
I1
I1
I1
I1
I1
I1
I1
I1
I1
I0
I0
I0
I0
I0
I0
I0
I0
I0
I0
I0
I0
I0
I0
I0
I0
I0
I0
I0
I0
I0
I0
I0
I0
I0
I0
I0
I0
I0
I0
I0
I0
I0
I0
I0
I0
I0
I0
I0
I0
I0
I0
I0
I0
I0
I0
I0
I0
I0
I0
I0
I0
I0
I0
I0
I0
I0
I0
I0
I0
I0
I0
I0
I0
I0
I0
I0
I0
I0
I0
I0
I0
I0
I0
I0
I0
I0
tp1259
g2
tp1260
g4
(g8
S'7\x1e\x89\x84S\x04\xfb?'
p1261
tp1262
Rp1263
s((I1
I0
I0
I0
I1
I1
I1
I1
I1
I1
I1
I1
I1
I1
I1
I1
I1
I1
I1
I1
I1
I1
I1
I1
I1
I1
I1
I1
I1
I1
I1
I1
I1
I1
I0
I0
I0
I0
I0
I0
I0
I0
I0
I0
I0
I0
I0
I0
I0
I0
I0
I0
I0
I0
I0
I0
I0
I0
I0
I0
I0
I0
I0
I0
I0
I0
I0
I0
I0
I0
I0
I0
I0
I0
I0
I0
I0
I0
I0
I0
I0
I0
I0
I0
I0
I0
I0
I0
I0
I0
I0
I0
I0
I0
I0
I0
I0
I0
I0
I0
I0
I0
I0
I0
tp1264
g37
tp1265
g4
(g8
S'\xa3\x8d\xb0\x84J\xfd\xd9?'
p1266
tp1267
Rp1268
s((I1
I0
I0
I0
I1
I1
I1
I1
I1
I1
I1
I1
I1
I1
I1
I1
I1
I1
I1
I1
I1
I1
I1
I1
I1
I1
I1
I1
I1
I1
I1
I0
I0
I0
I0
I0
I0
I0
I0
I0
I0
I0
I0
I0
I0
I0
I0
I0
I0
I0
I0
I0
I0
I0
I0
I0
I0
I0
I0
I0
I0
I0
I0
I0
I0
I0
I0
I0
I0
I0
I0
I0
I0
I0
I0
I0
I0
I0
I0
I0
I0
I0
I0
I0
I0
I0
I0
I0
I0
I0
I0
I0
I0
I0
I0
I0
I0
I0
I0
I0
I0
I0
I0
I0
tp1269
g20
tp1270
g4
(g8
S'm\xf7V\xbb\xf7<\xcf?'
p1271
tp1272
Rp1273
s((I0
I0
I1
I0
I1
I1
I1
I1
I1
I1
I1
I1
I1
I1
I1
I1
I1
I1
I1
I1
I1
I1
I1
I1
I1
I1
I1
I1
I1
I1
I1
I1
I1
I1
I1
I1
I1
I1
I0
I0
I0
I0
I0
I0
I0
I0
I0
I0
I0
I0
I0
I0
I0
I0
I0
I0
I0
I0
I0
I0
I0
I0
I0
I0
I0
I0
I0
I0
I0
I0
I0
I0
I0
I0
I0
I0
I0
I0
I0
I0
I0
I0
I0
I0
I0
I0
I0
I0
I0
I0
I0
I0
I0
I0
I0
I0
I0
I0
I0
I0
I0
I0
I0
I0
tp1274
g74
tp1275
g4
(g8
S'\x8f,\x87\xb1\x0b\x1b\xfd?'
p1276
tp1277
Rp1278
s((I0
I0
I0
I1
I1
I1
I1
I1
I1
I1
I1
I1
I1
I1
I1
I1
I1
I1
I1
I1
I1
I1
I1
I1
I1
I1
I1
I1
I1
I1
I1
I1
I1
I1
I1
I1
I1
I1
I1
I1
I1
I1
I1
I1
I1
I1
I1
I1
I1
I1
I1
I1
I1
I1
I1
I1
I1
I1
I1
I1
I1
I1
I1
I1
I1
I1
I1
I1
I1
I1
I1
I1
I1
I1
I1
I1
I1
I1
I1
I1
I1
I1
I1
I1
I1
I1
I1
I1
I1
I1
I1
I1
I1
I0
I0
I0
I0
I0
I0
I0
I0
I0
I0
I0
tp1279
g63
tp1280
g4
(g8
S'r7\xa0\xd9\xd4>\xf7?'
p1281
tp1282
Rp1283
s((I0
I0
I0
I1
I1
I1
I1
I1
I1
I1
I1
I1
I1
I1
I1
I1
I1
I1
I1
I1
I1
I1
I1
I1
I1
I1
I1
I1
I1
I1
I1
I1
I1
I1
I1
I1
I1
I1
I1
I1
I1
I1
I1
I1
I1
I1
I1
I1
I1
I1
I1
I1
I1
I1
I1
I1
I1
I1
I1
I1
I1
I1
I1
I1
I0
I0
I0
I0
I0
I0
I0
I0
I0
I0
I0
I0
I0
I0
I0
I0
I0
I0
I0
I0
I0
I0
I0
I0
I0
I0
I0
I0
I0
I0
I0
I0
I0
I0
I0
I0
I0
I0
I0
I0
tp1284
g63
tp1285
g4
(g8
S'\x85\xdd\xa5n\xe5n\x02@'
p1286
tp1287
Rp1288
s((I1
I0
I0
I0
I1
I1
I1
I1
I1
I1
I1
I1
I1
I1
I1
I1
I1
I1
I0
I0
I0
I0
I0
I0
I0
I0
I0
I0
I0
I0
I0
I0
I0
I0
I0
I0
I0
I0
I0
I0
I0
I0
I0
I0
I0
I0
I0
I0
I0
I0
I0
I0
I0
I0
I0
I0
I0
I0
I0
I0
I0
I0
I0
I0
I0
I0
I0
I0
I0
I0
I0
I0
I0
I0
I0
I0
I0
I0
I0
I0
I0
I0
I0
I0
I0
I0
I0
I0
I0
I0
I0
I0
I0
I0
I0
I0
I0
I0
I0
I0
I0
I0
I0
I0
tp1289
g80
tp1290
g4
(g8
S'\x1al\x06B\xc0\xec\xf9?'
p1291
tp1292
Rp1293
s((I1
I0
I0
I0
I1
I1
I1
I1
I1
I1
I0
I0
I0
I0
I0
I0
I0
I0
I0
I0
I0
I0
I0
I0
I0
I0
I0
I0
I0
I0
I0
I0
I0
I0
I0
I0
I0
I0
I0
I0
I0
I0
I0
I0
I0
I0
I0
I0
I0
I0
I0
I0
I0
I0
I0
I0
I0
I0
I0
I0
I0
I0
I0
I0
I0
I0
I0
I0
I0
I0
I0
I0
I0
I0
I0
I0
I0
I0
I0
I0
I0
I0
I0
I0
I0
I0
I0
I0
I0
I0
I0
I0
I0
I0
I0
I0
I0
I0
I0
I0
I0
I0
I0
I0
tp1294
g20
tp1295
g4
(g8
S'\xf0*\x18\xc7q\xa3\xea?'
p1296
tp1297
Rp1298
s((I0
I0
I1
I0
I1
I1
I1
I1
I1
I1
I1
I1
I1
I1
I1
I1
I1
I1
I1
I1
I1
I1
I1
I1
I1
I1
I1
I1
I1
I1
I1
I1
I1
I1
I1
I1
I1
I1
I1
I1
I1
I1
I1
I1
I1
I1
I1
I1
I1
I1
I1
I1
I1
I1
I1
I1
I1
I1
I1
I1
I1
I1
I1
I1
I1
I1
I1
I1
I1
I1
I1
I0
I0
I0
I0
I0
I0
I0
I0
I0
I0
I0
I0
I0
I0
I0
I0
I0
I0
I0
I0
I0
I0
I0
I0
I0
I0
I0
I0
I0
I0
I0
I0
I0
tp1299
g103
tp1300
F0.2222222222222222
s((I0
I1
I0
I0
I1
I1
I1
I1
I1
I1
I1
I1
I1
I1
I1
I1
I1
I1
I1
I1
I1
I1
I1
I1
I1
I1
I1
I1
I1
I1
I1
I1
I1
I1
I1
I1
I1
I1
I1
I1
I1
I1
I1
I1
I1
I1
I1
I1
I1
I1
I1
I1
I1
I1
I1
I1
I1
I1
I1
I1
I1
I1
I1
I1
I1
I1
I1
I1
I1
I1
I1
I1
I1
I1
I1
I1
I1
I1
I1
I1
I1
I1
I1
I1
I1
I1
I1
I0
I0
I0
I0
I0
I0
I0
I0
I0
I0
I0
I0
I0
I0
I0
I0
I0
tp1301
g31
tp1302
g4
(g8
S'\x08\xa1D\xf81j\xc1?'
p1303
tp1304
Rp1305
s((I0
I1
I0
I0
I1
I1
I1
I1
I1
I1
I1
I1
I1
I1
I1
I1
I1
I1
I1
I1
I1
I1
I1
I1
I1
I1
I1
I1
I1
I1
I1
I1
I1
I1
I1
I1
I1
I1
I1
I1
I1
I1
I1
I1
I1
I1
I1
I1
I1
I1
I1
I1
I1
I1
I1
I1
I1
I1
I1
I1
I1
I0
I0
I0
I0
I0
I0
I0
I0
I0
I0
I0
I0
I0
I0
I0
I0
I0
I0
I0
I0
I0
I0
I0
I0
I0
I0
I0
I0
I0
I0
I0
I0
I0
I0
I0
I0
I0
I0
I0
I0
I0
I0
I0
tp1306
g2
tp1307
g4
(g8
S'EtOSv\x81\x01@'
p1308
tp1309
Rp1310
s((I0
I1
I0
I0
I1
I1
I1
I1
I1
I0
I0
I0
I0
I0
I0
I0
I0
I0
I0
I0
I0
I0
I0
I0
I0
I0
I0
I0
I0
I0
I0
I0
I0
I0
I0
I0
I0
I0
I0
I0
I0
I0
I0
I0
I0
I0
I0
I0
I0
I0
I0
I0
I0
I0
I0
I0
I0
I0
I0
I0
I0
I0
I0
I0
I0
I0
I0
I0
I0
I0
I0
I0
I0
I0
I0
I0
I0
I0
I0
I0
I0
I0
I0
I0
I0
I0
I0
I0
I0
I0
I0
I0
I0
I0
I0
I0
I0
I0
I0
I0
I0
I0
I0
I0
tp1311
g31
tp1312
g4
(g8
S'\x1e\x1cm\xf9_\x93\xf6?'
p1313
tp1314
Rp1315
s((I1
I0
I0
I0
I1
I1
I1
I1
I1
I1
I1
I1
I1
I1
I1
I1
I0
I0
I0
I0
I0
I0
I0
I0
I0
I0
I0
I0
I0
I0
I0
I0
I0
I0
I0
I0
I0
I0
I0
I0
I0
I0
I0
I0
I0
I0
I0
I0
I0
I0
I0
I0
I0
I0
I0
I0
I0
I0
I0
I0
I0
I0
I0
I0
I0
I0
I0
I0
I0
I0
I0
I0
I0
I0
I0
I0
I0
I0
I0
I0
I0
I0
I0
I0
I0
I0
I0
I0
I0
I0
I0
I0
I0
I0
I0
I0
I0
I0
I0
I0
I0
I0
I0
I0
tp1316
g20
tp1317
g4
(g8
S'\xf2\xa4\xc2C\x96`\xd3?'
p1318
tp1319
Rp1320
s((I1
I0
I0
I0
I1
I1
I1
I1
I1
I1
I1
I1
I1
I0
I0
I0
I0
I0
I0
I0
I0
I0
I0
I0
I0
I0
I0
I0
I0
I0
I0
I0
I0
I0
I0
I0
I0
I0
I0
I0
I0
I0
I0
I0
I0
I0
I0
I0
I0
I0
I0
I0
I0
I0
I0
I0
I0
I0
I0
I0
I0
I0
I0
I0
I0
I0
I0
I0
I0
I0
I0
I0
I0
I0
I0
I0
I0
I0
I0
I0
I0
I0
I0
I0
I0
I0
I0
I0
I0
I0
I0
I0
I0
I0
I0
I0
I0
I0
I0
I0
I0
I0
I0
I0
tp1321
g80
tp1322
g4
(g8
S'\x15\xca\x80,\x11\xdf\xf7?'
p1323
tp1324
Rp1325
s((I0
I1
I0
I0
I1
I1
I1
I1
I1
I1
I1
I1
I1
I1
I1
I1
I1
I1
I1
I1
I1
I1
I1
I1
I1
I1
I1
I1
I1
I1
I1
I1
I1
I1
I1
I1
I1
I1
I1
I1
I1
I1
I1
I1
I1
I1
I1
I1
I1
I1
I1
I1
I1
I1
I1
I1
I1
I1
I1
I1
I1
I1
I1
I1
I0
I0
I0
I0
I0
I0
I0
I0
I0
I0
I0
I0
I0
I0
I0
I0
I0
I0
I0
I0
I0
I0
I0
I0
I0
I0
I0
I0
I0
I0
I0
I0
I0
I0
I0
I0
I0
I0
I0
I0
tp1326
g31
tp1327
g4
(g8
S'\xcd\xdf\x814k\xbf\xe0?'
p1328
tp1329
Rp1330
s((I0
I1
I0
I0
I1
I1
I1
I1
I1
I1
I1
I1
I1
I1
I1
I1
I1
I1
I1
I1
I1
I1
I1
I1
I1
I1
I1
I1
I1
I1
I1
I1
I1
I1
I1
I1
I1
I1
I1
I1
I1
I1
I1
I1
I1
I1
I1
I1
I0
I0
I0
I0
I0
I0
I0
I0
I0
I0
I0
I0
I0
I0
I0
I0
I0
I0
I0
I0
I0
I0
I0
I0
I0
I0
I0
I0
I0
I0
I0
I0
I0
I0
I0
I0
I0
I0
I0
I0
I0
I0
I0
I0
I0
I0
I0
I0
I0
I0
I0
I0
I0
I0
I0
I0
tp1331
g31
tp1332
g4
(g8
S'\xab\xe7\xa4y\xfd\xe1\x03@'
p1333
tp1334
Rp1335
s((I0
I1
I0
I0
I1
I1
I1
I1
I1
I1
I1
I1
I1
I1
I1
I1
I1
I1
I1
I1
I1
I1
I1
I0
I0
I0
I0
I0
I0
I0
I0
I0
I0
I0
I0
I0
I0
I0
I0
I0
I0
I0
I0
I0
I0
I0
I0
I0
I0
I0
I0
I0
I0
I0
I0
I0
I0
I0
I0
I0
I0
I0
I0
I0
I0
I0
I0
I0
I0
I0
I0
I0
I0
I0
I0
I0
I0
I0
I0
I0
I0
I0
I0
I0
I0
I0
I0
I0
I0
I0
I0
I0
I0
I0
I0
I0
I0
I0
I0
I0
I0
I0
I0
I0
tp1336
g31
tp1337
g4
(g8
S'uf\xeb\x11\x1e\x8a\xf0?'
p1338
tp1339
Rp1340
s((I1
I0
I0
I0
I1
I1
I1
I1
I1
I1
I1
I1
I1
I1
I1
I1
I1
I1
I1
I1
I1
I1
I1
I1
I1
I1
I1
I1
I1
I1
I1
I1
I1
I1
I1
I1
I1
I1
I0
I0
I0
I0
I0
I0
I0
I0
I0
I0
I0
I0
I0
I0
I0
I0
I0
I0
I0
I0
I0
I0
I0
I0
I0
I0
I0
I0
I0
I0
I0
I0
I0
I0
I0
I0
I0
I0
I0
I0
I0
I0
I0
I0
I0
I0
I0
I0
I0
I0
I0
I0
I0
I0
I0
I0
I0
I0
I0
I0
I0
I0
I0
I0
I0
I0
tp1341
g20
tp1342
g4
(g8
S'\x1bSzg\xce\xe5\x00@'
p1343
tp1344
Rp1345
s((I0
I0
I1
I0
I1
I1
I1
I1
I1
I1
I1
I1
I1
I1
I1
I1
I1
I1
I1
I1
I1
I1
I1
I1
I1
I1
I1
I1
I1
I1
I1
I1
I1
I1
I1
I1
I1
I1
I1
I1
I1
I1
I1
I1
I1
I1
I1
I1
I1
I0
I0
I0
I0
I0
I0
I0
I0
I0
I0
I0
I0
I0
I0
I0
I0
I0
I0
I0
I0
I0
I0
I0
I0
I0
I0
I0
I0
I0
I0
I0
I0
I0
I0
I0
I0
I0
I0
I0
I0
I0
I0
I0
I0
I0
I0
I0
I0
I0
I0
I0
I0
I0
I0
I0
tp1346
g103
tp1347
g4
(g8
S'\xf3z5\x08F\xbd\x00@'
p1348
tp1349
Rp1350
s((I0
I1
I0
I0
I1
I1
I1
I1
I1
I1
I1
I1
I1
I1
I1
I1
I1
I1
I1
I1
I1
I1
I1
I1
I1
I1
I1
I1
I1
I1
I1
I1
I1
I0
I0
I0
I0
I0
I0
I0
I0
I0
I0
I0
I0
I0
I0
I0
I0
I0
I0
I0
I0
I0
I0
I0
I0
I0
I0
I0
I0
I0
I0
I0
I0
I0
I0
I0
I0
I0
I0
I0
I0
I0
I0
I0
I0
I0
I0
I0
I0
I0
I0
I0
I0
I0
I0
I0
I0
I0
I0
I0
I0
I0
I0
I0
I0
I0
I0
I0
I0
I0
I0
I0
tp1351
g2
tp1352
g4
(g8
S'\x00\x8e\xf1\xcc\xb3v\xf9?'
p1353
tp1354
Rp1355
s((I0
I1
I0
I0
I1
I1
I1
I1
I1
I1
I1
I1
I1
I1
I1
I1
I1
I1
I1
I1
I1
I1
I1
I1
I1
I1
I1
I1
I1
I1
I1
I1
I1
I1
I1
I1
I1
I1
I0
I0
I0
I0
I0
I0
I0
I0
I0
I0
I0
I0
I0
I0
I0
I0
I0
I0
I0
I0
I0
I0
I0
I0
I0
I0
I0
I0
I0
I0
I0
I0
I0
I0
I0
I0
I0
I0
I0
I0
I0
I0
I0
I0
I0
I0
I0
I0
I0
I0
I0
I0
I0
I0
I0
I0
I0
I0
I0
I0
I0
I0
I0
I0
I0
I0
tp1356
g2
tp1357
g4
(g8
S'<\x03\xfa\xa7j\t\xf7?'
p1358
tp1359
Rp1360
s((I0
I1
I0
I0
I1
I1
I1
I1
I1
I1
I1
I1
I1
I1
I1
I1
I1
I1
I0
I0
I0
I0
I0
I0
I0
I0
I0
I0
I0
I0
I0
I0
I0
I0
I0
I0
I0
I0
I0
I0
I0
I0
I0
I0
I0
I0
I0
I0
I0
I0
I0
I0
I0
I0
I0
I0
I0
I0
I0
I0
I0
I0
I0
I0
I0
I0
I0
I0
I0
I0
I0
I0
I0
I0
I0
I0
I0
I0
I0
I0
I0
I0
I0
I0
I0
I0
I0
I0
I0
I0
I0
I0
I0
I0
I0
I0
I0
I0
I0
I0
I0
I0
I0
I0
tp1361
g31
tp1362
g4
(g8
S'zJ:\x19a]\xf9?'
p1363
tp1364
Rp1365
s((I0
I1
I0
I0
I1
I1
I1
I1
I1
I1
I1
I1
I1
I1
I1
I1
I1
I1
I1
I1
I1
I1
I1
I1
I1
I1
I1
I1
I1
I1
I1
I1
I1
I1
I1
I1
I1
I1
I1
I1
I1
I1
I1
I1
I1
I1
I1
I1
I1
I1
I1
I1
I1
I1
I1
I1
I1
I1
I1
I1
I1
I1
I1
I1
I1
I1
I1
I1
I1
I1
I1
I1
I1
I1
I0
I0
I0
I0
I0
I0
I0
I0
I0
I0
I0
I0
I0
I0
I0
I0
I0
I0
I0
I0
I0
I0
I0
I0
I0
I0
I0
I0
I0
I0
tp1366
g2
tp1367
g4
(g8
S'Od\xd3\x9f\x1cW\xf2?'
p1368
tp1369
Rp1370
s((I0
I0
I0
I1
I1
I1
I1
I1
I1
I1
I1
I1
I1
I1
I1
I1
I1
I1
I1
I1
I1
I1
I1
I1
I1
I1
I1
I1
I1
I1
I1
I1
I1
I1
I1
I1
I1
I1
I0
I0
I0
I0
I0
I0
I0
I0
I0
I0
I0
I0
I0
I0
I0
I0
I0
I0
I0
I0
I0
I0
I0
I0
I0
I0
I0
I0
I0
I0
I0
I0
I0
I0
I0
I0
I0
I0
I0
I0
I0
I0
I0
I0
I0
I0
I0
I0
I0
I0
I0
I0
I0
I0
I0
I0
I0
I0
I0
I0
I0
I0
I0
I0
I0
I0
tp1371
g63
tp1372
g4
(g8
S';\xde\xc6\xcf\x0b>\xfc?'
p1373
tp1374
Rp1375
s((I1
I0
I0
I0
I1
I1
I1
I1
I1
I1
I1
I1
I1
I1
I1
I1
I1
I1
I1
I1
I1
I1
I1
I1
I1
I1
I0
I0
I0
I0
I0
I0
I0
I0
I0
I0
I0
I0
I0
I0
I0
I0
I0
I0
I0
I0
I0
I0
I0
I0
I0
I0
I0
I0
I0
I0
I0
I0
I0
I0
I0
I0
I0
I0
I0
I0
I0
I0
I0
I0
I0
I0
I0
I0
I0
I0
I0
I0
I0
I0
I0
I0
I0
I0
I0
I0
I0
I0
I0
I0
I0
I0
I0
I0
I0
I0
I0
I0
I0
I0
I0
I0
I0
I0
tp1376
g80
tp1377
g4
(g8
S'\xe0\xd5\xaex\xea\x0c\xdb?'
p1378
tp1379
Rp1380
s((I1
I0
I0
I0
I1
I1
I1
I1
I1
I1
I0
I0
I0
I0
I0
I0
I0
I0
I0
I0
I0
I0
I0
I0
I0
I0
I0
I0
I0
I0
I0
I0
I0
I0
I0
I0
I0
I0
I0
I0
I0
I0
I0
I0
I0
I0
I0
I0
I0
I0
I0
I0
I0
I0
I0
I0
I0
I0
I0
I0
I0
I0
I0
I0
I0
I0
I0
I0
I0
I0
I0
I0
I0
I0
I0
I0
I0
I0
I0
I0
I0
I0
I0
I0
I0
I0
I0
I0
I0
I0
I0
I0
I0
I0
I0
I0
I0
I0
I0
I0
I0
I0
I0
I0
tp1381
g80
tp1382
g4
(g8
S'\xe6n\xc8\xb3\xf7\x1d\xf6?'
p1383
tp1384
Rp1385
s((I0
I1
I0
I0
I1
I1
I1
I1
I1
I1
I1
I1
I1
I1
I1
I1
I1
I1
I1
I1
I0
I0
I0
I0
I0
I0
I0
I0
I0
I0
I0
I0
I0
I0
I0
I0
I0
I0
I0
I0
I0
I0
I0
I0
I0
I0
I0
I0
I0
I0
I0
I0
I0
I0
I0
I0
I0
I0
I0
I0
I0
I0
I0
I0
I0
I0
I0
I0
I0
I0
I0
I0
I0
I0
I0
I0
I0
I0
I0
I0
I0
I0
I0
I0
I0
I0
I0
I0
I0
I0
I0
I0
I0
I0
I0
I0
I0
I0
I0
I0
I0
I0
I0
I0
tp1386
g31
tp1387
F0.10526315789473684
s((I0
I0
I0
I1
I1
I1
I1
I1
I1
I1
I1
I1
I1
I1
I1
I1
I1
I1
I1
I1
I1
I1
I1
I1
I1
I1
I1
I1
I1
I1
I1
I1
I1
I1
I1
I1
I1
I1
I1
I1
I1
I1
I1
I1
I1
I1
I1
I1
I1
I1
I1
I1
I1
I1
I1
I1
I1
I0
I0
I0
I0
I0
I0
I0
I0
I0
I0
I0
I0
I0
I0
I0
I0
I0
I0
I0
I0
I0
I0
I0
I0
I0
I0
I0
I0
I0
I0
I0
I0
I0
I0
I0
I0
I0
I0
I0
I0
I0
I0
I0
I0
I0
I0
I0
tp1388
g63
tp1389
g4
(g8
S'\xdd53.\xae\xd4\x00@'
p1390
tp1391
Rp1392
s((I0
I1
I0
I0
I1
I1
I1
I1
I1
I1
I1
I1
I1
I1
I0
I0
I0
I0
I0
I0
I0
I0
I0
I0
I0
I0
I0
I0
I0
I0
I0
I0
I0
I0
I0
I0
I0
I0
I0
I0
I0
I0
I0
I0
I0
I0
I0
I0
I0
I0
I0
I0
I0
I0
I0
I0
I0
I0
I0
I0
I0
I0
I0
I0
I0
I0
I0
I0
I0
I0
I0
I0
I0
I0
I0
I0
I0
I0
I0
I0
I0
I0
I0
I0
I0
I0
I0
I0
I0
I0
I0
I0
I0
I0
I0
I0
I0
I0
I0
I0
I0
I0
I0
I0
tp1393
g2
tp1394
g4
(g8
S'[\xe9S\xc4\xbc\xe5\xf4?'
p1395
tp1396
Rp1397
s((I1
I0
I0
I0
I1
I1
I1
I1
I1
I1
I1
I1
I1
I1
I1
I1
I1
I1
I1
I1
I1
I0
I0
I0
I0
I0
I0
I0
I0
I0
I0
I0
I0
I0
I0
I0
I0
I0
I0
I0
I0
I0
I0
I0
I0
I0
I0
I0
I0
I0
I0
I0
I0
I0
I0
I0
I0
I0
I0
I0
I0
I0
I0
I0
I0
I0
I0
I0
I0
I0
I0
I0
I0
I0
I0
I0
I0
I0
I0
I0
I0
I0
I0
I0
I0
I0
I0
I0
I0
I0
I0
I0
I0
I0
I0
I0
I0
I0
I0
I0
I0
I0
I0
I0
tp1398
g37
tp1399
g4
(g8
S'j\xed\xe7\xa7%\xe1\xe2?'
p1400
tp1401
Rp1402
s((I0
I0
I1
I0
I1
I1
I1
I1
I1
I1
I1
I1
I1
I1
I1
I1
I1
I1
I1
I1
I1
I1
I1
I1
I1
I1
I1
I1
I1
I1
I1
I1
I1
I1
I1
I1
I1
I1
I1
I1
I1
I1
I1
I1
I1
I1
I1
I1
I1
I1
I1
I1
I1
I1
I0
I0
I0
I0
I0
I0
I0
I0
I0
I0
I0
I0
I0
I0
I0
I0
I0
I0
I0
I0
I0
I0
I0
I0
I0
I0
I0
I0
I0
I0
I0
I0
I0
I0
I0
I0
I0
I0
I0
I0
I0
I0
I0
I0
I0
I0
I0
I0
I0
I0
tp1403
g74
tp1404
g4
(g8
S'\n1*\x98\x82\x05\x01@'
p1405
tp1406
Rp1407
s((I0
I0
I0
I1
I1
I1
I1
I1
I1
I1
I1
I1
I1
I1
I1
I1
I1
I1
I1
I0
I0
I0
I0
I0
I0
I0
I0
I0
I0
I0
I0
I0
I0
I0
I0
I0
I0
I0
I0
I0
I0
I0
I0
I0
I0
I0
I0
I0
I0
I0
I0
I0
I0
I0
I0
I0
I0
I0
I0
I0
I0
I0
I0
I0
I0
I0
I0
I0
I0
I0
I0
I0
I0
I0
I0
I0
I0
I0
I0
I0
I0
I0
I0
I0
I0
I0
I0
I0
I0
I0
I0
I0
I0
I0
I0
I0
I0
I0
I0
I0
I0
I0
I0
I0
tp1408
g63
tp1409
g4
(g8
S'n\xecG\xa6\xd1\x9e\xf6?'
p1410
tp1411
Rp1412
s((I1
I0
I0
I0
I1
I1
I1
I1
I1
I1
I1
I1
I1
I1
I1
I1
I1
I1
I1
I1
I1
I1
I1
I0
I0
I0
I0
I0
I0
I0
I0
I0
I0
I0
I0
I0
I0
I0
I0
I0
I0
I0
I0
I0
I0
I0
I0
I0
I0
I0
I0
I0
I0
I0
I0
I0
I0
I0
I0
I0
I0
I0
I0
I0
I0
I0
I0
I0
I0
I0
I0
I0
I0
I0
I0
I0
I0
I0
I0
I0
I0
I0
I0
I0
I0
I0
I0
I0
I0
I0
I0
I0
I0
I0
I0
I0
I0
I0
I0
I0
I0
I0
I0
I0
tp1413
g80
tp1414
g4
(g8
S'\x01\x7fR\xd0\xf9e\xfc?'
p1415
tp1416
Rp1417
s((I0
I0
I0
I1
I1
I1
I1
I1
I1
I1
I1
I1
I1
I1
I1
I1
I1
I1
I1
I1
I1
I1
I1
I1
I1
I1
I1
I1
I1
I1
I1
I1
I1
I1
I1
I1
I1
I1
I1
I1
I1
I1
I1
I1
I1
I1
I1
I1
I1
I1
I1
I1
I1
I1
I1
I1
I1
I1
I1
I1
I1
I1
I1
I1
I1
I1
I1
I1
I1
I1
I1
I1
I1
I0
I0
I0
I0
I0
I0
I0
I0
I0
I0
I0
I0
I0
I0
I0
I0
I0
I0
I0
I0
I0
I0
I0
I0
I0
I0
I0
I0
I0
I0
I0
tp1418
g63
tp1419
g4
(g8
S'\x89\x83Q\x08\xa1t\x01@'
p1420
tp1421
Rp1422
s((I1
I0
I0
I0
I1
I1
I1
I1
I1
I1
I1
I1
I1
I1
I1
I1
I1
I1
I1
I0
I0
I0
I0
I0
I0
I0
I0
I0
I0
I0
I0
I0
I0
I0
I0
I0
I0
I0
I0
I0
I0
I0
I0
I0
I0
I0
I0
I0
I0
I0
I0
I0
I0
I0
I0
I0
I0
I0
I0
I0
I0
I0
I0
I0
I0
I0
I0
I0
I0
I0
I0
I0
I0
I0
I0
I0
I0
I0
I0
I0
I0
I0
I0
I0
I0
I0
I0
I0
I0
I0
I0
I0
I0
I0
I0
I0
I0
I0
I0
I0
I0
I0
I0
I0
tp1423
g37
tp1424
g4
(g8
S'\xf6!\xb8\xf1q\xb6\xff?'
p1425
tp1426
Rp1427
s((I0
I0
I1
I0
I1
I1
I1
I1
I1
I1
I1
I1
I1
I1
I1
I0
I0
I0
I0
I0
I0
I0
I0
I0
I0
I0
I0
I0
I0
I0
I0
I0
I0
I0
I0
I0
I0
I0
I0
I0
I0
I0
I0
I0
I0
I0
I0
I0
I0
I0
I0
I0
I0
I0
I0
I0
I0
I0
I0
I0
I0
I0
I0
I0
I0
I0
I0
I0
I0
I0
I0
I0
I0
I0
I0
I0
I0
I0
I0
I0
I0
I0
I0
I0
I0
I0
I0
I0
I0
I0
I0
I0
I0
I0
I0
I0
I0
I0
I0
I0
I0
I0
I0
I0
tp1428
g74
tp1429
g4
(g8
S'm\xce\x7f\x0e\xb8\xb3\xf5?'
p1430
tp1431
Rp1432
s((I0
I1
I0
I0
I1
I1
I1
I1
I1
I1
I1
I1
I1
I1
I1
I1
I1
I1
I1
I1
I1
I1
I1
I1
I1
I1
I1
I1
I1
I1
I1
I1
I1
I1
I1
I1
I1
I1
I1
I1
I1
I1
I1
I1
I1
I1
I1
I1
I1
I1
I1
I1
I1
I1
I1
I1
I1
I1
I1
I1
I1
I1
I1
I1
I1
I1
I1
I1
I1
I0
I0
I0
I0
I0
I0
I0
I0
I0
I0
I0
I0
I0
I0
I0
I0
I0
I0
I0
I0
I0
I0
I0
I0
I0
I0
I0
I0
I0
I0
I0
I0
I0
I0
I0
tp1433
g31
tp1434
g4
(g8
S'\xae\x02\x1c\t\x1d\xf7\xdf?'
p1435
tp1436
Rp1437
s((I0
I0
I1
I0
I1
I1
I1
I1
I1
I1
I1
I1
I1
I1
I1
I1
I1
I1
I1
I0
I0
I0
I0
I0
I0
I0
I0
I0
I0
I0
I0
I0
I0
I0
I0
I0
I0
I0
I0
I0
I0
I0
I0
I0
I0
I0
I0
I0
I0
I0
I0
I0
I0
I0
I0
I0
I0
I0
I0
I0
I0
I0
I0
I0
I0
I0
I0
I0
I0
I0
I0
I0
I0
I0
I0
I0
I0
I0
I0
I0
I0
I0
I0
I0
I0
I0
I0
I0
I0
I0
I0
I0
I0
I0
I0
I0
I0
I0
I0
I0
I0
I0
I0
I0
tp1438
g74
tp1439
g4
(g8
S'\xd0o\xef\x00\xf7d\xf7?'
p1440
tp1441
Rp1442
s((I0
I0
I1
I0
I1
I1
I1
I1
I1
I1
I1
I1
I1
I1
I1
I1
I1
I1
I1
I1
I1
I1
I1
I1
I1
I1
I1
I1
I1
I1
I1
I1
I1
I1
I1
I0
I0
I0
I0
I0
I0
I0
I0
I0
I0
I0
I0
I0
I0
I0
I0
I0
I0
I0
I0
I0
I0
I0
I0
I0
I0
I0
I0
I0
I0
I0
I0
I0
I0
I0
I0
I0
I0
I0
I0
I0
I0
I0
I0
I0
I0
I0
I0
I0
I0
I0
I0
I0
I0
I0
I0
I0
I0
I0
I0
I0
I0
I0
I0
I0
I0
I0
I0
I0
tp1443
g74
tp1444
g4
(g8
S'TT<\xd9\x96R\xf1?'
p1445
tp1446
Rp1447
s((I0
I0
I1
I0
I1
I1
I1
I1
I1
I1
I1
I1
I1
I1
I1
I1
I1
I1
I1
I1
I1
I1
I1
I1
I1
I1
I1
I1
I1
I1
I1
I1
I1
I1
I1
I1
I1
I1
I0
I0
I0
I0
I0
I0
I0
I0
I0
I0
I0
I0
I0
I0
I0
I0
I0
I0
I0
I0
I0
I0
I0
I0
I0
I0
I0
I0
I0
I0
I0
I0
I0
I0
I0
I0
I0
I0
I0
I0
I0
I0
I0
I0
I0
I0
I0
I0
I0
I0
I0
I0
I0
I0
I0
I0
I0
I0
I0
I0
I0
I0
I0
I0
I0
I0
tp1448
g103
tp1449
g4
(g8
S'w@\x1d?r"\x00@'
p1450
tp1451
Rp1452
s((I0
I0
I1
I0
I1
I1
I1
I1
I1
I1
I1
I1
I1
I1
I1
I1
I1
I1
I1
I1
I1
I1
I1
I1
I1
I1
I1
I1
I0
I0
I0
I0
I0
I0
I0
I0
I0
I0
I0
I0
I0
I0
I0
I0
I0
I0
I0
I0
I0
I0
I0
I0
I0
I0
I0
I0
I0
I0
I0
I0
I0
I0
I0
I0
I0
I0
I0
I0
I0
I0
I0
I0
I0
I0
I0
I0
I0
I0
I0
I0
I0
I0
I0
I0
I0
I0
I0
I0
I0
I0
I0
I0
I0
I0
I0
I0
I0
I0
I0
I0
I0
I0
I0
I0
tp1453
g74
tp1454
g4
(g8
S'\xbc\x9b\x9fTx\xed\xfa?'
p1455
tp1456
Rp1457
s((I0
I1
I0
I0
I1
I1
I1
I1
I1
I1
I1
I1
I1
I1
I1
I1
I1
I1
I1
I1
I1
I1
I1
I1
I0
I0
I0
I0
I0
I0
I0
I0
I0
I0
I0
I0
I0
I0
I0
I0
I0
I0
I0
I0
I0
I0
I0
I0
I0
I0
I0
I0
I0
I0
I0
I0
I0
I0
I0
I0
I0
I0
I0
I0
I0
I0
I0
I0
I0
I0
I0
I0
I0
I0
I0
I0
I0
I0
I0
I0
I0
I0
I0
I0
I0
I0
I0
I0
I0
I0
I0
I0
I0
I0
I0
I0
I0
I0
I0
I0
I0
I0
I0
I0
tp1458
g31
tp1459
g4
(g8
S'\x01\xa3\xaf\xaaZ\xb8\xeb?'
p1460
tp1461
Rp1462
s((I0
I0
I0
I1
I1
I1
I1
I1
I1
I1
I1
I1
I1
I1
I1
I1
I1
I1
I0
I0
I0
I0
I0
I0
I0
I0
I0
I0
I0
I0
I0
I0
I0
I0
I0
I0
I0
I0
I0
I0
I0
I0
I0
I0
I0
I0
I0
I0
I0
I0
I0
I0
I0
I0
I0
I0
I0
I0
I0
I0
I0
I0
I0
I0
I0
I0
I0
I0
I0
I0
I0
I0
I0
I0
I0
I0
I0
I0
I0
I0
I0
I0
I0
I0
I0
I0
I0
I0
I0
I0
I0
I0
I0
I0
I0
I0
I0
I0
I0
I0
I0
I0
I0
I0
tp1463
g63
tp1464
g4
(g8
S'"\x97 x\t\xd7\xf5?'
p1465
tp1466
Rp1467
s((I0
I0
I1
I0
I1
I1
I1
I1
I1
I1
I1
I1
I1
I1
I1
I1
I1
I1
I1
I1
I0
I0
I0
I0
I0
I0
I0
I0
I0
I0
I0
I0
I0
I0
I0
I0
I0
I0
I0
I0
I0
I0
I0
I0
I0
I0
I0
I0
I0
I0
I0
I0
I0
I0
I0
I0
I0
I0
I0
I0
I0
I0
I0
I0
I0
I0
I0
I0
I0
I0
I0
I0
I0
I0
I0
I0
I0
I0
I0
I0
I0
I0
I0
I0
I0
I0
I0
I0
I0
I0
I0
I0
I0
I0
I0
I0
I0
I0
I0
I0
I0
I0
I0
I0
tp1468
g74
tp1469
F0.05263157894736842
s((I1
I0
I0
I0
I1
I1
I1
I1
I1
I1
I1
I1
I1
I1
I1
I1
I1
I1
I0
I0
I0
I0
I0
I0
I0
I0
I0
I0
I0
I0
I0
I0
I0
I0
I0
I0
I0
I0
I0
I0
I0
I0
I0
I0
I0
I0
I0
I0
I0
I0
I0
I0
I0
I0
I0
I0
I0
I0
I0
I0
I0
I0
I0
I0
I0
I0
I0
I0
I0
I0
I0
I0
I0
I0
I0
I0
I0
I0
I0
I0
I0
I0
I0
I0
I0
I0
I0
I0
I0
I0
I0
I0
I0
I0
I0
I0
I0
I0
I0
I0
I0
I0
I0
I0
tp1470
g20
tp1471
g4
(g8
S'\xa3\xffm\x98\x0b\xe6\xfa?'
p1472
tp1473
Rp1474
s((I0
I0
I0
I1
I1
I1
I1
I1
I1
I1
I1
I1
I1
I1
I1
I1
I1
I1
I1
I1
I1
I1
I1
I1
I1
I1
I1
I1
I1
I1
I1
I1
I1
I1
I1
I1
I1
I1
I1
I1
I1
I1
I1
I1
I1
I1
I1
I1
I1
I1
I1
I1
I1
I1
I1
I1
I1
I1
I1
I1
I1
I1
I1
I1
I1
I1
I1
I1
I1
I1
I1
I1
I1
I1
I1
I1
I1
I1
I1
I1
I1
I1
I1
I1
I0
I0
I0
I0
I0
I0
I0
I0
I0
I0
I0
I0
I0
I0
I0
I0
I0
I0
I0
I0
tp1475
g63
tp1476
g4
(g8
S'\x8b\x88\x9a\xdbK\xc3\xf9?'
p1477
tp1478
Rp1479
s((I0
I0
I1
I0
I1
I1
I1
I1
I1
I1
I1
I1
I1
I1
I1
I1
I1
I1
I1
I1
I1
I1
I1
I1
I1
I1
I1
I1
I1
I1
I1
I1
I1
I1
I1
I1
I1
I1
I1
I1
I1
I1
I1
I1
I1
I1
I1
I1
I1
I1
I0
I0
I0
I0
I0
I0
I0
I0
I0
I0
I0
I0
I0
I0
I0
I0
I0
I0
I0
I0
I0
I0
I0
I0
I0
I0
I0
I0
I0
I0
I0
I0
I0
I0
I0
I0
I0
I0
I0
I0
I0
I0
I0
I0
I0
I0
I0
I0
I0
I0
I0
I0
I0
I0
tp1480
g74
tp1481
g4
(g8
S']\xea/;\xdd\xc3\xe1?'
p1482
tp1483
Rp1484
s((I0
I1
I0
I0
I1
I1
I1
I1
I1
I1
I1
I1
I1
I1
I1
I1
I1
I1
I1
I1
I1
I1
I1
I1
I1
I1
I1
I1
I1
I1
I1
I1
I1
I1
I1
I1
I1
I1
I1
I1
I1
I1
I1
I1
I1
I1
I1
I1
I1
I1
I1
I1
I0
I0
I0
I0
I0
I0
I0
I0
I0
I0
I0
I0
I0
I0
I0
I0
I0
I0
I0
I0
I0
I0
I0
I0
I0
I0
I0
I0
I0
I0
I0
I0
I0
I0
I0
I0
I0
I0
I0
I0
I0
I0
I0
I0
I0
I0
I0
I0
I0
I0
I0
I0
tp1485
g31
tp1486
g4
(g8
S'\xd0>\xaf,\x93\xb1\x03@'
p1487
tp1488
Rp1489
s((I0
I0
I0
I1
I1
I1
I1
I1
I1
I1
I1
I1
I1
I1
I1
I1
I1
I1
I1
I1
I1
I1
I1
I1
I1
I1
I1
I1
I1
I1
I1
I1
I1
I1
I1
I0
I0
I0
I0
I0
I0
I0
I0
I0
I0
I0
I0
I0
I0
I0
I0
I0
I0
I0
I0
I0
I0
I0
I0
I0
I0
I0
I0
I0
I0
I0
I0
I0
I0
I0
I0
I0
I0
I0
I0
I0
I0
I0
I0
I0
I0
I0
I0
I0
I0
I0
I0
I0
I0
I0
I0
I0
I0
I0
I0
I0
I0
I0
I0
I0
I0
I0
I0
I0
tp1490
g63
tp1491
g4
(g8
S'\xd8\x8f\xcbl_\x1e\xfd?'
p1492
tp1493
Rp1494
s((I1
I0
I0
I0
I1
I1
I1
I1
I1
I1
I1
I1
I1
I1
I1
I1
I1
I1
I1
I1
I1
I1
I1
I1
I1
I1
I1
I1
I1
I1
I1
I1
I1
I1
I1
I1
I1
I1
I1
I1
I1
I1
I1
I0
I0
I0
I0
I0
I0
I0
I0
I0
I0
I0
I0
I0
I0
I0
I0
I0
I0
I0
I0
I0
I0
I0
I0
I0
I0
I0
I0
I0
I0
I0
I0
I0
I0
I0
I0
I0
I0
I0
I0
I0
I0
I0
I0
I0
I0
I0
I0
I0
I0
I0
I0
I0
I0
I0
I0
I0
I0
I0
I0
I0
tp1495
g20
tp1496
g4
(g8
S'-\x99\xd2\xc1k\x91\xe0?'
p1497
tp1498
Rp1499
s((I0
I1
I0
I0
I1
I1
I1
I1
I1
I1
I1
I1
I1
I1
I1
I1
I0
I0
I0
I0
I0
I0
I0
I0
I0
I0
I0
I0
I0
I0
I0
I0
I0
I0
I0
I0
I0
I0
I0
I0
I0
I0
I0
I0
I0
I0
I0
I0
I0
I0
I0
I0
I0
I0
I0
I0
I0
I0
I0
I0
I0
I0
I0
I0
I0
I0
I0
I0
I0
I0
I0
I0
I0
I0
I0
I0
I0
I0
I0
I0
I0
I0
I0
I0
I0
I0
I0
I0
I0
I0
I0
I0
I0
I0
I0
I0
I0
I0
I0
I0
I0
I0
I0
I0
tp1500
g2
tp1501
g4
(g8
S'\xd1m,\xce,6\xd2?'
p1502
tp1503
Rp1504
s((I0
I1
I0
I0
I1
I1
I1
I1
I1
I1
I1
I1
I1
I1
I1
I1
I1
I1
I1
I1
I1
I1
I1
I1
I1
I1
I1
I1
I1
I1
I1
I1
I1
I1
I1
I1
I1
I1
I1
I1
I1
I1
I1
I1
I1
I1
I1
I1
I0
I0
I0
I0
I0
I0
I0
I0
I0
I0
I0
I0
I0
I0
I0
I0
I0
I0
I0
I0
I0
I0
I0
I0
I0
I0
I0
I0
I0
I0
I0
I0
I0
I0
I0
I0
I0
I0
I0
I0
I0
I0
I0
I0
I0
I0
I0
I0
I0
I0
I0
I0
I0
I0
I0
I0
tp1505
g2
tp1506
g4
(g8
S'\xcc\xa1f\xd1u]\x01@'
p1507
tp1508
Rp1509
s((I0
I0
I1
I0
I1
I1
I1
I1
I1
I1
I1
I1
I1
I1
I1
I1
I1
I1
I1
I1
I1
I1
I1
I1
I1
I1
I1
I1
I1
I1
I1
I1
I1
I1
I1
I1
I1
I1
I1
I1
I1
I1
I1
I1
I1
I1
I1
I0
I0
I0
I0
I0
I0
I0
I0
I0
I0
I0
I0
I0
I0
I0
I0
I0
I0
I0
I0
I0
I0
I0
I0
I0
I0
I0
I0
I0
I0
I0
I0
I0
I0
I0
I0
I0
I0
I0
I0
I0
I0
I0
I0
I0
I0
I0
I0
I0
I0
I0
I0
I0
I0
I0
I0
I0
tp1510
g103
tp1511
g4
(g8
S'a\xf9,ob\x08\x01@'
p1512
tp1513
Rp1514
s((I0
I0
I0
I1
I1
I1
I1
I1
I1
I1
I1
I1
I1
I1
I1
I1
I1
I1
I1
I1
I1
I1
I1
I1
I1
I1
I1
I1
I1
I1
I1
I1
I1
I1
I1
I1
I1
I1
I1
I1
I1
I1
I1
I1
I1
I1
I1
I1
I1
I1
I1
I1
I1
I1
I1
I1
I1
I1
I1
I1
I1
I1
I1
I1
I1
I1
I1
I1
I1
I1
I1
I1
I1
I1
I1
I1
I1
I1
I1
I1
I1
I1
I1
I0
I0
I0
I0
I0
I0
I0
I0
I0
I0
I0
I0
I0
I0
I0
I0
I0
I0
I0
I0
I0
tp1515
g63
tp1516
g4
(g8
S'\xe6\xc6\xde\xe1~\xd5\xff?'
p1517
tp1518
Rp1519
s((I1
I0
I0
I0
I1
I1
I1
I1
I1
I1
I1
I1
I1
I1
I1
I1
I0
I0
I0
I0
I0
I0
I0
I0
I0
I0
I0
I0
I0
I0
I0
I0
I0
I0
I0
I0
I0
I0
I0
I0
I0
I0
I0
I0
I0
I0
I0
I0
I0
I0
I0
I0
I0
I0
I0
I0
I0
I0
I0
I0
I0
I0
I0
I0
I0
I0
I0
I0
I0
I0
I0
I0
I0
I0
I0
I0
I0
I0
I0
I0
I0
I0
I0
I0
I0
I0
I0
I0
I0
I0
I0
I0
I0
I0
I0
I0
I0
I0
I0
I0
I0
I0
I0
I0
tp1520
g37
tp1521
g4
(g8
S'T\n3V\xafX\xda?'
p1522
tp1523
Rp1524
s((I0
I0
I1
I0
I1
I1
I1
I1
I1
I1
I1
I1
I1
I1
I1
I1
I1
I1
I1
I1
I1
I1
I1
I1
I1
I1
I1
I1
I1
I1
I1
I1
I1
I1
I1
I0
I0
I0
I0
I0
I0
I0
I0
I0
I0
I0
I0
I0
I0
I0
I0
I0
I0
I0
I0
I0
I0
I0
I0
I0
I0
I0
I0
I0
I0
I0
I0
I0
I0
I0
I0
I0
I0
I0
I0
I0
I0
I0
I0
I0
I0
I0
I0
I0
I0
I0
I0
I0
I0
I0
I0
I0
I0
I0
I0
I0
I0
I0
I0
I0
I0
I0
I0
I0
tp1525
g103
tp1526
F0.21739130434782608
s((I1
I0
I0
I0
I1
I1
I1
I1
I1
I1
I1
I1
I1
I1
I1
I1
I1
I1
I1
I1
I1
I1
I1
I1
I1
I1
I1
I1
I0
I0
I0
I0
I0
I0
I0
I0
I0
I0
I0
I0
I0
I0
I0
I0
I0
I0
I0
I0
I0
I0
I0
I0
I0
I0
I0
I0
I0
I0
I0
I0
I0
I0
I0
I0
I0
I0
I0
I0
I0
I0
I0
I0
I0
I0
I0
I0
I0
I0
I0
I0
I0
I0
I0
I0
I0
I0
I0
I0
I0
I0
I0
I0
I0
I0
I0
I0
I0
I0
I0
I0
I0
I0
I0
I0
tp1527
g20
tp1528
g4
(g8
S'T\xfc\x876D\xcb\x00@'
p1529
tp1530
Rp1531
s((I0
I0
I1
I0
I1
I1
I1
I1
I1
I1
I1
I1
I1
I1
I1
I1
I1
I1
I1
I1
I1
I1
I1
I1
I1
I1
I1
I1
I1
I1
I1
I1
I1
I1
I1
I1
I1
I1
I1
I1
I1
I0
I0
I0
I0
I0
I0
I0
I0
I0
I0
I0
I0
I0
I0
I0
I0
I0
I0
I0
I0
I0
I0
I0
I0
I0
I0
I0
I0
I0
I0
I0
I0
I0
I0
I0
I0
I0
I0
I0
I0
I0
I0
I0
I0
I0
I0
I0
I0
I0
I0
I0
I0
I0
I0
I0
I0
I0
I0
I0
I0
I0
I0
I0
tp1532
g103
tp1533
g4
(g8
S'\xa7\x18x\xdd\xe5o\xf5?'
p1534
tp1535
Rp1536
s((I0
I0
I1
I0
I1
I1
I1
I1
I1
I1
I1
I1
I1
I1
I1
I1
I1
I1
I1
I1
I1
I1
I1
I1
I1
I1
I1
I1
I1
I0
I0
I0
I0
I0
I0
I0
I0
I0
I0
I0
I0
I0
I0
I0
I0
I0
I0
I0
I0
I0
I0
I0
I0
I0
I0
I0
I0
I0
I0
I0
I0
I0
I0
I0
I0
I0
I0
I0
I0
I0
I0
I0
I0
I0
I0
I0
I0
I0
I0
I0
I0
I0
I0
I0
I0
I0
I0
I0
I0
I0
I0
I0
I0
I0
I0
I0
I0
I0
I0
I0
I0
I0
I0
I0
tp1537
g74
tp1538
g4
(g8
S'\x07\xde{`\xa7\x8d\xfc?'
p1539
tp1540
Rp1541
s((I0
I1
I0
I0
I1
I1
I1
I1
I1
I1
I1
I1
I1
I1
I1
I1
I1
I1
I1
I1
I1
I1
I1
I1
I1
I1
I1
I1
I1
I1
I1
I1
I1
I1
I1
I1
I1
I1
I1
I1
I1
I1
I1
I1
I1
I1
I1
I1
I1
I1
I0
I0
I0
I0
I0
I0
I0
I0
I0
I0
I0
I0
I0
I0
I0
I0
I0
I0
I0
I0
I0
I0
I0
I0
I0
I0
I0
I0
I0
I0
I0
I0
I0
I0
I0
I0
I0
I0
I0
I0
I0
I0
I0
I0
I0
I0
I0
I0
I0
I0
I0
I0
I0
I0
tp1542
g2
tp1543
g4
(g8
S',_\x187\x05\x01\x01@'
p1544
tp1545
Rp1546
s((I0
I0
I1
I0
I1
I1
I1
I1
I1
I1
I1
I1
I1
I0
I0
I0
I0
I0
I0
I0
I0
I0
I0
I0
I0
I0
I0
I0
I0
I0
I0
I0
I0
I0
I0
I0
I0
I0
I0
I0
I0
I0
I0
I0
I0
I0
I0
I0
I0
I0
I0
I0
I0
I0
I0
I0
I0
I0
I0
I0
I0
I0
I0
I0
I0
I0
I0
I0
I0
I0
I0
I0
I0
I0
I0
I0
I0
I0
I0
I0
I0
I0
I0
I0
I0
I0
I0
I0
I0
I0
I0
I0
I0
I0
I0
I0
I0
I0
I0
I0
I0
I0
I0
I0
tp1547
g103
tp1548
g4
(g8
S'Z\x89Y\xc4\x8e\x97\xc3?'
p1549
tp1550
Rp1551
s((I0
I0
I1
I0
I1
I1
I1
I1
I1
I1
I1
I1
I1
I1
I1
I1
I1
I1
I1
I1
I0
I0
I0
I0
I0
I0
I0
I0
I0
I0
I0
I0
I0
I0
I0
I0
I0
I0
I0
I0
I0
I0
I0
I0
I0
I0
I0
I0
I0
I0
I0
I0
I0
I0
I0
I0
I0
I0
I0
I0
I0
I0
I0
I0
I0
I0
I0
I0
I0
I0
I0
I0
I0
I0
I0
I0
I0
I0
I0
I0
I0
I0
I0
I0
I0
I0
I0
I0
I0
I0
I0
I0
I0
I0
I0
I0
I0
I0
I0
I0
I0
I0
I0
I0
tp1552
g103
tp1553
g4
(g8
S'tg\xdc\xf6\xa9\xf9\xf8?'
p1554
tp1555
Rp1556
s((I0
I0
I1
I0
I1
I1
I1
I1
I1
I1
I1
I1
I1
I1
I1
I1
I1
I1
I1
I1
I1
I1
I1
I1
I1
I1
I1
I1
I1
I1
I1
I1
I1
I1
I1
I1
I1
I1
I1
I1
I1
I1
I1
I1
I1
I1
I1
I1
I1
I0
I0
I0
I0
I0
I0
I0
I0
I0
I0
I0
I0
I0
I0
I0
I0
I0
I0
I0
I0
I0
I0
I0
I0
I0
I0
I0
I0
I0
I0
I0
I0
I0
I0
I0
I0
I0
I0
I0
I0
I0
I0
I0
I0
I0
I0
I0
I0
I0
I0
I0
I0
I0
I0
I0
tp1557
g74
tp1558
g4
(g8
S'\x9c\x17\xd0\xae\x92F\xfd?'
p1559
tp1560
Rp1561
s.