(dp0
((I0
I0
I0
I1
I1
I1
I1
I1
I1
I1
I1
I1
I1
I1
I1
I1
I1
I0
I0
I0
I0
I0
I0
I0
I0
I0
I0
I0
I0
I0
I0
I1
I0
cnumpy.core.multiarray
scalar
p1
(cnumpy
dtype
p2
(S'i8'
p3
I0
I1
tp4
Rp5
(I3
S'<'
p6
NNNI-1
I-1
I0
tp7
bS'\x00\x00\x00\x00\x00\x00\x00\x00'
p8
tp9
Rp10
g1
(g5
S'\x00\x00\x00\x00\x00\x00\x00\x00'
p11
tp12
Rp13
tp14
S'completed'
p15
tp16
F0.09090909090909091
s((I0
I0
I0
I1
I1
I1
I1
I1
I1
I1
I1
I1
I1
I1
I1
I1
I1
I1
I1
I1
I1
I1
I1
I1
I1
I0
I0
I0
I0
I1
I1
I1
I1
g1
(g5
S'\x01\x00\x00\x00\x00\x00\x00\x00'
p17
tp18
Rp19
g1
(g5
S'\x00\x00\x00\x00\x00\x00\x00\x00'
p20
tp21
Rp22
tp23
g15
tp24
F0.13636363636363635
s((I0
I0
I0
I1
I1
I1
I1
I1
I1
I1
I1
I1
I1
I1
I1
I1
I1
I1
I0
I0
I0
I0
I0
I0
I0
I0
I0
I0
I0
I1
I1
I1
I1
g1
(g5
S'\x00\x00\x00\x00\x00\x00\x00\x00'
p25
tp26
Rp27
g1
(g5
S'\x00\x00\x00\x00\x00\x00\x00\x00'
p28
tp29
Rp30
tp31
g15
tp32
F0.09090909090909091
s((I0
I0
I0
I1
I1
I1
I1
I1
I1
I1
I1
I1
I1
I1
I0
I0
I0
I0
I0
I0
I0
I0
I0
I0
I0
I0
I0
I0
I0
I1
I0
I1
I0
g1
(g5
S'\x00\x00\x00\x00\x00\x00\x00\x00'
p33
tp34
Rp35
g1
(g5
S'\x00\x00\x00\x00\x00\x00\x00\x00'
p36
tp37
Rp38
tp39
g15
tp40
F0.09090909090909091
s((I0
I1
I0
I0
I1
I1
I1
I1
I1
I0
I0
I0
I0
I0
I0
I0
I0
I0
I0
I0
I0
I0
I0
I0
I0
I0
I0
I0
I0
I1
I1
I1
I0
g1
(g5
S'\x00\x00\x00\x00\x00\x00\x00\x00'
p41
tp42
Rp43
g1
(g5
S'\x00\x00\x00\x00\x00\x00\x00\x00'
p44
tp45
Rp46
tp47
S'stay-long'
p48
tp49
F0.09090909090909091
s((I0
I0
I0
I1
I1
I1
I1
I1
I1
I1
I1
I1
I1
I1
I1
I1
I1
I1
I1
I1
I0
I0
I0
I0
I0
I0
I0
I0
I0
I1
I1
I1
I1
g1
(g5
S'\x00\x00\x00\x00\x00\x00\x00\x00'
p50
tp51
Rp52
g1
(g5
S'\x00\x00\x00\x00\x00\x00\x00\x00'
p53
tp54
Rp55
tp56
g15
tp57
F0.09090909090909091
s((I0
I0
I0
I1
I1
I1
I1
I1
I1
I1
I1
I1
I1
I1
I1
I0
I0
I0
I0
I0
I0
I0
I0
I0
I0
I0
I0
I0
I0
I1
I0
I1
I0
g1
(g5
S'\x00\x00\x00\x00\x00\x00\x00\x00'
p58
tp59
Rp60
g1
(g5
S'\x00\x00\x00\x00\x00\x00\x00\x00'
p61
tp62
Rp63
tp64
g15
tp65
F0.09090909090909091
s((I0
I0
I0
I1
I1
I1
I1
I1
I1
I1
I1
I1
I1
I1
I1
I1
I0
I0
I0
I0
I0
I0
I0
I0
I0
I0
I0
I0
I0
I1
I0
I0
I0
g1
(g5
S'\x00\x00\x00\x00\x00\x00\x00\x00'
p66
tp67
Rp68
g1
(g5
S'\x01\x00\x00\x00\x00\x00\x00\x00'
p69
tp70
Rp71
tp72
g15
tp73
F0.09090909090909091
s((I1
I0
I0
I0
I1
I1
I1
I1
I0
I0
I0
I0
I0
I0
I0
I0
I0
I0
I0
I0
I0
I0
I0
I0
I0
I0
I0
I0
I0
I1
I1
I1
I0
g1
(g5
S'\x00\x00\x00\x00\x00\x00\x00\x00'
p74
tp75
Rp76
g1
(g5
S'\x00\x00\x00\x00\x00\x00\x00\x00'
p77
tp78
Rp79
tp80
S'enter-long'
p81
tp82
F0.09090909090909091
s((I0
I0
I0
I1
I1
I1
I1
I1
I1
I1
I1
I1
I1
I1
I1
I1
I1
I1
I1
I1
I1
I1
I1
I1
I1
I1
I0
I0
I0
I1
I1
I1
I1
g1
(g5
S'\x00\x00\x00\x00\x00\x00\x00\x00'
p83
tp84
Rp85
g1
(g5
S'\x00\x00\x00\x00\x00\x00\x00\x00'
p86
tp87
Rp88
tp89
g15
tp90
F0.18181818181818182
s((I0
I0
I0
I1
I1
I1
I1
I1
I1
I1
I1
I1
I1
I1
I1
I1
I1
I1
I1
I1
I1
I1
I1
I0
I0
I0
I0
I0
I0
I1
I0
I0
I0
g1
(g5
S'\x00\x00\x00\x00\x00\x00\x00\x00'
p91
tp92
Rp93
g1
(g5
S'\x00\x00\x00\x00\x00\x00\x00\x00'
p94
tp95
Rp96
tp97
g15
tp98
F0.09090909090909091
s((I1
I0
I0
I0
I1
I1
I1
I0
I0
I0
I0
I0
I0
I0
I0
I0
I0
I0
I0
I0
I0
I0
I0
I0
I0
I0
I0
I0
I0
I1
I0
I1
I0
g1
(g5
S'\x00\x00\x00\x00\x00\x00\x00\x00'
p99
tp100
Rp101
g1
(g5
S'\x00\x00\x00\x00\x00\x00\x00\x00'
p102
tp103
Rp104
tp105
S'waiting'
p106
tp107
F0.09090909090909091
s((I0
I0
I0
I1
I1
I1
I1
I1
I1
I1
I1
I1
I0
I0
I0
I0
I0
I0
I0
I0
I0
I0
I0
I0
I0
I0
I0
I0
I0
I1
I0
I1
I0
g1
(g5
S'\x00\x00\x00\x00\x00\x00\x00\x00'
p108
tp109
Rp110
g1
(g5
S'\x00\x00\x00\x00\x00\x00\x00\x00'
p111
tp112
Rp113
tp114
g15
tp115
F0.09090909090909091
s((I0
I0
I0
I1
I1
I1
I1
I1
I1
I1
I1
I1
I1
I1
I1
I1
I1
I1
I1
I1
I1
I1
I1
I1
I1
I1
I1
I1
I0
I1
I1
I0
I1
g1
(g5
S'\x00\x00\x00\x00\x00\x00\x00\x00'
p116
tp117
Rp118
g1
(g5
S'\x00\x00\x00\x00\x00\x00\x00\x00'
p119
tp120
Rp121
tp122
g15
tp123
F0.2727272727272727
s((I1
I0
I0
I0
I1
I1
I0
I0
I0
I0
I0
I0
I0
I0
I0
I0
I0
I0
I0
I0
I0
I0
I0
I0
I0
I0
I0
I0
I0
I1
I0
I1
I0
g1
(g5
S'\x00\x00\x00\x00\x00\x00\x00\x00'
p124
tp125
Rp126
g1
(g5
S'\x00\x00\x00\x00\x00\x00\x00\x00'
p127
tp128
Rp129
tp130
g106
tp131
F0.045454545454545456
s((I0
I0
I0
I1
I1
I1
I1
I1
I1
I1
I1
I1
I1
I1
I1
I1
I1
I1
I1
I1
I1
I1
I0
I0
I0
I0
I0
I0
I0
I1
I1
I0
I1
g1
(g5
S'\x00\x00\x00\x00\x00\x00\x00\x00'
p132
tp133
Rp134
g1
(g5
S'\x00\x00\x00\x00\x00\x00\x00\x00'
p135
tp136
Rp137
tp138
g15
tp139
F0.09090909090909091
s((I0
I1
I0
I0
I1
I1
I1
I1
I1
I1
I0
I0
I0
I0
I0
I0
I0
I0
I0
I0
I0
I0
I0
I0
I0
I0
I0
I0
I0
I1
I1
I1
I1
g1
(g5
S'\x00\x00\x00\x00\x00\x00\x00\x00'
p140
tp141
Rp142
g1
(g5
S'\x00\x00\x00\x00\x00\x00\x00\x00'
p143
tp144
Rp145
tp146
S'exit-long'
p147
tp148
F0.09090909090909091
s((I0
I0
I0
I1
I1
I1
I1
I1
I1
I1
I1
I1
I1
I1
I1
I1
I1
I1
I1
I1
I1
I1
I1
I1
I0
I0
I0
I0
I0
I1
I0
I0
I0
g1
(g5
S'\x00\x00\x00\x00\x00\x00\x00\x00'
p149
tp150
Rp151
g1
(g5
S'\x00\x00\x00\x00\x00\x00\x00\x00'
p152
tp153
Rp154
tp155
g15
tp156
F0.09090909090909091
s((I0
I0
I0
I1
I1
I1
I1
I1
I1
I1
I1
I1
I1
I1
I1
I1
I1
I1
I1
I1
I1
I1
I1
I1
I1
I1
I1
I1
I1
I1
I0
I0
I0
g1
(g5
S'\x00\x00\x00\x00\x00\x00\x00\x00'
p157
tp158
Rp159
g1
(g5
S'\x00\x00\x00\x00\x00\x00\x00\x00'
p160
tp161
Rp162
tp163
g15
tp164
F0.3181818181818182
s((I0
I0
I0
I1
I1
I1
I1
I1
I1
I1
I1
I0
I0
I0
I0
I0
I0
I0
I0
I0
I0
I0
I0
I0
I0
I0
I0
I0
I0
I1
I1
I1
I0
g1
(g5
S'\x00\x00\x00\x00\x00\x00\x00\x00'
p165
tp166
Rp167
g1
(g5
S'\x00\x00\x00\x00\x00\x00\x00\x00'
p168
tp169
Rp170
tp171
g15
tp172
F0.09090909090909091
s((I0
I0
I0
I1
I1
I1
I1
I1
I1
I1
I1
I1
I1
I1
I1
I1
I1
I1
I1
I1
I1
I1
I1
I1
I1
I1
I1
I0
I0
I1
I1
I1
I1
g1
(g5
S'\x00\x00\x00\x00\x00\x00\x00\x00'
p173
tp174
Rp175
g1
(g5
S'\x00\x00\x00\x00\x00\x00\x00\x00'
p176
tp177
Rp178
tp179
g15
tp180
F0.22727272727272727
s((I0
I0
I0
I1
I1
I1
I1
I1
I1
I1
I1
I1
I1
I1
I1
I1
I1
I1
I1
I0
I0
I0
I0
I0
I0
I0
I0
I0
I0
I1
I1
I1
I1
g1
(g5
S'\x00\x00\x00\x00\x00\x00\x00\x00'
p181
tp182
Rp183
g1
(g5
S'\x00\x00\x00\x00\x00\x00\x00\x00'
p184
tp185
Rp186
tp187
g15
tp188
F0.09090909090909091
s.