(dp0
((I0
I0
I1
I0
I1
I1
I1
I1
I1
I1
I1
I1
I1
I1
I1
I1
I1
I1
I1
I1
I1
I1
I1
I1
I1
I1
I1
I1
I1
I1
I1
I1
I1
I1
I1
I1
I1
I1
I1
I1
I1
I1
I1
I1
I1
I1
I1
I1
I1
I1
I0
I0
I0
I0
I0
I0
I0
I0
I0
I0
I0
I0
I0
I0
I0
I0
I0
I0
I0
I0
I0
I0
I0
I0
I0
I0
I0
I0
I0
I0
I0
I0
I0
I0
I0
I0
I0
I0
I0
I0
I0
I0
I0
I0
I0
I0
I0
I0
I0
I0
I0
I0
I0
I0
tp1
S'stay-short'
p2
tp3
cnumpy.core.multiarray
scalar
p4
(cnumpy
dtype
p5
(S'f8'
p6
I0
I1
tp7
Rp8
(I3
S'<'
p9
NNNI-1
I-1
I0
tp10
bS'\xcd.sJ\xabD\x02@'
p11
tp12
Rp13
s((I0
I1
I0
I0
I1
I1
I1
I1
I1
I0
I0
I0
I0
I0
I0
I0
I0
I0
I0
I0
I0
I0
I0
I0
I0
I0
I0
I0
I0
I0
I0
I0
I0
I0
I0
I0
I0
I0
I0
I0
I0
I0
I0
I0
I0
I0
I0
I0
I0
I0
I0
I0
I0
I0
I0
I0
I0
I0
I0
I0
I0
I0
I0
I0
I0
I0
I0
I0
I0
I0
I0
I0
I0
I0
I0
I0
I0
I0
I0
I0
I0
I0
I0
I0
I0
I0
I0
I0
I0
I0
I0
I0
I0
I0
I0
I0
I0
I0
I0
I0
I0
I0
I0
I0
tp14
S'exit-long'
p15
tp16
g4
(g8
S'@\xdd=\xbd{;\xdc?'
p17
tp18
Rp19
s((I1
I0
I0
I0
I1
I1
I1
I1
I1
I1
I1
I1
I1
I1
I1
I1
I1
I1
I0
I0
I0
I0
I0
I0
I0
I0
I0
I0
I0
I0
I0
I0
I0
I0
I0
I0
I0
I0
I0
I0
I0
I0
I0
I0
I0
I0
I0
I0
I0
I0
I0
I0
I0
I0
I0
I0
I0
I0
I0
I0
I0
I0
I0
I0
I0
I0
I0
I0
I0
I0
I0
I0
I0
I0
I0
I0
I0
I0
I0
I0
I0
I0
I0
I0
I0
I0
I0
I0
I0
I0
I0
I0
I0
I0
I0
I0
I0
I0
I0
I0
I0
I0
I0
I0
tp20
S'enter-short'
p21
tp22
g4
(g8
S'4UR\xca`\xef\xf1?'
p23
tp24
Rp25
s((I0
I0
I1
I0
I1
I1
I1
I1
I1
I1
I1
I1
I1
I1
I1
I1
I1
I1
I1
I1
I0
I0
I0
I0
I0
I0
I0
I0
I0
I0
I0
I0
I0
I0
I0
I0
I0
I0
I0
I0
I0
I0
I0
I0
I0
I0
I0
I0
I0
I0
I0
I0
I0
I0
I0
I0
I0
I0
I0
I0
I0
I0
I0
I0
I0
I0
I0
I0
I0
I0
I0
I0
I0
I0
I0
I0
I0
I0
I0
I0
I0
I0
I0
I0
I0
I0
I0
I0
I0
I0
I0
I0
I0
I0
I0
I0
I0
I0
I0
I0
I0
I0
I0
I0
tp26
g2
tp27
g4
(g8
S'\xd4\x7f\t\x0e\xcck\x00@'
p28
tp29
Rp30
s((I1
I0
I0
I0
I1
I1
I1
I1
I1
I1
I1
I1
I1
I1
I1
I1
I1
I1
I1
I1
I1
I1
I0
I0
I0
I0
I0
I0
I0
I0
I0
I0
I0
I0
I0
I0
I0
I0
I0
I0
I0
I0
I0
I0
I0
I0
I0
I0
I0
I0
I0
I0
I0
I0
I0
I0
I0
I0
I0
I0
I0
I0
I0
I0
I0
I0
I0
I0
I0
I0
I0
I0
I0
I0
I0
I0
I0
I0
I0
I0
I0
I0
I0
I0
I0
I0
I0
I0
I0
I0
I0
I0
I0
I0
I0
I0
I0
I0
I0
I0
I0
I0
I0
I0
tp31
g21
tp32
g4
(g8
S'\xc7R\x81\xd694\xf0?'
p33
tp34
Rp35
s((I0
I0
I1
I0
I1
I1
I1
I1
I1
I1
I1
I1
I1
I1
I1
I1
I1
I1
I1
I1
I1
I1
I1
I1
I1
I1
I1
I1
I1
I1
I1
I1
I1
I1
I1
I1
I1
I1
I1
I1
I1
I1
I1
I1
I1
I1
I1
I1
I1
I1
I1
I1
I1
I1
I1
I1
I1
I1
I1
I1
I1
I1
I1
I1
I1
I1
I1
I1
I0
I0
I0
I0
I0
I0
I0
I0
I0
I0
I0
I0
I0
I0
I0
I0
I0
I0
I0
I0
I0
I0
I0
I0
I0
I0
I0
I0
I0
I0
I0
I0
I0
I0
I0
I0
tp36
g2
tp37
g4
(g8
S'n\xc9\xd8\x15\xe7\xb9\xd2?'
p38
tp39
Rp40
s((I0
I0
I1
I0
I1
I1
I1
I1
I1
I1
I1
I1
I1
I1
I1
I1
I1
I1
I1
I1
I1
I1
I1
I1
I1
I1
I1
I1
I1
I1
I1
I1
I1
I1
I1
I1
I1
I1
I0
I0
I0
I0
I0
I0
I0
I0
I0
I0
I0
I0
I0
I0
I0
I0
I0
I0
I0
I0
I0
I0
I0
I0
I0
I0
I0
I0
I0
I0
I0
I0
I0
I0
I0
I0
I0
I0
I0
I0
I0
I0
I0
I0
I0
I0
I0
I0
I0
I0
I0
I0
I0
I0
I0
I0
I0
I0
I0
I0
I0
I0
I0
I0
I0
I0
tp41
S'exit-short'
p42
tp43
g4
(g8
S'.\xad\x8a`\xa9\xaa\xfb?'
p44
tp45
Rp46
s((I0
I1
I0
I0
I1
I1
I1
I1
I1
I1
I1
I1
I1
I1
I1
I1
I1
I1
I1
I1
I1
I1
I1
I1
I1
I1
I1
I1
I1
I1
I1
I1
I1
I1
I1
I1
I1
I1
I1
I1
I1
I1
I1
I1
I1
I0
I0
I0
I0
I0
I0
I0
I0
I0
I0
I0
I0
I0
I0
I0
I0
I0
I0
I0
I0
I0
I0
I0
I0
I0
I0
I0
I0
I0
I0
I0
I0
I0
I0
I0
I0
I0
I0
I0
I0
I0
I0
I0
I0
I0
I0
I0
I0
I0
I0
I0
I0
I0
I0
I0
I0
I0
I0
I0
tp47
S'stay-long'
p48
tp49
g4
(g8
S'\xb6\xc5\xe1z\x89\x8a\xe6?'
p50
tp51
Rp52
s((I0
I0
I0
I1
I1
I1
I1
I1
I1
I1
I1
I1
I1
I1
I1
I1
I1
I1
I1
I1
I1
I1
I1
I1
I1
I1
I1
I1
I1
I1
I1
I1
I1
I1
I1
I1
I1
I1
I1
I1
I1
I1
I1
I1
I1
I1
I1
I1
I1
I1
I1
I1
I1
I1
I1
I1
I1
I1
I1
I0
I0
I0
I0
I0
I0
I0
I0
I0
I0
I0
I0
I0
I0
I0
I0
I0
I0
I0
I0
I0
I0
I0
I0
I0
I0
I0
I0
I0
I0
I0
I0
I0
I0
I0
I0
I0
I0
I0
I0
I0
I0
I0
I0
I0
tp53
S'completed'
p54
tp55
g4
(g8
S't\x00\xae\x99\nd\x01@'
p56
tp57
Rp58
s((I0
I0
I0
I1
I1
I1
I1
I1
I1
I1
I1
I1
I1
I1
I1
I1
I1
I1
I1
I1
I1
I1
I1
I1
I1
I1
I1
I1
I1
I1
I1
I1
I1
I1
I1
I1
I1
I1
I1
I1
I1
I1
I1
I1
I1
I1
I1
I1
I1
I1
I1
I1
I1
I1
I1
I1
I1
I1
I1
I1
I1
I1
I1
I1
I1
I1
I1
I1
I1
I1
I1
I1
I1
I1
I1
I1
I1
I1
I1
I1
I1
I1
I1
I1
I1
I1
I1
I1
I1
I1
I0
I0
I0
I0
I0
I0
I0
I0
I0
I0
I0
I0
I0
I0
tp59
g54
tp60
g4
(g8
S'\x00.\xe5\xba\x0e\x18\xf8?'
p61
tp62
Rp63
s((I0
I0
I0
I1
I1
I1
I1
I1
I1
I1
I1
I1
I1
I1
I1
I1
I1
I1
I1
I1
I1
I1
I1
I1
I1
I1
I1
I1
I1
I1
I1
I1
I1
I1
I1
I1
I1
I1
I1
I1
I1
I1
I1
I1
I1
I1
I1
I1
I1
I1
I1
I1
I1
I1
I1
I1
I1
I1
I1
I1
I1
I1
I1
I1
I1
I1
I1
I1
I1
I1
I1
I1
I1
I1
I1
I1
I1
I1
I1
I0
I0
I0
I0
I0
I0
I0
I0
I0
I0
I0
I0
I0
I0
I0
I0
I0
I0
I0
I0
I0
I0
I0
I0
I0
tp64
g54
tp65
g4
(g8
S'\xd1l\xd1\x17l\xd2\xfb?'
p66
tp67
Rp68
s((I0
I0
I1
I0
I1
I1
I1
I1
I1
I1
I1
I1
I1
I1
I1
I1
I1
I1
I1
I1
I1
I1
I1
I1
I1
I1
I1
I1
I1
I1
I1
I1
I1
I1
I1
I1
I1
I1
I1
I1
I1
I1
I1
I1
I1
I1
I1
I1
I1
I1
I1
I1
I1
I1
I1
I1
I1
I1
I1
I1
I1
I1
I1
I1
I1
I1
I1
I1
I1
I1
I1
I1
I1
I1
I1
I1
I1
I1
I1
I1
I1
I1
I0
I0
I0
I0
I0
I0
I0
I0
I0
I0
I0
I0
I0
I0
I0
I0
I0
I0
I0
I0
I0
I0
tp69
g2
tp70
g4
(g8
S'1|\xf4\xec\xa9&\x89?'
p71
tp72
Rp73
s((I1
I0
I0
I0
I1
I1
I1
I1
I1
I0
I0
I0
I0
I0
I0
I0
I0
I0
I0
I0
I0
I0
I0
I0
I0
I0
I0
I0
I0
I0
I0
I0
I0
I0
I0
I0
I0
I0
I0
I0
I0
I0
I0
I0
I0
I0
I0
I0
I0
I0
I0
I0
I0
I0
I0
I0
I0
I0
I0
I0
I0
I0
I0
I0
I0
I0
I0
I0
I0
I0
I0
I0
I0
I0
I0
I0
I0
I0
I0
I0
I0
I0
I0
I0
I0
I0
I0
I0
I0
I0
I0
I0
I0
I0
I0
I0
I0
I0
I0
I0
I0
I0
I0
I0
tp74
g21
tp75
g4
(g8
S'{\xe2\x8c\xb2qm\xfa?'
p76
tp77
Rp78
s((I0
I0
I1
I0
I1
I1
I1
I1
I1
I1
I1
I1
I1
I1
I1
I1
I1
I1
I1
I1
I1
I1
I1
I1
I1
I1
I1
I1
I1
I1
I1
I1
I1
I1
I1
I1
I1
I1
I1
I1
I1
I1
I1
I1
I1
I1
I1
I1
I1
I1
I1
I1
I0
I0
I0
I0
I0
I0
I0
I0
I0
I0
I0
I0
I0
I0
I0
I0
I0
I0
I0
I0
I0
I0
I0
I0
I0
I0
I0
I0
I0
I0
I0
I0
I0
I0
I0
I0
I0
I0
I0
I0
I0
I0
I0
I0
I0
I0
I0
I0
I0
I0
I0
I0
tp79
g42
tp80
g4
(g8
S'\\\xee\x83\x98\xdb\xd5\xff?'
p81
tp82
Rp83
s((I0
I0
I0
I1
I1
I1
I1
I1
I1
I1
I1
I1
I1
I1
I1
I1
I1
I1
I1
I1
I1
I1
I1
I1
I1
I1
I1
I1
I1
I1
I1
I1
I1
I1
I1
I1
I1
I1
I1
I1
I1
I1
I1
I1
I1
I1
I1
I1
I1
I1
I1
I1
I1
I1
I1
I1
I1
I1
I1
I1
I1
I1
I1
I1
I1
I1
I1
I1
I1
I1
I0
I0
I0
I0
I0
I0
I0
I0
I0
I0
I0
I0
I0
I0
I0
I0
I0
I0
I0
I0
I0
I0
I0
I0
I0
I0
I0
I0
I0
I0
I0
I0
I0
I0
tp84
g54
tp85
g4
(g8
S'\x8f\x926\xe4\x8bU\xff?'
p86
tp87
Rp88
s((I0
I0
I1
I0
I1
I1
I1
I1
I1
I1
I1
I1
I1
I1
I1
I1
I1
I1
I1
I1
I1
I1
I1
I1
I1
I1
I1
I1
I1
I1
I1
I1
I1
I1
I1
I1
I1
I1
I1
I1
I1
I1
I1
I1
I1
I1
I1
I1
I1
I1
I1
I1
I1
I1
I1
I1
I1
I1
I1
I1
I1
I1
I1
I1
I0
I0
I0
I0
I0
I0
I0
I0
I0
I0
I0
I0
I0
I0
I0
I0
I0
I0
I0
I0
I0
I0
I0
I0
I0
I0
I0
I0
I0
I0
I0
I0
I0
I0
I0
I0
I0
I0
I0
I0
tp89
g42
tp90
g4
(g8
S'7\x87\xe4\x7f\x8af\xa5?'
p91
tp92
Rp93
s((I0
I0
I1
I0
I1
I1
I1
I1
I1
I1
I1
I1
I1
I1
I1
I1
I1
I1
I1
I1
I1
I1
I1
I1
I1
I1
I1
I1
I1
I1
I1
I1
I1
I1
I1
I1
I1
I1
I1
I1
I1
I0
I0
I0
I0
I0
I0
I0
I0
I0
I0
I0
I0
I0
I0
I0
I0
I0
I0
I0
I0
I0
I0
I0
I0
I0
I0
I0
I0
I0
I0
I0
I0
I0
I0
I0
I0
I0
I0
I0
I0
I0
I0
I0
I0
I0
I0
I0
I0
I0
I0
I0
I0
I0
I0
I0
I0
I0
I0
I0
I0
I0
I0
I0
tp94
g42
tp95
g4
(g8
S'W(#\xdd\xb1\x7f\x00@'
p96
tp97
Rp98
s((I0
I0
I1
I0
I1
I1
I1
I1
I1
I1
I1
I1
I1
I1
I1
I1
I1
I1
I1
I1
I1
I1
I1
I1
I1
I1
I1
I0
I0
I0
I0
I0
I0
I0
I0
I0
I0
I0
I0
I0
I0
I0
I0
I0
I0
I0
I0
I0
I0
I0
I0
I0
I0
I0
I0
I0
I0
I0
I0
I0
I0
I0
I0
I0
I0
I0
I0
I0
I0
I0
I0
I0
I0
I0
I0
I0
I0
I0
I0
I0
I0
I0
I0
I0
I0
I0
I0
I0
I0
I0
I0
I0
I0
I0
I0
I0
I0
I0
I0
I0
I0
I0
I0
I0
tp99
g2
tp100
g4
(g8
S'<\xafU\n\x9c\n\x02@'
p101
tp102
Rp103
s((I0
I1
I0
I0
I1
I1
I1
I1
I1
I1
I1
I1
I1
I1
I1
I1
I1
I1
I1
I1
I1
I1
I0
I0
I0
I0
I0
I0
I0
I0
I0
I0
I0
I0
I0
I0
I0
I0
I0
I0
I0
I0
I0
I0
I0
I0
I0
I0
I0
I0
I0
I0
I0
I0
I0
I0
I0
I0
I0
I0
I0
I0
I0
I0
I0
I0
I0
I0
I0
I0
I0
I0
I0
I0
I0
I0
I0
I0
I0
I0
I0
I0
I0
I0
I0
I0
I0
I0
I0
I0
I0
I0
I0
I0
I0
I0
I0
I0
I0
I0
I0
I0
I0
I0
tp104
g15
tp105
g4
(g8
S'\xda\x80\xd6\xe2\x9d\xb5\xf3?'
p106
tp107
Rp108
s((I0
I0
I1
I0
I1
I1
I1
I1
I1
I1
I1
I1
I1
I1
I1
I1
I1
I1
I1
I1
I1
I1
I1
I0
I0
I0
I0
I0
I0
I0
I0
I0
I0
I0
I0
I0
I0
I0
I0
I0
I0
I0
I0
I0
I0
I0
I0
I0
I0
I0
I0
I0
I0
I0
I0
I0
I0
I0
I0
I0
I0
I0
I0
I0
I0
I0
I0
I0
I0
I0
I0
I0
I0
I0
I0
I0
I0
I0
I0
I0
I0
I0
I0
I0
I0
I0
I0
I0
I0
I0
I0
I0
I0
I0
I0
I0
I0
I0
I0
I0
I0
I0
I0
I0
tp109
g2
tp110
g4
(g8
S'\x98~wTc^\x01@'
p111
tp112
Rp113
s((I0
I1
I0
I0
I1
I1
I1
I1
I1
I1
I1
I1
I1
I1
I1
I1
I1
I1
I1
I1
I1
I1
I1
I1
I1
I1
I1
I1
I1
I1
I1
I1
I1
I1
I1
I1
I1
I1
I1
I0
I0
I0
I0
I0
I0
I0
I0
I0
I0
I0
I0
I0
I0
I0
I0
I0
I0
I0
I0
I0
I0
I0
I0
I0
I0
I0
I0
I0
I0
I0
I0
I0
I0
I0
I0
I0
I0
I0
I0
I0
I0
I0
I0
I0
I0
I0
I0
I0
I0
I0
I0
I0
I0
I0
I0
I0
I0
I0
I0
I0
I0
I0
I0
I0
tp114
g48
tp115
g4
(g8
S'\x0ewi\xfcsS\xfb?'
p116
tp117
Rp118
s((I0
I1
I0
I0
I1
I1
I1
I1
I1
I1
I1
I1
I1
I1
I1
I0
I0
I0
I0
I0
I0
I0
I0
I0
I0
I0
I0
I0
I0
I0
I0
I0
I0
I0
I0
I0
I0
I0
I0
I0
I0
I0
I0
I0
I0
I0
I0
I0
I0
I0
I0
I0
I0
I0
I0
I0
I0
I0
I0
I0
I0
I0
I0
I0
I0
I0
I0
I0
I0
I0
I0
I0
I0
I0
I0
I0
I0
I0
I0
I0
I0
I0
I0
I0
I0
I0
I0
I0
I0
I0
I0
I0
I0
I0
I0
I0
I0
I0
I0
I0
I0
I0
I0
I0
tp119
g15
tp120
g4
(g8
S'U\x94\x16\x005\xbc\xeb?'
p121
tp122
Rp123
s((I0
I1
I0
I0
I1
I1
I1
I1
I1
I1
I1
I1
I1
I1
I1
I1
I1
I1
I1
I1
I1
I1
I1
I1
I1
I1
I1
I1
I1
I1
I1
I1
I1
I1
I1
I1
I1
I1
I1
I1
I1
I1
I1
I1
I0
I0
I0
I0
I0
I0
I0
I0
I0
I0
I0
I0
I0
I0
I0
I0
I0
I0
I0
I0
I0
I0
I0
I0
I0
I0
I0
I0
I0
I0
I0
I0
I0
I0
I0
I0
I0
I0
I0
I0
I0
I0
I0
I0
I0
I0
I0
I0
I0
I0
I0
I0
I0
I0
I0
I0
I0
I0
I0
I0
tp124
g15
tp125
g4
(g8
S'Z\xc8*\x0e\xb2n\xfc?'
p126
tp127
Rp128
s((I0
I0
I1
I0
I1
I1
I1
I1
I1
I0
I0
I0
I0
I0
I0
I0
I0
I0
I0
I0
I0
I0
I0
I0
I0
I0
I0
I0
I0
I0
I0
I0
I0
I0
I0
I0
I0
I0
I0
I0
I0
I0
I0
I0
I0
I0
I0
I0
I0
I0
I0
I0
I0
I0
I0
I0
I0
I0
I0
I0
I0
I0
I0
I0
I0
I0
I0
I0
I0
I0
I0
I0
I0
I0
I0
I0
I0
I0
I0
I0
I0
I0
I0
I0
I0
I0
I0
I0
I0
I0
I0
I0
I0
I0
I0
I0
I0
I0
I0
I0
I0
I0
I0
I0
tp129
g2
tp130
g4
(g8
S'v\xa1\xcb\xdbq\x91\xfa?'
p131
tp132
Rp133
s((I0
I1
I0
I0
I1
I1
I1
I1
I1
I1
I0
I0
I0
I0
I0
I0
I0
I0
I0
I0
I0
I0
I0
I0
I0
I0
I0
I0
I0
I0
I0
I0
I0
I0
I0
I0
I0
I0
I0
I0
I0
I0
I0
I0
I0
I0
I0
I0
I0
I0
I0
I0
I0
I0
I0
I0
I0
I0
I0
I0
I0
I0
I0
I0
I0
I0
I0
I0
I0
I0
I0
I0
I0
I0
I0
I0
I0
I0
I0
I0
I0
I0
I0
I0
I0
I0
I0
I0
I0
I0
I0
I0
I0
I0
I0
I0
I0
I0
I0
I0
I0
I0
I0
I0
tp134
g15
tp135
g4
(g8
S'\x8d\xd5\x97X\xe2*\xac?'
p136
tp137
Rp138
s((I0
I0
I1
I0
I1
I1
I1
I1
I1
I1
I1
I1
I1
I1
I1
I1
I1
I1
I0
I0
I0
I0
I0
I0
I0
I0
I0
I0
I0
I0
I0
I0
I0
I0
I0
I0
I0
I0
I0
I0
I0
I0
I0
I0
I0
I0
I0
I0
I0
I0
I0
I0
I0
I0
I0
I0
I0
I0
I0
I0
I0
I0
I0
I0
I0
I0
I0
I0
I0
I0
I0
I0
I0
I0
I0
I0
I0
I0
I0
I0
I0
I0
I0
I0
I0
I0
I0
I0
I0
I0
I0
I0
I0
I0
I0
I0
I0
I0
I0
I0
I0
I0
I0
I0
tp139
g2
tp140
g4
(g8
S'\x03\x84\xa5\xb4\x02\x8c\x00@'
p141
tp142
Rp143
s((I0
I0
I1
I0
I1
I1
I1
I1
I1
I0
I0
I0
I0
I0
I0
I0
I0
I0
I0
I0
I0
I0
I0
I0
I0
I0
I0
I0
I0
I0
I0
I0
I0
I0
I0
I0
I0
I0
I0
I0
I0
I0
I0
I0
I0
I0
I0
I0
I0
I0
I0
I0
I0
I0
I0
I0
I0
I0
I0
I0
I0
I0
I0
I0
I0
I0
I0
I0
I0
I0
I0
I0
I0
I0
I0
I0
I0
I0
I0
I0
I0
I0
I0
I0
I0
I0
I0
I0
I0
I0
I0
I0
I0
I0
I0
I0
I0
I0
I0
I0
I0
I0
I0
I0
tp144
g42
tp145
g4
(g8
S'3\x95\xb4\xbd\xba\xd9\xf1?'
p146
tp147
Rp148
s((I0
I1
I0
I0
I1
I1
I1
I1
I1
I1
I1
I1
I1
I1
I1
I1
I1
I1
I1
I1
I1
I1
I1
I1
I1
I1
I1
I1
I1
I1
I1
I1
I1
I1
I1
I0
I0
I0
I0
I0
I0
I0
I0
I0
I0
I0
I0
I0
I0
I0
I0
I0
I0
I0
I0
I0
I0
I0
I0
I0
I0
I0
I0
I0
I0
I0
I0
I0
I0
I0
I0
I0
I0
I0
I0
I0
I0
I0
I0
I0
I0
I0
I0
I0
I0
I0
I0
I0
I0
I0
I0
I0
I0
I0
I0
I0
I0
I0
I0
I0
I0
I0
I0
I0
tp149
g48
tp150
g4
(g8
S'O\xd4\xf1\x84\xfa!\xf8?'
p151
tp152
Rp153
s((I1
I0
I0
I0
I1
I1
I1
I1
I1
I1
I1
I1
I1
I1
I1
I1
I1
I1
I1
I1
I1
I1
I1
I1
I0
I0
I0
I0
I0
I0
I0
I0
I0
I0
I0
I0
I0
I0
I0
I0
I0
I0
I0
I0
I0
I0
I0
I0
I0
I0
I0
I0
I0
I0
I0
I0
I0
I0
I0
I0
I0
I0
I0
I0
I0
I0
I0
I0
I0
I0
I0
I0
I0
I0
I0
I0
I0
I0
I0
I0
I0
I0
I0
I0
I0
I0
I0
I0
I0
I0
I0
I0
I0
I0
I0
I0
I0
I0
I0
I0
I0
I0
I0
I0
tp154
S'waiting'
p155
tp156
g4
(g8
S'\t[\x83<\xec\x94\xcc?'
p157
tp158
Rp159
s((I0
I1
I0
I0
I1
I1
I1
I1
I1
I1
I1
I1
I1
I1
I1
I1
I1
I1
I1
I0
I0
I0
I0
I0
I0
I0
I0
I0
I0
I0
I0
I0
I0
I0
I0
I0
I0
I0
I0
I0
I0
I0
I0
I0
I0
I0
I0
I0
I0
I0
I0
I0
I0
I0
I0
I0
I0
I0
I0
I0
I0
I0
I0
I0
I0
I0
I0
I0
I0
I0
I0
I0
I0
I0
I0
I0
I0
I0
I0
I0
I0
I0
I0
I0
I0
I0
I0
I0
I0
I0
I0
I0
I0
I0
I0
I0
I0
I0
I0
I0
I0
I0
I0
I0
tp160
g15
tp161
g4
(g8
S'j\xdat\x1f\xe0\xc6\xf6?'
p162
tp163
Rp164
s((I0
I0
I1
I0
I1
I1
I1
I1
I1
I1
I1
I1
I1
I1
I1
I1
I1
I1
I1
I1
I1
I1
I1
I1
I1
I1
I1
I1
I1
I1
I1
I1
I1
I1
I1
I1
I1
I1
I1
I1
I1
I1
I1
I1
I1
I1
I1
I1
I1
I1
I1
I1
I1
I1
I1
I1
I1
I1
I1
I1
I1
I1
I1
I1
I1
I1
I1
I1
I1
I1
I1
I1
I1
I1
I1
I1
I1
I0
I0
I0
I0
I0
I0
I0
I0
I0
I0
I0
I0
I0
I0
I0
I0
I0
I0
I0
I0
I0
I0
I0
I0
I0
I0
I0
tp165
g42
tp166
g4
(g8
S'\xd2\xa3\nH\xc4&\x03@'
p167
tp168
Rp169
s((I0
I0
I1
I0
I1
I1
I1
I1
I1
I1
I1
I1
I1
I1
I1
I1
I1
I1
I1
I1
I1
I1
I1
I1
I1
I1
I1
I0
I0
I0
I0
I0
I0
I0
I0
I0
I0
I0
I0
I0
I0
I0
I0
I0
I0
I0
I0
I0
I0
I0
I0
I0
I0
I0
I0
I0
I0
I0
I0
I0
I0
I0
I0
I0
I0
I0
I0
I0
I0
I0
I0
I0
I0
I0
I0
I0
I0
I0
I0
I0
I0
I0
I0
I0
I0
I0
I0
I0
I0
I0
I0
I0
I0
I0
I0
I0
I0
I0
I0
I0
I0
I0
I0
I0
tp170
g42
tp171
g4
(g8
S'\xa9\xe3Y-\xb5&\xfe?'
p172
tp173
Rp174
s((I0
I0
I0
I1
I1
I1
I1
I1
I1
I1
I1
I1
I1
I1
I1
I1
I1
I1
I1
I1
I1
I1
I1
I1
I1
I1
I1
I1
I1
I1
I1
I1
I1
I1
I1
I1
I1
I1
I1
I1
I1
I1
I1
I1
I1
I1
I1
I1
I1
I1
I0
I0
I0
I0
I0
I0
I0
I0
I0
I0
I0
I0
I0
I0
I0
I0
I0
I0
I0
I0
I0
I0
I0
I0
I0
I0
I0
I0
I0
I0
I0
I0
I0
I0
I0
I0
I0
I0
I0
I0
I0
I0
I0
I0
I0
I0
I0
I0
I0
I0
I0
I0
I0
I0
tp175
g54
tp176
g4
(g8
S'\xc6~\xc8A\xb1\x92\xff?'
p177
tp178
Rp179
s((I0
I0
I1
I0
I1
I1
I1
I1
I1
I1
I1
I1
I1
I1
I1
I1
I1
I1
I1
I1
I1
I1
I1
I1
I1
I1
I1
I1
I1
I1
I1
I1
I1
I1
I1
I1
I1
I1
I1
I1
I1
I1
I1
I1
I1
I1
I1
I1
I1
I1
I1
I1
I0
I0
I0
I0
I0
I0
I0
I0
I0
I0
I0
I0
I0
I0
I0
I0
I0
I0
I0
I0
I0
I0
I0
I0
I0
I0
I0
I0
I0
I0
I0
I0
I0
I0
I0
I0
I0
I0
I0
I0
I0
I0
I0
I0
I0
I0
I0
I0
I0
I0
I0
I0
tp180
g2
tp181
g4
(g8
S'#\xb2r\x1a\t\x1d\x02@'
p182
tp183
Rp184
s((I0
I0
I1
I0
I1
I1
I1
I1
I1
I1
I1
I1
I1
I1
I1
I1
I1
I1
I1
I1
I1
I1
I1
I1
I1
I1
I1
I1
I1
I1
I1
I1
I1
I1
I1
I1
I1
I1
I1
I1
I1
I1
I1
I1
I1
I1
I1
I1
I1
I1
I1
I1
I1
I1
I1
I1
I1
I1
I1
I1
I1
I1
I1
I1
I1
I1
I1
I1
I1
I1
I1
I1
I1
I1
I1
I1
I1
I0
I0
I0
I0
I0
I0
I0
I0
I0
I0
I0
I0
I0
I0
I0
I0
I0
I0
I0
I0
I0
I0
I0
I0
I0
I0
I0
tp185
g2
tp186
g4
(g8
S'\xdb\xc8\xec\xf9P\x95\xf0?'
p187
tp188
Rp189
s((I0
I0
I0
I1
I1
I1
I1
I1
I1
I1
I1
I1
I1
I1
I1
I1
I1
I1
I1
I1
I1
I1
I1
I1
I1
I1
I1
I1
I1
I1
I1
I1
I1
I1
I1
I1
I1
I1
I1
I1
I1
I1
I1
I1
I1
I1
I1
I1
I1
I1
I1
I1
I1
I1
I1
I1
I1
I1
I1
I1
I1
I1
I1
I1
I1
I1
I1
I1
I1
I1
I1
I1
I1
I1
I0
I0
I0
I0
I0
I0
I0
I0
I0
I0
I0
I0
I0
I0
I0
I0
I0
I0
I0
I0
I0
I0
I0
I0
I0
I0
I0
I0
I0
I0
tp190
g54
tp191
g4
(g8
S'\xd1\xeb$b\x96 \xfe?'
p192
tp193
Rp194
s((I0
I0
I1
I0
I1
I1
I1
I1
I1
I1
I1
I1
I1
I1
I1
I1
I1
I1
I1
I1
I1
I1
I1
I1
I1
I1
I1
I1
I1
I1
I1
I1
I1
I1
I1
I1
I1
I1
I1
I1
I1
I1
I1
I1
I1
I1
I1
I1
I1
I1
I1
I1
I1
I1
I1
I1
I1
I1
I1
I1
I1
I1
I1
I1
I1
I1
I1
I1
I1
I1
I1
I1
I1
I1
I1
I1
I1
I1
I1
I1
I1
I1
I0
I0
I0
I0
I0
I0
I0
I0
I0
I0
I0
I0
I0
I0
I0
I0
I0
I0
I0
I0
I0
I0
tp195
g42
tp196
g4
(g8
S'+\xfcE0Gn\xf2?'
p197
tp198
Rp199
s((I0
I0
I0
I1
I1
I1
I1
I1
I1
I1
I1
I1
I1
I1
I1
I1
I1
I1
I1
I1
I1
I1
I1
I1
I1
I1
I1
I1
I1
I1
I1
I1
I1
I1
I1
I1
I1
I1
I1
I1
I1
I1
I1
I1
I1
I1
I1
I1
I1
I1
I1
I1
I1
I1
I1
I1
I1
I1
I1
I1
I1
I1
I0
I0
I0
I0
I0
I0
I0
I0
I0
I0
I0
I0
I0
I0
I0
I0
I0
I0
I0
I0
I0
I0
I0
I0
I0
I0
I0
I0
I0
I0
I0
I0
I0
I0
I0
I0
I0
I0
I0
I0
I0
I0
tp200
g54
tp201
g4
(g8
S'\xa2\xe5uu\xfe\x15\x01@'
p202
tp203
Rp204
s((I1
I0
I0
I0
I1
I1
I1
I1
I1
I1
I1
I1
I1
I1
I0
I0
I0
I0
I0
I0
I0
I0
I0
I0
I0
I0
I0
I0
I0
I0
I0
I0
I0
I0
I0
I0
I0
I0
I0
I0
I0
I0
I0
I0
I0
I0
I0
I0
I0
I0
I0
I0
I0
I0
I0
I0
I0
I0
I0
I0
I0
I0
I0
I0
I0
I0
I0
I0
I0
I0
I0
I0
I0
I0
I0
I0
I0
I0
I0
I0
I0
I0
I0
I0
I0
I0
I0
I0
I0
I0
I0
I0
I0
I0
I0
I0
I0
I0
I0
I0
I0
I0
I0
I0
tp205
S'enter-long'
p206
tp207
g4
(g8
S'eZ\xbb\xfaSU\xf6?'
p208
tp209
Rp210
s((I0
I0
I0
I1
I1
I1
I1
I1
I1
I1
I1
I1
I1
I1
I1
I1
I1
I1
I1
I1
I1
I1
I1
I1
I1
I1
I1
I1
I1
I1
I1
I1
I1
I1
I1
I1
I1
I1
I1
I1
I1
I1
I1
I1
I1
I1
I1
I1
I1
I1
I1
I1
I1
I1
I0
I0
I0
I0
I0
I0
I0
I0
I0
I0
I0
I0
I0
I0
I0
I0
I0
I0
I0
I0
I0
I0
I0
I0
I0
I0
I0
I0
I0
I0
I0
I0
I0
I0
I0
I0
I0
I0
I0
I0
I0
I0
I0
I0
I0
I0
I0
I0
I0
I0
tp211
g54
tp212
g4
(g8
S'hl\xa5V\x8fK\xff?'
p213
tp214
Rp215
s((I1
I0
I0
I0
I1
I1
I1
I1
I1
I1
I1
I1
I1
I1
I1
I1
I1
I1
I1
I1
I1
I1
I1
I1
I1
I1
I1
I1
I1
I1
I1
I1
I1
I1
I1
I1
I1
I1
I1
I0
I0
I0
I0
I0
I0
I0
I0
I0
I0
I0
I0
I0
I0
I0
I0
I0
I0
I0
I0
I0
I0
I0
I0
I0
I0
I0
I0
I0
I0
I0
I0
I0
I0
I0
I0
I0
I0
I0
I0
I0
I0
I0
I0
I0
I0
I0
I0
I0
I0
I0
I0
I0
I0
I0
I0
I0
I0
I0
I0
I0
I0
I0
I0
I0
tp216
g155
tp217
g4
(g8
S'\xcby\x85E\xce\xaf\xe8?'
p218
tp219
Rp220
s((I1
I0
I0
I0
I1
I1
I1
I1
I1
I1
I1
I1
I1
I1
I1
I1
I1
I1
I1
I1
I1
I1
I1
I1
I1
I1
I1
I0
I0
I0
I0
I0
I0
I0
I0
I0
I0
I0
I0
I0
I0
I0
I0
I0
I0
I0
I0
I0
I0
I0
I0
I0
I0
I0
I0
I0
I0
I0
I0
I0
I0
I0
I0
I0
I0
I0
I0
I0
I0
I0
I0
I0
I0
I0
I0
I0
I0
I0
I0
I0
I0
I0
I0
I0
I0
I0
I0
I0
I0
I0
I0
I0
I0
I0
I0
I0
I0
I0
I0
I0
I0
I0
I0
I0
tp221
g206
tp222
g4
(g8
S'\x8d^>R^\xd3\xe4?'
p223
tp224
Rp225
s((I0
I0
I1
I0
I1
I1
I1
I1
I1
I1
I1
I1
I1
I1
I1
I1
I1
I1
I1
I1
I1
I1
I1
I1
I1
I1
I1
I1
I1
I1
I1
I1
I1
I1
I1
I1
I1
I1
I1
I1
I1
I1
I1
I1
I1
I1
I1
I1
I1
I1
I1
I1
I1
I1
I1
I1
I1
I1
I1
I1
I1
I1
I1
I1
I1
I1
I0
I0
I0
I0
I0
I0
I0
I0
I0
I0
I0
I0
I0
I0
I0
I0
I0
I0
I0
I0
I0
I0
I0
I0
I0
I0
I0
I0
I0
I0
I0
I0
I0
I0
I0
I0
I0
I0
tp226
g42
tp227
g4
(g8
S'\x84ai\xd2wc\xf3?'
p228
tp229
Rp230
s((I0
I1
I0
I0
I1
I1
I1
I1
I1
I1
I1
I1
I1
I1
I1
I1
I1
I1
I1
I1
I1
I1
I1
I1
I1
I1
I1
I1
I1
I1
I1
I1
I1
I1
I1
I1
I1
I1
I1
I1
I1
I0
I0
I0
I0
I0
I0
I0
I0
I0
I0
I0
I0
I0
I0
I0
I0
I0
I0
I0
I0
I0
I0
I0
I0
I0
I0
I0
I0
I0
I0
I0
I0
I0
I0
I0
I0
I0
I0
I0
I0
I0
I0
I0
I0
I0
I0
I0
I0
I0
I0
I0
I0
I0
I0
I0
I0
I0
I0
I0
I0
I0
I0
I0
tp231
g48
tp232
g4
(g8
S'\xf9\xad\x8d\xc1\xc1\x89\xe3?'
p233
tp234
Rp235
s((I1
I0
I0
I0
I1
I1
I1
I1
I1
I1
I1
I1
I1
I1
I1
I1
I1
I1
I1
I1
I1
I1
I0
I0
I0
I0
I0
I0
I0
I0
I0
I0
I0
I0
I0
I0
I0
I0
I0
I0
I0
I0
I0
I0
I0
I0
I0
I0
I0
I0
I0
I0
I0
I0
I0
I0
I0
I0
I0
I0
I0
I0
I0
I0
I0
I0
I0
I0
I0
I0
I0
I0
I0
I0
I0
I0
I0
I0
I0
I0
I0
I0
I0
I0
I0
I0
I0
I0
I0
I0
I0
I0
I0
I0
I0
I0
I0
I0
I0
I0
I0
I0
I0
I0
tp236
g155
tp237
g4
(g8
S'\xe1\xa2\xa9\xf2\xb3\x00\x00@'
p238
tp239
Rp240
s((I0
I0
I1
I0
I1
I1
I1
I1
I1
I1
I1
I1
I1
I1
I1
I1
I1
I1
I1
I1
I1
I1
I1
I1
I1
I1
I1
I1
I1
I1
I1
I1
I1
I1
I1
I1
I1
I1
I1
I1
I1
I1
I1
I1
I1
I1
I1
I1
I1
I1
I1
I1
I1
I1
I1
I1
I1
I1
I1
I1
I1
I1
I1
I1
I1
I1
I1
I1
I1
I1
I1
I1
I1
I1
I1
I1
I1
I1
I1
I1
I1
I0
I0
I0
I0
I0
I0
I0
I0
I0
I0
I0
I0
I0
I0
I0
I0
I0
I0
I0
I0
I0
I0
I0
tp241
g2
tp242
g4
(g8
S'\xa2l=[\x0fE\xad?'
p243
tp244
Rp245
s((I0
I0
I1
I0
I1
I1
I1
I1
I1
I1
I1
I1
I1
I1
I1
I1
I1
I1
I1
I1
I1
I1
I1
I1
I1
I1
I1
I1
I1
I1
I1
I1
I1
I1
I1
I1
I1
I1
I1
I1
I1
I1
I1
I1
I1
I1
I1
I1
I1
I1
I1
I1
I1
I1
I1
I1
I1
I1
I1
I1
I1
I1
I1
I1
I1
I1
I1
I1
I1
I1
I1
I1
I1
I1
I0
I0
I0
I0
I0
I0
I0
I0
I0
I0
I0
I0
I0
I0
I0
I0
I0
I0
I0
I0
I0
I0
I0
I0
I0
I0
I0
I0
I0
I0
tp246
g2
tp247
g4
(g8
S'#\xb0\xfb\x05\xb6\x96\xe9?'
p248
tp249
Rp250
s((I0
I0
I1
I0
I1
I1
I1
I1
I1
I1
I1
I1
I1
I1
I1
I1
I1
I1
I1
I1
I1
I1
I1
I1
I0
I0
I0
I0
I0
I0
I0
I0
I0
I0
I0
I0
I0
I0
I0
I0
I0
I0
I0
I0
I0
I0
I0
I0
I0
I0
I0
I0
I0
I0
I0
I0
I0
I0
I0
I0
I0
I0
I0
I0
I0
I0
I0
I0
I0
I0
I0
I0
I0
I0
I0
I0
I0
I0
I0
I0
I0
I0
I0
I0
I0
I0
I0
I0
I0
I0
I0
I0
I0
I0
I0
I0
I0
I0
I0
I0
I0
I0
I0
I0
tp251
g2
tp252
g4
(g8
S'\xd6\xbc\x94\x8f\x17\xbc\x00@'
p253
tp254
Rp255
s((I0
I0
I1
I0
I1
I1
I1
I1
I1
I1
I1
I1
I1
I1
I1
I1
I1
I1
I1
I1
I1
I1
I1
I1
I1
I1
I1
I1
I0
I0
I0
I0
I0
I0
I0
I0
I0
I0
I0
I0
I0
I0
I0
I0
I0
I0
I0
I0
I0
I0
I0
I0
I0
I0
I0
I0
I0
I0
I0
I0
I0
I0
I0
I0
I0
I0
I0
I0
I0
I0
I0
I0
I0
I0
I0
I0
I0
I0
I0
I0
I0
I0
I0
I0
I0
I0
I0
I0
I0
I0
I0
I0
I0
I0
I0
I0
I0
I0
I0
I0
I0
I0
I0
I0
tp256
g42
tp257
g4
(g8
S'qp&;\x126\xf9?'
p258
tp259
Rp260
s((I0
I0
I1
I0
I1
I1
I1
I1
I1
I1
I1
I1
I1
I1
I1
I1
I1
I1
I1
I1
I1
I1
I1
I1
I1
I1
I1
I1
I1
I0
I0
I0
I0
I0
I0
I0
I0
I0
I0
I0
I0
I0
I0
I0
I0
I0
I0
I0
I0
I0
I0
I0
I0
I0
I0
I0
I0
I0
I0
I0
I0
I0
I0
I0
I0
I0
I0
I0
I0
I0
I0
I0
I0
I0
I0
I0
I0
I0
I0
I0
I0
I0
I0
I0
I0
I0
I0
I0
I0
I0
I0
I0
I0
I0
I0
I0
I0
I0
I0
I0
I0
I0
I0
I0
tp261
g2
tp262
g4
(g8
S'y\x826\xb9?@\x01@'
p263
tp264
Rp265
s((I1
I0
I0
I0
I1
I1
I1
I1
I1
I1
I1
I1
I1
I1
I1
I1
I1
I1
I1
I1
I1
I1
I1
I1
I1
I1
I1
I1
I1
I1
I1
I1
I1
I1
I1
I0
I0
I0
I0
I0
I0
I0
I0
I0
I0
I0
I0
I0
I0
I0
I0
I0
I0
I0
I0
I0
I0
I0
I0
I0
I0
I0
I0
I0
I0
I0
I0
I0
I0
I0
I0
I0
I0
I0
I0
I0
I0
I0
I0
I0
I0
I0
I0
I0
I0
I0
I0
I0
I0
I0
I0
I0
I0
I0
I0
I0
I0
I0
I0
I0
I0
I0
I0
I0
tp266
g206
tp267
g4
(g8
S'\xbe\xbe\x16!a\x01\xf6?'
p268
tp269
Rp270
s((I1
I0
I0
I0
I1
I1
I1
I1
I1
I1
I1
I1
I1
I1
I0
I0
I0
I0
I0
I0
I0
I0
I0
I0
I0
I0
I0
I0
I0
I0
I0
I0
I0
I0
I0
I0
I0
I0
I0
I0
I0
I0
I0
I0
I0
I0
I0
I0
I0
I0
I0
I0
I0
I0
I0
I0
I0
I0
I0
I0
I0
I0
I0
I0
I0
I0
I0
I0
I0
I0
I0
I0
I0
I0
I0
I0
I0
I0
I0
I0
I0
I0
I0
I0
I0
I0
I0
I0
I0
I0
I0
I0
I0
I0
I0
I0
I0
I0
I0
I0
I0
I0
I0
I0
tp271
g21
tp272
g4
(g8
S'\xcd\x9e\xddy\x88\xa2\xfe?'
p273
tp274
Rp275
s((I0
I0
I1
I0
I1
I1
I1
I1
I1
I1
I1
I1
I1
I1
I1
I1
I1
I1
I1
I1
I1
I1
I1
I1
I1
I1
I1
I1
I1
I1
I1
I1
I1
I1
I1
I1
I1
I1
I1
I1
I1
I1
I1
I1
I1
I1
I1
I1
I1
I1
I1
I1
I1
I1
I1
I1
I1
I1
I1
I1
I1
I1
I1
I1
I1
I1
I1
I1
I1
I1
I1
I0
I0
I0
I0
I0
I0
I0
I0
I0
I0
I0
I0
I0
I0
I0
I0
I0
I0
I0
I0
I0
I0
I0
I0
I0
I0
I0
I0
I0
I0
I0
I0
I0
tp276
g42
tp277
g4
(g8
S'\x9b\x1b;i\tk\xef?'
p278
tp279
Rp280
s((I0
I0
I1
I0
I1
I1
I1
I1
I1
I1
I1
I1
I1
I1
I1
I1
I1
I1
I1
I1
I1
I1
I1
I1
I1
I1
I1
I1
I1
I1
I1
I1
I1
I1
I0
I0
I0
I0
I0
I0
I0
I0
I0
I0
I0
I0
I0
I0
I0
I0
I0
I0
I0
I0
I0
I0
I0
I0
I0
I0
I0
I0
I0
I0
I0
I0
I0
I0
I0
I0
I0
I0
I0
I0
I0
I0
I0
I0
I0
I0
I0
I0
I0
I0
I0
I0
I0
I0
I0
I0
I0
I0
I0
I0
I0
I0
I0
I0
I0
I0
I0
I0
I0
I0
tp281
g2
tp282
g4
(g8
S'\x88P\x8euA\xde\x01@'
p283
tp284
Rp285
s((I0
I0
I1
I0
I1
I1
I1
I1
I1
I1
I1
I1
I1
I1
I1
I1
I1
I1
I1
I1
I1
I1
I1
I1
I1
I1
I1
I1
I1
I1
I1
I1
I1
I1
I1
I1
I1
I1
I1
I1
I1
I1
I1
I1
I1
I1
I1
I1
I1
I1
I1
I1
I1
I1
I1
I1
I1
I1
I1
I1
I1
I1
I1
I1
I1
I1
I1
I1
I0
I0
I0
I0
I0
I0
I0
I0
I0
I0
I0
I0
I0
I0
I0
I0
I0
I0
I0
I0
I0
I0
I0
I0
I0
I0
I0
I0
I0
I0
I0
I0
I0
I0
I0
I0
tp286
g42
tp287
g4
(g8
S'b\xa75\xe6\xe3\x17\x02@'
p288
tp289
Rp290
s((I0
I1
I0
I0
I1
I1
I1
I1
I1
I1
I1
I1
I1
I1
I1
I1
I1
I1
I1
I1
I1
I1
I1
I1
I1
I1
I1
I1
I1
I1
I1
I1
I1
I1
I1
I1
I1
I1
I1
I1
I1
I1
I1
I1
I1
I1
I1
I1
I1
I1
I1
I1
I1
I1
I1
I1
I1
I1
I1
I1
I1
I1
I1
I1
I1
I0
I0
I0
I0
I0
I0
I0
I0
I0
I0
I0
I0
I0
I0
I0
I0
I0
I0
I0
I0
I0
I0
I0
I0
I0
I0
I0
I0
I0
I0
I0
I0
I0
I0
I0
I0
I0
I0
I0
tp291
g48
tp292
g4
(g8
S'\x87\x15\xacU\xad\x12\xea?'
p293
tp294
Rp295
s((I1
I0
I0
I0
I1
I1
I1
I1
I1
I1
I1
I1
I1
I1
I1
I1
I1
I1
I1
I1
I1
I1
I0
I0
I0
I0
I0
I0
I0
I0
I0
I0
I0
I0
I0
I0
I0
I0
I0
I0
I0
I0
I0
I0
I0
I0
I0
I0
I0
I0
I0
I0
I0
I0
I0
I0
I0
I0
I0
I0
I0
I0
I0
I0
I0
I0
I0
I0
I0
I0
I0
I0
I0
I0
I0
I0
I0
I0
I0
I0
I0
I0
I0
I0
I0
I0
I0
I0
I0
I0
I0
I0
I0
I0
I0
I0
I0
I0
I0
I0
I0
I0
I0
I0
tp296
g206
tp297
g4
(g8
S'v\x9a\x88\xea\x8ez\xe6?'
p298
tp299
Rp300
s((I0
I0
I1
I0
I1
I1
I1
I1
I1
I1
I1
I1
I1
I1
I1
I1
I1
I1
I1
I1
I1
I1
I1
I1
I1
I1
I1
I1
I1
I1
I1
I1
I1
I1
I1
I1
I1
I1
I1
I1
I1
I0
I0
I0
I0
I0
I0
I0
I0
I0
I0
I0
I0
I0
I0
I0
I0
I0
I0
I0
I0
I0
I0
I0
I0
I0
I0
I0
I0
I0
I0
I0
I0
I0
I0
I0
I0
I0
I0
I0
I0
I0
I0
I0
I0
I0
I0
I0
I0
I0
I0
I0
I0
I0
I0
I0
I0
I0
I0
I0
I0
I0
I0
I0
tp301
g2
tp302
g4
(g8
S']\xc1\xe6[\xd7\xc2\x02@'
p303
tp304
Rp305
s((I0
I0
I1
I0
I1
I1
I1
I1
I1
I1
I1
I1
I1
I1
I1
I1
I1
I1
I1
I1
I1
I1
I1
I1
I1
I1
I1
I1
I1
I1
I1
I1
I1
I1
I1
I1
I1
I1
I1
I1
I1
I1
I1
I1
I1
I1
I1
I1
I1
I1
I1
I1
I1
I1
I1
I1
I1
I1
I1
I1
I1
I1
I1
I1
I1
I1
I1
I1
I1
I0
I0
I0
I0
I0
I0
I0
I0
I0
I0
I0
I0
I0
I0
I0
I0
I0
I0
I0
I0
I0
I0
I0
I0
I0
I0
I0
I0
I0
I0
I0
I0
I0
I0
I0
tp306
g42
tp307
g4
(g8
S'\rq\x8b4\x07\x9e\xd4?'
p308
tp309
Rp310
s((I0
I0
I1
I0
I1
I1
I1
I1
I1
I1
I1
I1
I1
I1
I1
I1
I1
I1
I1
I1
I1
I1
I1
I1
I1
I1
I1
I1
I1
I1
I1
I1
I1
I1
I1
I1
I1
I1
I1
I1
I1
I1
I1
I1
I1
I1
I1
I1
I1
I1
I1
I1
I1
I1
I1
I1
I1
I1
I1
I1
I1
I1
I1
I1
I1
I1
I1
I1
I1
I1
I1
I1
I1
I1
I1
I1
I1
I1
I1
I0
I0
I0
I0
I0
I0
I0
I0
I0
I0
I0
I0
I0
I0
I0
I0
I0
I0
I0
I0
I0
I0
I0
I0
I0
tp311
g2
tp312
g4
(g8
S'D_\xf9\x0f\x8a~\xe9?'
p313
tp314
Rp315
s((I0
I1
I0
I0
I1
I1
I1
I1
I1
I1
I1
I1
I1
I1
I0
I0
I0
I0
I0
I0
I0
I0
I0
I0
I0
I0
I0
I0
I0
I0
I0
I0
I0
I0
I0
I0
I0
I0
I0
I0
I0
I0
I0
I0
I0
I0
I0
I0
I0
I0
I0
I0
I0
I0
I0
I0
I0
I0
I0
I0
I0
I0
I0
I0
I0
I0
I0
I0
I0
I0
I0
I0
I0
I0
I0
I0
I0
I0
I0
I0
I0
I0
I0
I0
I0
I0
I0
I0
I0
I0
I0
I0
I0
I0
I0
I0
I0
I0
I0
I0
I0
I0
I0
I0
tp316
g48
tp317
g4
(g8
S'\x07\x15\xa3\x98\x1e\xfb\xf5?'
p318
tp319
Rp320
s((I0
I0
I1
I0
I1
I1
I1
I1
I1
I1
I1
I1
I1
I1
I1
I1
I1
I1
I1
I1
I1
I1
I1
I1
I1
I1
I1
I1
I1
I1
I1
I1
I1
I1
I1
I1
I1
I1
I1
I1
I1
I1
I1
I1
I1
I1
I1
I1
I1
I1
I1
I1
I1
I1
I1
I1
I1
I1
I1
I1
I1
I1
I1
I1
I1
I1
I0
I0
I0
I0
I0
I0
I0
I0
I0
I0
I0
I0
I0
I0
I0
I0
I0
I0
I0
I0
I0
I0
I0
I0
I0
I0
I0
I0
I0
I0
I0
I0
I0
I0
I0
I0
I0
I0
tp321
g2
tp322
g4
(g8
S'E\x1b\x85Q\x0b\xec\x06@'
p323
tp324
Rp325
s((I0
I0
I1
I0
I1
I1
I1
I1
I1
I1
I1
I1
I1
I1
I0
I0
I0
I0
I0
I0
I0
I0
I0
I0
I0
I0
I0
I0
I0
I0
I0
I0
I0
I0
I0
I0
I0
I0
I0
I0
I0
I0
I0
I0
I0
I0
I0
I0
I0
I0
I0
I0
I0
I0
I0
I0
I0
I0
I0
I0
I0
I0
I0
I0
I0
I0
I0
I0
I0
I0
I0
I0
I0
I0
I0
I0
I0
I0
I0
I0
I0
I0
I0
I0
I0
I0
I0
I0
I0
I0
I0
I0
I0
I0
I0
I0
I0
I0
I0
I0
I0
I0
I0
I0
tp326
g2
tp327
g4
(g8
S'\xe8-\xe1To\x84\xfd?'
p328
tp329
Rp330
s((I0
I1
I0
I0
I1
I1
I1
I1
I1
I1
I1
I1
I1
I1
I1
I1
I1
I1
I1
I1
I1
I1
I1
I1
I1
I1
I1
I1
I1
I1
I1
I1
I1
I1
I1
I1
I1
I1
I1
I1
I1
I1
I1
I1
I1
I1
I1
I1
I1
I1
I0
I0
I0
I0
I0
I0
I0
I0
I0
I0
I0
I0
I0
I0
I0
I0
I0
I0
I0
I0
I0
I0
I0
I0
I0
I0
I0
I0
I0
I0
I0
I0
I0
I0
I0
I0
I0
I0
I0
I0
I0
I0
I0
I0
I0
I0
I0
I0
I0
I0
I0
I0
I0
I0
tp331
g48
tp332
g4
(g8
S'\xbd.3TY\x9d\xe9?'
p333
tp334
Rp335
s((I0
I0
I0
I1
I1
I1
I1
I1
I1
I1
I1
I1
I1
I1
I1
I1
I1
I1
I1
I1
I1
I1
I1
I1
I1
I1
I1
I1
I1
I1
I1
I1
I1
I1
I1
I1
I1
I1
I1
I1
I1
I1
I1
I1
I1
I1
I1
I1
I1
I1
I1
I1
I1
I1
I1
I1
I1
I1
I1
I1
I1
I0
I0
I0
I0
I0
I0
I0
I0
I0
I0
I0
I0
I0
I0
I0
I0
I0
I0
I0
I0
I0
I0
I0
I0
I0
I0
I0
I0
I0
I0
I0
I0
I0
I0
I0
I0
I0
I0
I0
I0
I0
I0
I0
tp336
g54
tp337
g4
(g8
S'\x15(\xa6\xd3\xf9\xf7\xff?'
p338
tp339
Rp340
s((I0
I0
I0
I1
I1
I1
I1
I1
I1
I1
I1
I1
I1
I1
I1
I1
I1
I1
I1
I1
I1
I1
I1
I1
I1
I1
I1
I1
I1
I1
I1
I1
I1
I1
I1
I1
I1
I1
I1
I1
I1
I1
I1
I0
I0
I0
I0
I0
I0
I0
I0
I0
I0
I0
I0
I0
I0
I0
I0
I0
I0
I0
I0
I0
I0
I0
I0
I0
I0
I0
I0
I0
I0
I0
I0
I0
I0
I0
I0
I0
I0
I0
I0
I0
I0
I0
I0
I0
I0
I0
I0
I0
I0
I0
I0
I0
I0
I0
I0
I0
I0
I0
I0
I0
tp341
g54
tp342
g4
(g8
S'[\xe0\xa4\x1a}<\xfc?'
p343
tp344
Rp345
s((I1
I0
I0
I0
I1
I1
I1
I1
I1
I0
I0
I0
I0
I0
I0
I0
I0
I0
I0
I0
I0
I0
I0
I0
I0
I0
I0
I0
I0
I0
I0
I0
I0
I0
I0
I0
I0
I0
I0
I0
I0
I0
I0
I0
I0
I0
I0
I0
I0
I0
I0
I0
I0
I0
I0
I0
I0
I0
I0
I0
I0
I0
I0
I0
I0
I0
I0
I0
I0
I0
I0
I0
I0
I0
I0
I0
I0
I0
I0
I0
I0
I0
I0
I0
I0
I0
I0
I0
I0
I0
I0
I0
I0
I0
I0
I0
I0
I0
I0
I0
I0
I0
I0
I0
tp346
g206
tp347
g4
(g8
S'\x10\x9b\xce\xa8\xd5\xac\xf3?'
p348
tp349
Rp350
s((I0
I0
I0
I1
I1
I1
I1
I1
I1
I1
I1
I1
I1
I1
I1
I1
I1
I1
I1
I1
I1
I1
I1
I1
I1
I1
I1
I1
I1
I1
I1
I1
I0
I0
I0
I0
I0
I0
I0
I0
I0
I0
I0
I0
I0
I0
I0
I0
I0
I0
I0
I0
I0
I0
I0
I0
I0
I0
I0
I0
I0
I0
I0
I0
I0
I0
I0
I0
I0
I0
I0
I0
I0
I0
I0
I0
I0
I0
I0
I0
I0
I0
I0
I0
I0
I0
I0
I0
I0
I0
I0
I0
I0
I0
I0
I0
I0
I0
I0
I0
I0
I0
I0
I0
tp351
g54
tp352
g4
(g8
S'\x00\xbb\xdd\x07\xbb\x8e\xfb?'
p353
tp354
Rp355
s((I0
I0
I1
I0
I1
I1
I1
I1
I1
I1
I1
I1
I1
I1
I1
I1
I1
I1
I1
I1
I1
I1
I1
I1
I0
I0
I0
I0
I0
I0
I0
I0
I0
I0
I0
I0
I0
I0
I0
I0
I0
I0
I0
I0
I0
I0
I0
I0
I0
I0
I0
I0
I0
I0
I0
I0
I0
I0
I0
I0
I0
I0
I0
I0
I0
I0
I0
I0
I0
I0
I0
I0
I0
I0
I0
I0
I0
I0
I0
I0
I0
I0
I0
I0
I0
I0
I0
I0
I0
I0
I0
I0
I0
I0
I0
I0
I0
I0
I0
I0
I0
I0
I0
I0
tp356
g42
tp357
g4
(g8
S'\x9f5y\xa5\x11E\xf8?'
p358
tp359
Rp360
s((I0
I0
I1
I0
I1
I1
I1
I1
I1
I1
I1
I1
I1
I1
I1
I1
I1
I1
I1
I1
I1
I1
I1
I1
I1
I1
I1
I1
I1
I1
I1
I1
I1
I1
I1
I1
I1
I1
I1
I1
I1
I1
I1
I1
I1
I1
I1
I1
I0
I0
I0
I0
I0
I0
I0
I0
I0
I0
I0
I0
I0
I0
I0
I0
I0
I0
I0
I0
I0
I0
I0
I0
I0
I0
I0
I0
I0
I0
I0
I0
I0
I0
I0
I0
I0
I0
I0
I0
I0
I0
I0
I0
I0
I0
I0
I0
I0
I0
I0
I0
I0
I0
I0
I0
tp361
g2
tp362
g4
(g8
S"m'd9\xdb\xd6\xe8?"
p363
tp364
Rp365
s((I0
I0
I0
I1
I1
I1
I1
I1
I1
I1
I1
I1
I1
I1
I1
I1
I1
I1
I1
I1
I1
I1
I1
I1
I1
I1
I1
I1
I1
I1
I1
I1
I1
I1
I1
I1
I1
I1
I1
I1
I1
I1
I1
I1
I1
I1
I1
I1
I1
I1
I1
I1
I1
I1
I1
I1
I1
I1
I1
I1
I1
I1
I1
I1
I1
I1
I1
I1
I1
I1
I1
I1
I1
I1
I1
I1
I1
I0
I0
I0
I0
I0
I0
I0
I0
I0
I0
I0
I0
I0
I0
I0
I0
I0
I0
I0
I0
I0
I0
I0
I0
I0
I0
I0
tp366
g54
tp367
g4
(g8
S'\x8d\xd3r\x16l\xe8\x00@'
p368
tp369
Rp370
s((I0
I0
I0
I1
I1
I1
I1
I1
I1
I1
I1
I1
I1
I1
I1
I1
I1
I1
I1
I1
I1
I1
I1
I1
I1
I1
I1
I1
I1
I1
I1
I1
I1
I1
I1
I1
I1
I1
I1
I1
I1
I1
I1
I1
I1
I1
I1
I1
I1
I1
I1
I1
I1
I1
I1
I1
I1
I1
I1
I1
I1
I1
I1
I1
I1
I1
I1
I1
I1
I1
I1
I1
I1
I1
I1
I1
I1
I1
I1
I1
I1
I1
I1
I1
I1
I1
I1
I1
I1
I0
I0
I0
I0
I0
I0
I0
I0
I0
I0
I0
I0
I0
I0
I0
tp371
g54
tp372
g4
(g8
S'2Hl$\xb2\xdb\xf6?'
p373
tp374
Rp375
s((I0
I0
I1
I0
I1
I1
I1
I1
I1
I1
I1
I1
I1
I1
I1
I1
I1
I1
I1
I1
I1
I1
I1
I1
I1
I1
I1
I1
I1
I1
I1
I1
I1
I1
I1
I1
I1
I1
I1
I1
I1
I1
I1
I1
I1
I0
I0
I0
I0
I0
I0
I0
I0
I0
I0
I0
I0
I0
I0
I0
I0
I0
I0
I0
I0
I0
I0
I0
I0
I0
I0
I0
I0
I0
I0
I0
I0
I0
I0
I0
I0
I0
I0
I0
I0
I0
I0
I0
I0
I0
I0
I0
I0
I0
I0
I0
I0
I0
I0
I0
I0
I0
I0
I0
tp376
g42
tp377
g4
(g8
S'\x8a\x81x\xb2\xf1Q\x00@'
p378
tp379
Rp380
s((I0
I0
I0
I1
I1
I1
I1
I1
I1
I1
I1
I1
I1
I1
I1
I1
I1
I1
I1
I1
I1
I1
I1
I1
I1
I1
I1
I1
I1
I1
I1
I1
I1
I1
I1
I1
I1
I1
I1
I1
I1
I1
I1
I1
I1
I1
I1
I1
I1
I1
I1
I1
I1
I1
I1
I1
I1
I1
I1
I1
I1
I1
I1
I1
I1
I1
I1
I1
I1
I1
I1
I1
I1
I1
I1
I1
I1
I1
I1
I1
I1
I1
I1
I1
I1
I0
I0
I0
I0
I0
I0
I0
I0
I0
I0
I0
I0
I0
I0
I0
I0
I0
I0
I0
tp381
g54
tp382
g4
(g8
S'\x8f\xab\xbf\x0c|\xd2\xfa?'
p383
tp384
Rp385
s((I0
I0
I0
I1
I1
I1
I1
I1
I1
I1
I1
I1
I1
I1
I1
I1
I1
I1
I1
I1
I1
I1
I1
I1
I1
I1
I1
I1
I1
I1
I1
I1
I1
I1
I1
I1
I1
I1
I1
I1
I1
I1
I1
I1
I1
I1
I1
I1
I1
I1
I1
I1
I1
I1
I1
I1
I1
I1
I1
I1
I1
I1
I1
I1
I1
I1
I1
I1
I1
I1
I1
I1
I1
I1
I1
I1
I1
I1
I1
I1
I1
I1
I0
I0
I0
I0
I0
I0
I0
I0
I0
I0
I0
I0
I0
I0
I0
I0
I0
I0
I0
I0
I0
I0
tp386
g54
tp387
g4
(g8
S'g\xc0D\xfd\xd6\xf9\xff?'
p388
tp389
Rp390
s((I0
I0
I0
I1
I1
I1
I1
I1
I1
I1
I1
I1
I1
I1
I1
I1
I1
I1
I1
I1
I0
I0
I0
I0
I0
I0
I0
I0
I0
I0
I0
I0
I0
I0
I0
I0
I0
I0
I0
I0
I0
I0
I0
I0
I0
I0
I0
I0
I0
I0
I0
I0
I0
I0
I0
I0
I0
I0
I0
I0
I0
I0
I0
I0
I0
I0
I0
I0
I0
I0
I0
I0
I0
I0
I0
I0
I0
I0
I0
I0
I0
I0
I0
I0
I0
I0
I0
I0
I0
I0
I0
I0
I0
I0
I0
I0
I0
I0
I0
I0
I0
I0
I0
I0
tp391
g54
tp392
g4
(g8
S'\xaaD\x88P\xd1\xc2\xf6?'
p393
tp394
Rp395
s((I0
I0
I0
I1
I1
I1
I1
I1
I1
I1
I1
I1
I1
I1
I1
I1
I1
I1
I1
I1
I1
I1
I1
I1
I1
I1
I1
I1
I1
I1
I1
I1
I1
I1
I1
I1
I1
I1
I1
I1
I1
I1
I1
I1
I1
I1
I1
I1
I1
I1
I1
I1
I1
I1
I1
I1
I1
I1
I1
I1
I1
I1
I1
I1
I1
I1
I1
I1
I1
I1
I1
I1
I1
I1
I1
I1
I1
I1
I1
I1
I1
I1
I1
I1
I1
I1
I1
I1
I1
I1
I1
I1
I1
I1
I0
I0
I0
I0
I0
I0
I0
I0
I0
I0
tp396
g54
tp397
g4
(g8
S'\x91\x17s\x88x\xcd\xf2?'
p398
tp399
Rp400
s((I0
I0
I0
I1
I1
I1
I1
I1
I1
I1
I1
I1
I1
I1
I1
I1
I1
I1
I1
I1
I1
I1
I1
I1
I1
I1
I1
I1
I1
I1
I1
I1
I1
I1
I1
I1
I1
I1
I1
I1
I1
I1
I1
I1
I1
I1
I1
I1
I1
I1
I1
I1
I1
I1
I1
I1
I1
I1
I1
I1
I1
I1
I1
I1
I1
I1
I1
I1
I1
I1
I1
I1
I1
I1
I1
I1
I1
I1
I1
I1
I1
I1
I1
I1
I1
I1
I1
I1
I1
I1
I1
I1
I1
I1
I1
I1
I1
I1
I1
I0
I0
I0
I0
I0
tp401
g54
tp402
g4
(g8
S'\xf2\xa3\xa5%C\x82\xeb?'
p403
tp404
Rp405
s((I1
I0
I0
I0
I1
I1
I1
I1
I1
I1
I1
I1
I1
I1
I1
I1
I1
I1
I1
I1
I1
I1
I1
I1
I1
I1
I1
I1
I1
I1
I1
I1
I1
I1
I1
I0
I0
I0
I0
I0
I0
I0
I0
I0
I0
I0
I0
I0
I0
I0
I0
I0
I0
I0
I0
I0
I0
I0
I0
I0
I0
I0
I0
I0
I0
I0
I0
I0
I0
I0
I0
I0
I0
I0
I0
I0
I0
I0
I0
I0
I0
I0
I0
I0
I0
I0
I0
I0
I0
I0
I0
I0
I0
I0
I0
I0
I0
I0
I0
I0
I0
I0
I0
I0
tp406
g155
tp407
g4
(g8
S'uS\x0cH\x82\x0e\xe3?'
p408
tp409
Rp410
s((I0
I0
I0
I1
I1
I1
I1
I1
I1
I1
I1
I1
I1
I1
I1
I1
I1
I1
I1
I1
I1
I1
I1
I1
I1
I1
I1
I1
I1
I1
I1
I1
I1
I1
I1
I1
I1
I1
I1
I1
I1
I1
I1
I1
I1
I1
I1
I1
I1
I1
I1
I1
I1
I1
I1
I1
I1
I1
I1
I1
I1
I1
I1
I1
I1
I1
I1
I1
I1
I1
I1
I1
I1
I1
I1
I1
I1
I1
I1
I1
I1
I1
I1
I1
I1
I1
I0
I0
I0
I0
I0
I0
I0
I0
I0
I0
I0
I0
I0
I0
I0
I0
I0
I0
tp411
g54
tp412
g4
(g8
S'\xe8\x07\xf4\xa8]>\xfd?'
p413
tp414
Rp415
s((I1
I0
I0
I0
I1
I1
I1
I1
I1
I1
I1
I1
I1
I0
I0
I0
I0
I0
I0
I0
I0
I0
I0
I0
I0
I0
I0
I0
I0
I0
I0
I0
I0
I0
I0
I0
I0
I0
I0
I0
I0
I0
I0
I0
I0
I0
I0
I0
I0
I0
I0
I0
I0
I0
I0
I0
I0
I0
I0
I0
I0
I0
I0
I0
I0
I0
I0
I0
I0
I0
I0
I0
I0
I0
I0
I0
I0
I0
I0
I0
I0
I0
I0
I0
I0
I0
I0
I0
I0
I0
I0
I0
I0
I0
I0
I0
I0
I0
I0
I0
I0
I0
I0
I0
tp416
g155
tp417
g4
(g8
S'\xaa\xc7a\xb1S\xea\xfd?'
p418
tp419
Rp420
s((I0
I1
I0
I0
I1
I1
I1
I1
I1
I1
I1
I1
I1
I1
I1
I1
I1
I1
I1
I1
I1
I1
I1
I1
I1
I1
I1
I0
I0
I0
I0
I0
I0
I0
I0
I0
I0
I0
I0
I0
I0
I0
I0
I0
I0
I0
I0
I0
I0
I0
I0
I0
I0
I0
I0
I0
I0
I0
I0
I0
I0
I0
I0
I0
I0
I0
I0
I0
I0
I0
I0
I0
I0
I0
I0
I0
I0
I0
I0
I0
I0
I0
I0
I0
I0
I0
I0
I0
I0
I0
I0
I0
I0
I0
I0
I0
I0
I0
I0
I0
I0
I0
I0
I0
tp421
g48
tp422
g4
(g8
S'\\3\xfa\xaa\x04u\xd5?'
p423
tp424
Rp425
s((I0
I0
I1
I0
I1
I1
I1
I1
I1
I1
I1
I1
I1
I1
I1
I1
I1
I1
I1
I1
I1
I1
I1
I1
I1
I1
I1
I1
I1
I1
I1
I1
I1
I1
I1
I1
I1
I1
I1
I1
I1
I1
I1
I1
I0
I0
I0
I0
I0
I0
I0
I0
I0
I0
I0
I0
I0
I0
I0
I0
I0
I0
I0
I0
I0
I0
I0
I0
I0
I0
I0
I0
I0
I0
I0
I0
I0
I0
I0
I0
I0
I0
I0
I0
I0
I0
I0
I0
I0
I0
I0
I0
I0
I0
I0
I0
I0
I0
I0
I0
I0
I0
I0
I0
tp426
g42
tp427
g4
(g8
S'\n\xde\xbd\xbaO\xc4\xf8?'
p428
tp429
Rp430
s((I0
I0
I0
I1
I1
I1
I1
I1
I1
I1
I1
I1
I1
I1
I1
I1
I1
I1
I1
I1
I1
I1
I1
I1
I1
I1
I1
I1
I1
I1
I1
I1
I1
I1
I1
I1
I1
I1
I1
I1
I1
I1
I1
I1
I1
I1
I1
I1
I1
I1
I1
I1
I1
I1
I1
I1
I1
I1
I1
I1
I1
I1
I1
I1
I1
I1
I1
I1
I1
I1
I1
I1
I1
I1
I1
I1
I1
I1
I1
I1
I1
I0
I0
I0
I0
I0
I0
I0
I0
I0
I0
I0
I0
I0
I0
I0
I0
I0
I0
I0
I0
I0
I0
I0
tp431
g54
tp432
g4
(g8
S'\xf0W.\xc9\xfd\xe6\xfc?'
p433
tp434
Rp435
s((I0
I0
I1
I0
I1
I1
I1
I1
I1
I1
I1
I1
I1
I1
I1
I1
I0
I0
I0
I0
I0
I0
I0
I0
I0
I0
I0
I0
I0
I0
I0
I0
I0
I0
I0
I0
I0
I0
I0
I0
I0
I0
I0
I0
I0
I0
I0
I0
I0
I0
I0
I0
I0
I0
I0
I0
I0
I0
I0
I0
I0
I0
I0
I0
I0
I0
I0
I0
I0
I0
I0
I0
I0
I0
I0
I0
I0
I0
I0
I0
I0
I0
I0
I0
I0
I0
I0
I0
I0
I0
I0
I0
I0
I0
I0
I0
I0
I0
I0
I0
I0
I0
I0
I0
tp436
g42
tp437
g4
(g8
S'Z|*\x8e\xfe\x95\xef?'
p438
tp439
Rp440
s((I0
I0
I1
I0
I1
I1
I1
I1
I1
I1
I1
I1
I1
I1
I1
I1
I1
I1
I1
I1
I1
I1
I1
I1
I1
I1
I1
I1
I1
I1
I1
I1
I1
I1
I1
I1
I1
I1
I1
I1
I1
I1
I1
I1
I1
I0
I0
I0
I0
I0
I0
I0
I0
I0
I0
I0
I0
I0
I0
I0
I0
I0
I0
I0
I0
I0
I0
I0
I0
I0
I0
I0
I0
I0
I0
I0
I0
I0
I0
I0
I0
I0
I0
I0
I0
I0
I0
I0
I0
I0
I0
I0
I0
I0
I0
I0
I0
I0
I0
I0
I0
I0
I0
I0
tp441
g2
tp442
g4
(g8
S'\xd3\x14\xa4\x06\xb0\xaa\x02@'
p443
tp444
Rp445
s((I0
I0
I0
I1
I1
I1
I1
I1
I1
I1
I1
I1
I1
I1
I1
I1
I1
I1
I1
I1
I1
I1
I1
I1
I1
I1
I1
I1
I1
I1
I1
I1
I1
I1
I1
I1
I1
I1
I1
I1
I1
I1
I1
I1
I1
I1
I1
I1
I1
I1
I1
I1
I1
I1
I1
I1
I1
I1
I1
I1
I1
I1
I1
I1
I1
I1
I1
I1
I1
I1
I1
I0
I0
I0
I0
I0
I0
I0
I0
I0
I0
I0
I0
I0
I0
I0
I0
I0
I0
I0
I0
I0
I0
I0
I0
I0
I0
I0
I0
I0
I0
I0
I0
I0
tp446
g54
tp447
g4
(g8
S'\x0b\x11\x1a?\x14\x04\x00@'
p448
tp449
Rp450
s((I0
I0
I1
I0
I1
I1
I1
I1
I1
I1
I1
I1
I1
I1
I1
I1
I1
I1
I1
I1
I1
I1
I1
I1
I1
I1
I1
I1
I1
I1
I1
I1
I1
I1
I1
I1
I1
I1
I1
I1
I1
I1
I1
I1
I1
I1
I1
I1
I1
I1
I1
I1
I1
I1
I1
I1
I1
I1
I1
I1
I1
I1
I1
I1
I1
I1
I1
I1
I1
I1
I1
I1
I1
I1
I1
I1
I1
I1
I1
I1
I1
I1
I1
I1
I0
I0
I0
I0
I0
I0
I0
I0
I0
I0
I0
I0
I0
I0
I0
I0
I0
I0
I0
I0
tp451
g2
tp452
g4
(g8
S'\xed\xb3\xfc\xdb(G\xe9?'
p453
tp454
Rp455
s((I0
I0
I1
I0
I1
I1
I1
I1
I1
I1
I1
I1
I1
I1
I1
I1
I1
I1
I1
I1
I1
I1
I1
I1
I1
I1
I1
I1
I1
I1
I1
I1
I1
I1
I1
I1
I1
I1
I1
I1
I1
I1
I1
I1
I1
I1
I1
I1
I1
I1
I1
I1
I1
I1
I1
I1
I1
I1
I1
I1
I1
I1
I0
I0
I0
I0
I0
I0
I0
I0
I0
I0
I0
I0
I0
I0
I0
I0
I0
I0
I0
I0
I0
I0
I0
I0
I0
I0
I0
I0
I0
I0
I0
I0
I0
I0
I0
I0
I0
I0
I0
I0
I0
I0
tp456
g42
tp457
g4
(g8
S'\xba\x14\xfd\xabV}\xa6?'
p458
tp459
Rp460
s((I1
I0
I0
I0
I1
I1
I1
I1
I1
I1
I1
I1
I1
I1
I1
I1
I0
I0
I0
I0
I0
I0
I0
I0
I0
I0
I0
I0
I0
I0
I0
I0
I0
I0
I0
I0
I0
I0
I0
I0
I0
I0
I0
I0
I0
I0
I0
I0
I0
I0
I0
I0
I0
I0
I0
I0
I0
I0
I0
I0
I0
I0
I0
I0
I0
I0
I0
I0
I0
I0
I0
I0
I0
I0
I0
I0
I0
I0
I0
I0
I0
I0
I0
I0
I0
I0
I0
I0
I0
I0
I0
I0
I0
I0
I0
I0
I0
I0
I0
I0
I0
I0
I0
I0
tp461
g206
tp462
g4
(g8
S'Y\xe6\x060\x17\x99\xc2?'
p463
tp464
Rp465
s((I0
I0
I0
I1
I1
I1
I1
I1
I1
I1
I1
I1
I1
I1
I1
I1
I1
I1
I1
I1
I1
I1
I1
I1
I1
I1
I1
I1
I1
I1
I1
I1
I1
I1
I1
I1
I1
I1
I1
I1
I1
I1
I1
I1
I1
I1
I1
I1
I1
I1
I1
I1
I1
I1
I1
I1
I1
I1
I1
I1
I0
I0
I0
I0
I0
I0
I0
I0
I0
I0
I0
I0
I0
I0
I0
I0
I0
I0
I0
I0
I0
I0
I0
I0
I0
I0
I0
I0
I0
I0
I0
I0
I0
I0
I0
I0
I0
I0
I0
I0
I0
I0
I0
I0
tp466
g54
tp467
g4
(g8
S'w\x97\xa7\x9a[\x1f\xff?'
p468
tp469
Rp470
s((I0
I1
I0
I0
I1
I1
I1
I1
I1
I1
I1
I1
I1
I1
I1
I1
I1
I1
I1
I1
I1
I0
I0
I0
I0
I0
I0
I0
I0
I0
I0
I0
I0
I0
I0
I0
I0
I0
I0
I0
I0
I0
I0
I0
I0
I0
I0
I0
I0
I0
I0
I0
I0
I0
I0
I0
I0
I0
I0
I0
I0
I0
I0
I0
I0
I0
I0
I0
I0
I0
I0
I0
I0
I0
I0
I0
I0
I0
I0
I0
I0
I0
I0
I0
I0
I0
I0
I0
I0
I0
I0
I0
I0
I0
I0
I0
I0
I0
I0
I0
I0
I0
I0
I0
tp471
g15
tp472
g4
(g8
S'k\xc4\x84\xce\xc8\xfc\xd4?'
p473
tp474
Rp475
s((I0
I0
I1
I0
I1
I1
I1
I1
I1
I1
I1
I1
I1
I1
I1
I1
I1
I1
I1
I1
I1
I1
I1
I0
I0
I0
I0
I0
I0
I0
I0
I0
I0
I0
I0
I0
I0
I0
I0
I0
I0
I0
I0
I0
I0
I0
I0
I0
I0
I0
I0
I0
I0
I0
I0
I0
I0
I0
I0
I0
I0
I0
I0
I0
I0
I0
I0
I0
I0
I0
I0
I0
I0
I0
I0
I0
I0
I0
I0
I0
I0
I0
I0
I0
I0
I0
I0
I0
I0
I0
I0
I0
I0
I0
I0
I0
I0
I0
I0
I0
I0
I0
I0
I0
tp476
g42
tp477
g4
(g8
S'S\xb0\x0cu\xf2\xe1\xf9?'
p478
tp479
Rp480
s((I0
I0
I0
I1
I1
I1
I1
I1
I1
I1
I1
I1
I1
I1
I1
I1
I1
I1
I1
I1
I1
I1
I1
I1
I1
I1
I1
I1
I1
I1
I1
I1
I1
I1
I1
I1
I1
I1
I1
I1
I1
I1
I1
I1
I1
I1
I1
I1
I1
I1
I1
I1
I1
I1
I1
I1
I1
I1
I1
I1
I1
I1
I1
I1
I1
I1
I1
I1
I1
I1
I1
I1
I1
I1
I1
I1
I1
I1
I0
I0
I0
I0
I0
I0
I0
I0
I0
I0
I0
I0
I0
I0
I0
I0
I0
I0
I0
I0
I0
I0
I0
I0
I0
I0
tp481
g54
tp482
g4
(g8
S'D\xd3\xb2\x08b\xf0\xfc?'
p483
tp484
Rp485
s((I0
I0
I1
I0
I1
I1
I1
I1
I1
I1
I1
I1
I1
I1
I1
I1
I1
I1
I1
I1
I1
I1
I1
I1
I1
I1
I1
I1
I1
I1
I1
I1
I1
I1
I1
I1
I1
I1
I1
I1
I1
I1
I1
I1
I1
I1
I1
I1
I1
I1
I1
I1
I1
I1
I1
I1
I1
I1
I1
I1
I1
I1
I1
I1
I1
I1
I1
I1
I1
I1
I1
I1
I1
I1
I1
I1
I1
I1
I1
I1
I1
I1
I1
I1
I1
I1
I1
I1
I1
I1
I1
I1
I1
I1
I0
I0
I0
I0
I0
I0
I0
I0
I0
I0
tp486
g2
tp487
g4
(g8
S'\xb3\x01U8\xc6\xcd\xe7?'
p488
tp489
Rp490
s((I0
I0
I1
I0
I1
I1
I1
I1
I1
I1
I1
I1
I1
I1
I1
I1
I1
I1
I1
I1
I1
I1
I1
I1
I1
I1
I1
I1
I1
I1
I1
I1
I1
I1
I1
I1
I1
I1
I1
I1
I1
I1
I1
I1
I1
I1
I1
I1
I1
I0
I0
I0
I0
I0
I0
I0
I0
I0
I0
I0
I0
I0
I0
I0
I0
I0
I0
I0
I0
I0
I0
I0
I0
I0
I0
I0
I0
I0
I0
I0
I0
I0
I0
I0
I0
I0
I0
I0
I0
I0
I0
I0
I0
I0
I0
I0
I0
I0
I0
I0
I0
I0
I0
I0
tp491
g42
tp492
g4
(g8
S'\x10\n\x15\xd6\x98\xaf\x00@'
p493
tp494
Rp495
s((I1
I0
I0
I0
I1
I1
I1
I1
I1
I1
I1
I1
I1
I1
I1
I1
I1
I1
I1
I1
I1
I1
I1
I0
I0
I0
I0
I0
I0
I0
I0
I0
I0
I0
I0
I0
I0
I0
I0
I0
I0
I0
I0
I0
I0
I0
I0
I0
I0
I0
I0
I0
I0
I0
I0
I0
I0
I0
I0
I0
I0
I0
I0
I0
I0
I0
I0
I0
I0
I0
I0
I0
I0
I0
I0
I0
I0
I0
I0
I0
I0
I0
I0
I0
I0
I0
I0
I0
I0
I0
I0
I0
I0
I0
I0
I0
I0
I0
I0
I0
I0
I0
I0
I0
tp496
g155
tp497
g4
(g8
S'\x08\xb94 \xb7?\xe1?'
p498
tp499
Rp500
s((I0
I0
I0
I1
I1
I1
I1
I1
I1
I1
I1
I1
I1
I1
I1
I1
I1
I1
I1
I1
I1
I1
I1
I1
I1
I1
I1
I1
I1
I1
I1
I1
I1
I1
I1
I1
I1
I1
I1
I1
I1
I1
I1
I1
I1
I1
I1
I1
I1
I1
I1
I1
I0
I0
I0
I0
I0
I0
I0
I0
I0
I0
I0
I0
I0
I0
I0
I0
I0
I0
I0
I0
I0
I0
I0
I0
I0
I0
I0
I0
I0
I0
I0
I0
I0
I0
I0
I0
I0
I0
I0
I0
I0
I0
I0
I0
I0
I0
I0
I0
I0
I0
I0
I0
tp501
g54
tp502
g4
(g8
S'\xe6\x95v\xed\xbbG\x00@'
p503
tp504
Rp505
s((I1
I0
I0
I0
I1
I1
I1
I1
I1
I0
I0
I0
I0
I0
I0
I0
I0
I0
I0
I0
I0
I0
I0
I0
I0
I0
I0
I0
I0
I0
I0
I0
I0
I0
I0
I0
I0
I0
I0
I0
I0
I0
I0
I0
I0
I0
I0
I0
I0
I0
I0
I0
I0
I0
I0
I0
I0
I0
I0
I0
I0
I0
I0
I0
I0
I0
I0
I0
I0
I0
I0
I0
I0
I0
I0
I0
I0
I0
I0
I0
I0
I0
I0
I0
I0
I0
I0
I0
I0
I0
I0
I0
I0
I0
I0
I0
I0
I0
I0
I0
I0
I0
I0
I0
tp506
g155
tp507
g4
(g8
S'\x02\xd8\x8ear\x8b\xfc?'
p508
tp509
Rp510
s((I0
I0
I0
I1
I1
I1
I1
I1
I1
I1
I1
I1
I1
I1
I1
I1
I1
I1
I1
I1
I1
I1
I1
I1
I1
I1
I1
I1
I1
I1
I1
I1
I1
I1
I0
I0
I0
I0
I0
I0
I0
I0
I0
I0
I0
I0
I0
I0
I0
I0
I0
I0
I0
I0
I0
I0
I0
I0
I0
I0
I0
I0
I0
I0
I0
I0
I0
I0
I0
I0
I0
I0
I0
I0
I0
I0
I0
I0
I0
I0
I0
I0
I0
I0
I0
I0
I0
I0
I0
I0
I0
I0
I0
I0
I0
I0
I0
I0
I0
I0
I0
I0
I0
I0
tp511
g54
tp512
g4
(g8
S'\xe7K\xceC\xd6j\xfb?'
p513
tp514
Rp515
s((I1
I0
I0
I0
I1
I1
I1
I1
I1
I1
I1
I1
I1
I1
I1
I1
I1
I1
I0
I0
I0
I0
I0
I0
I0
I0
I0
I0
I0
I0
I0
I0
I0
I0
I0
I0
I0
I0
I0
I0
I0
I0
I0
I0
I0
I0
I0
I0
I0
I0
I0
I0
I0
I0
I0
I0
I0
I0
I0
I0
I0
I0
I0
I0
I0
I0
I0
I0
I0
I0
I0
I0
I0
I0
I0
I0
I0
I0
I0
I0
I0
I0
I0
I0
I0
I0
I0
I0
I0
I0
I0
I0
I0
I0
I0
I0
I0
I0
I0
I0
I0
I0
I0
I0
tp516
g155
tp517
g4
(g8
S'x\x8e\x88\xb2\xfd/\xff?'
p518
tp519
Rp520
s((I0
I1
I0
I0
I1
I1
I1
I1
I1
I1
I1
I1
I1
I1
I1
I1
I1
I1
I0
I0
I0
I0
I0
I0
I0
I0
I0
I0
I0
I0
I0
I0
I0
I0
I0
I0
I0
I0
I0
I0
I0
I0
I0
I0
I0
I0
I0
I0
I0
I0
I0
I0
I0
I0
I0
I0
I0
I0
I0
I0
I0
I0
I0
I0
I0
I0
I0
I0
I0
I0
I0
I0
I0
I0
I0
I0
I0
I0
I0
I0
I0
I0
I0
I0
I0
I0
I0
I0
I0
I0
I0
I0
I0
I0
I0
I0
I0
I0
I0
I0
I0
I0
I0
I0
tp521
g48
tp522
g4
(g8
S'\x8d\x97\xeb\r{\x10\xe9?'
p523
tp524
Rp525
s((I0
I0
I0
I1
I1
I1
I1
I1
I1
I1
I1
I1
I1
I1
I1
I1
I1
I1
I1
I1
I1
I1
I1
I1
I1
I1
I1
I1
I1
I0
I0
I0
I0
I0
I0
I0
I0
I0
I0
I0
I0
I0
I0
I0
I0
I0
I0
I0
I0
I0
I0
I0
I0
I0
I0
I0
I0
I0
I0
I0
I0
I0
I0
I0
I0
I0
I0
I0
I0
I0
I0
I0
I0
I0
I0
I0
I0
I0
I0
I0
I0
I0
I0
I0
I0
I0
I0
I0
I0
I0
I0
I0
I0
I0
I0
I0
I0
I0
I0
I0
I0
I0
I0
I0
tp526
g54
tp527
g4
(g8
S'`\xa9W\x17\xaa\xf3\xf9?'
p528
tp529
Rp530
s((I0
I0
I1
I0
I1
I1
I1
I1
I1
I1
I1
I1
I1
I1
I1
I1
I1
I1
I1
I1
I1
I1
I1
I1
I1
I1
I1
I1
I1
I1
I1
I1
I1
I1
I1
I1
I1
I1
I1
I0
I0
I0
I0
I0
I0
I0
I0
I0
I0
I0
I0
I0
I0
I0
I0
I0
I0
I0
I0
I0
I0
I0
I0
I0
I0
I0
I0
I0
I0
I0
I0
I0
I0
I0
I0
I0
I0
I0
I0
I0
I0
I0
I0
I0
I0
I0
I0
I0
I0
I0
I0
I0
I0
I0
I0
I0
I0
I0
I0
I0
I0
I0
I0
I0
tp531
g42
tp532
g4
(g8
S'M\xa45\xfe\xf6\xe0\xfe?'
p533
tp534
Rp535
s((I0
I1
I0
I0
I1
I1
I1
I1
I1
I1
I1
I1
I1
I1
I1
I1
I1
I1
I1
I1
I0
I0
I0
I0
I0
I0
I0
I0
I0
I0
I0
I0
I0
I0
I0
I0
I0
I0
I0
I0
I0
I0
I0
I0
I0
I0
I0
I0
I0
I0
I0
I0
I0
I0
I0
I0
I0
I0
I0
I0
I0
I0
I0
I0
I0
I0
I0
I0
I0
I0
I0
I0
I0
I0
I0
I0
I0
I0
I0
I0
I0
I0
I0
I0
I0
I0
I0
I0
I0
I0
I0
I0
I0
I0
I0
I0
I0
I0
I0
I0
I0
I0
I0
I0
tp536
g48
tp537
g4
(g8
S'W\x1bP\x96\x8c$\xd1?'
p538
tp539
Rp540
s((I0
I0
I1
I0
I1
I1
I1
I1
I1
I1
I1
I1
I1
I1
I1
I1
I1
I1
I1
I1
I1
I1
I1
I1
I1
I1
I1
I1
I1
I1
I1
I1
I1
I1
I1
I1
I1
I1
I1
I1
I1
I1
I1
I1
I1
I1
I1
I1
I1
I1
I1
I1
I1
I1
I1
I1
I1
I1
I1
I1
I1
I1
I1
I1
I1
I1
I1
I1
I1
I1
I1
I1
I1
I1
I1
I1
I1
I1
I1
I1
I1
I1
I1
I1
I1
I1
I1
I1
I1
I1
I1
I1
I1
I1
I1
I0
I0
I0
I0
I0
I0
I0
I0
I0
tp541
g42
tp542
g4
(g8
S'\x9f\xa9|\xa4\x865\xc1?'
p543
tp544
Rp545
s((I0
I1
I0
I0
I1
I1
I1
I1
I1
I1
I1
I1
I1
I1
I1
I1
I1
I1
I1
I1
I1
I1
I1
I1
I1
I1
I1
I1
I1
I1
I1
I1
I0
I0
I0
I0
I0
I0
I0
I0
I0
I0
I0
I0
I0
I0
I0
I0
I0
I0
I0
I0
I0
I0
I0
I0
I0
I0
I0
I0
I0
I0
I0
I0
I0
I0
I0
I0
I0
I0
I0
I0
I0
I0
I0
I0
I0
I0
I0
I0
I0
I0
I0
I0
I0
I0
I0
I0
I0
I0
I0
I0
I0
I0
I0
I0
I0
I0
I0
I0
I0
I0
I0
I0
tp546
g15
tp547
g4
(g8
S'\x86\xbfI\xa0\xf7v\xe7?'
p548
tp549
Rp550
s((I0
I0
I1
I0
I1
I1
I1
I1
I1
I1
I1
I1
I1
I0
I0
I0
I0
I0
I0
I0
I0
I0
I0
I0
I0
I0
I0
I0
I0
I0
I0
I0
I0
I0
I0
I0
I0
I0
I0
I0
I0
I0
I0
I0
I0
I0
I0
I0
I0
I0
I0
I0
I0
I0
I0
I0
I0
I0
I0
I0
I0
I0
I0
I0
I0
I0
I0
I0
I0
I0
I0
I0
I0
I0
I0
I0
I0
I0
I0
I0
I0
I0
I0
I0
I0
I0
I0
I0
I0
I0
I0
I0
I0
I0
I0
I0
I0
I0
I0
I0
I0
I0
I0
I0
tp551
g42
tp552
g4
(g8
S'\xd7\xa0\xba\xa5F<\xf5?'
p553
tp554
Rp555
s((I0
I0
I1
I0
I1
I1
I1
I1
I1
I1
I1
I1
I1
I1
I1
I1
I1
I1
I1
I1
I1
I1
I1
I1
I1
I1
I1
I1
I1
I1
I1
I1
I1
I1
I1
I1
I1
I1
I1
I1
I1
I1
I1
I1
I1
I1
I1
I1
I1
I1
I1
I1
I1
I1
I1
I1
I1
I1
I1
I1
I1
I1
I0
I0
I0
I0
I0
I0
I0
I0
I0
I0
I0
I0
I0
I0
I0
I0
I0
I0
I0
I0
I0
I0
I0
I0
I0
I0
I0
I0
I0
I0
I0
I0
I0
I0
I0
I0
I0
I0
I0
I0
I0
I0
tp556
g2
tp557
g4
(g8
S'\x93\x95d\xb5}@\xfa?'
p558
tp559
Rp560
s((I0
I1
I0
I0
I1
I1
I1
I1
I1
I1
I1
I1
I1
I1
I1
I1
I1
I1
I1
I1
I1
I1
I1
I1
I1
I1
I0
I0
I0
I0
I0
I0
I0
I0
I0
I0
I0
I0
I0
I0
I0
I0
I0
I0
I0
I0
I0
I0
I0
I0
I0
I0
I0
I0
I0
I0
I0
I0
I0
I0
I0
I0
I0
I0
I0
I0
I0
I0
I0
I0
I0
I0
I0
I0
I0
I0
I0
I0
I0
I0
I0
I0
I0
I0
I0
I0
I0
I0
I0
I0
I0
I0
I0
I0
I0
I0
I0
I0
I0
I0
I0
I0
I0
I0
tp561
g48
tp562
g4
(g8
S'\x8d\nP\x02\x0e\xb2\xda?'
p563
tp564
Rp565
s((I0
I0
I1
I0
I1
I1
I1
I1
I1
I1
I1
I1
I1
I1
I1
I1
I1
I1
I1
I1
I1
I1
I1
I1
I1
I1
I1
I1
I1
I1
I1
I1
I1
I1
I1
I1
I1
I1
I1
I1
I1
I1
I1
I1
I1
I1
I1
I1
I0
I0
I0
I0
I0
I0
I0
I0
I0
I0
I0
I0
I0
I0
I0
I0
I0
I0
I0
I0
I0
I0
I0
I0
I0
I0
I0
I0
I0
I0
I0
I0
I0
I0
I0
I0
I0
I0
I0
I0
I0
I0
I0
I0
I0
I0
I0
I0
I0
I0
I0
I0
I0
I0
I0
I0
tp566
g42
tp567
g4
(g8
S'\xcf\xc9\x1d\xd1Kh\x00@'
p568
tp569
Rp570
s((I0
I0
I1
I0
I1
I1
I1
I1
I1
I1
I1
I1
I1
I1
I1
I1
I1
I1
I1
I1
I1
I1
I1
I1
I1
I1
I1
I1
I1
I1
I1
I1
I1
I1
I1
I1
I1
I1
I1
I1
I1
I1
I1
I1
I1
I1
I1
I1
I1
I1
I1
I1
I1
I1
I1
I1
I1
I1
I1
I1
I1
I1
I1
I1
I1
I1
I1
I1
I1
I1
I1
I1
I1
I1
I1
I1
I1
I1
I1
I1
I1
I1
I1
I1
I1
I1
I1
I1
I1
I1
I1
I1
I1
I1
I1
I0
I0
I0
I0
I0
I0
I0
I0
I0
tp571
g2
tp572
g4
(g8
S'\xfa\xd4\xbe\xcf\xa1\x8f\xa9?'
p573
tp574
Rp575
s((I0
I1
I0
I0
I1
I1
I1
I1
I1
I1
I1
I1
I1
I0
I0
I0
I0
I0
I0
I0
I0
I0
I0
I0
I0
I0
I0
I0
I0
I0
I0
I0
I0
I0
I0
I0
I0
I0
I0
I0
I0
I0
I0
I0
I0
I0
I0
I0
I0
I0
I0
I0
I0
I0
I0
I0
I0
I0
I0
I0
I0
I0
I0
I0
I0
I0
I0
I0
I0
I0
I0
I0
I0
I0
I0
I0
I0
I0
I0
I0
I0
I0
I0
I0
I0
I0
I0
I0
I0
I0
I0
I0
I0
I0
I0
I0
I0
I0
I0
I0
I0
I0
I0
I0
tp576
g48
tp577
g4
(g8
S'\xb7\xe6\x87\xce`\xe6\xf4?'
p578
tp579
Rp580
s((I1
I0
I0
I0
I0
I0
I0
I0
I0
I0
I0
I0
I0
I0
I0
I0
I0
I0
I0
I0
I0
I0
I0
I0
I0
I0
I0
I0
I0
I0
I0
I0
I0
I0
I0
I0
I0
I0
I0
I0
I0
I0
I0
I0
I0
I0
I0
I0
I0
I0
I0
I0
I0
I0
I0
I0
I0
I0
I0
I0
I0
I0
I0
I0
I0
I0
I0
I0
I0
I0
I0
I0
I0
I0
I0
I0
I0
I0
I0
I0
I0
I0
I0
I0
I0
I0
I0
I0
I0
I0
I0
I0
I0
I0
I0
I0
I0
I0
I0
I0
I0
I0
I0
I0
tp581
g155
tp582
g4
(g8
S',\xff\xb6\xc3\x05H\xfa?'
p583
tp584
Rp585
s((I0
I1
I0
I0
I1
I1
I1
I1
I1
I1
I1
I1
I1
I1
I1
I1
I1
I1
I1
I1
I1
I1
I1
I1
I1
I1
I1
I1
I1
I1
I1
I0
I0
I0
I0
I0
I0
I0
I0
I0
I0
I0
I0
I0
I0
I0
I0
I0
I0
I0
I0
I0
I0
I0
I0
I0
I0
I0
I0
I0
I0
I0
I0
I0
I0
I0
I0
I0
I0
I0
I0
I0
I0
I0
I0
I0
I0
I0
I0
I0
I0
I0
I0
I0
I0
I0
I0
I0
I0
I0
I0
I0
I0
I0
I0
I0
I0
I0
I0
I0
I0
I0
I0
I0
tp586
g48
tp587
g4
(g8
S'\xf1\xe6@g\xbf\x0e\xf2?'
p588
tp589
Rp590
s((I0
I1
I0
I0
I1
I1
I1
I1
I1
I1
I0
I0
I0
I0
I0
I0
I0
I0
I0
I0
I0
I0
I0
I0
I0
I0
I0
I0
I0
I0
I0
I0
I0
I0
I0
I0
I0
I0
I0
I0
I0
I0
I0
I0
I0
I0
I0
I0
I0
I0
I0
I0
I0
I0
I0
I0
I0
I0
I0
I0
I0
I0
I0
I0
I0
I0
I0
I0
I0
I0
I0
I0
I0
I0
I0
I0
I0
I0
I0
I0
I0
I0
I0
I0
I0
I0
I0
I0
I0
I0
I0
I0
I0
I0
I0
I0
I0
I0
I0
I0
I0
I0
I0
I0
tp591
g48
tp592
g4
(g8
S'L\xd02\x87~\x1f\xab?'
p593
tp594
Rp595
s((I0
I0
I1
I0
I1
I1
I1
I1
I1
I1
I1
I1
I1
I1
I1
I1
I1
I1
I1
I1
I1
I0
I0
I0
I0
I0
I0
I0
I0
I0
I0
I0
I0
I0
I0
I0
I0
I0
I0
I0
I0
I0
I0
I0
I0
I0
I0
I0
I0
I0
I0
I0
I0
I0
I0
I0
I0
I0
I0
I0
I0
I0
I0
I0
I0
I0
I0
I0
I0
I0
I0
I0
I0
I0
I0
I0
I0
I0
I0
I0
I0
I0
I0
I0
I0
I0
I0
I0
I0
I0
I0
I0
I0
I0
I0
I0
I0
I0
I0
I0
I0
I0
I0
I0
tp596
g2
tp597
g4
(g8
S'\xe03<\xf7)\x8b\x01@'
p598
tp599
Rp600
s((I0
I0
I0
I1
I1
I1
I1
I1
I1
I1
I1
I1
I1
I1
I1
I1
I1
I1
I1
I1
I1
I1
I1
I1
I1
I1
I1
I1
I1
I1
I1
I1
I1
I1
I1
I1
I1
I1
I1
I1
I1
I1
I1
I1
I0
I0
I0
I0
I0
I0
I0
I0
I0
I0
I0
I0
I0
I0
I0
I0
I0
I0
I0
I0
I0
I0
I0
I0
I0
I0
I0
I0
I0
I0
I0
I0
I0
I0
I0
I0
I0
I0
I0
I0
I0
I0
I0
I0
I0
I0
I0
I0
I0
I0
I0
I0
I0
I0
I0
I0
I0
I0
I0
I0
tp601
g54
tp602
g4
(g8
S'\xaaq\xeb\xe0\xb7\xc3\xfd?'
p603
tp604
Rp605
s((I0
I0
I1
I0
I1
I1
I1
I1
I1
I1
I1
I1
I1
I1
I1
I1
I1
I1
I1
I1
I1
I1
I1
I1
I1
I1
I1
I1
I1
I1
I1
I1
I0
I0
I0
I0
I0
I0
I0
I0
I0
I0
I0
I0
I0
I0
I0
I0
I0
I0
I0
I0
I0
I0
I0
I0
I0
I0
I0
I0
I0
I0
I0
I0
I0
I0
I0
I0
I0
I0
I0
I0
I0
I0
I0
I0
I0
I0
I0
I0
I0
I0
I0
I0
I0
I0
I0
I0
I0
I0
I0
I0
I0
I0
I0
I0
I0
I0
I0
I0
I0
I0
I0
I0
tp606
g42
tp607
g4
(g8
S'\x1b\x120\xabMU\xfe?'
p608
tp609
Rp610
s((I0
I0
I1
I0
I1
I1
I1
I1
I1
I1
I1
I1
I1
I1
I1
I1
I1
I1
I1
I1
I1
I1
I1
I1
I1
I1
I1
I1
I1
I1
I1
I1
I1
I1
I1
I1
I1
I1
I1
I1
I1
I1
I1
I1
I1
I1
I1
I1
I1
I1
I1
I1
I1
I1
I1
I1
I1
I0
I0
I0
I0
I0
I0
I0
I0
I0
I0
I0
I0
I0
I0
I0
I0
I0
I0
I0
I0
I0
I0
I0
I0
I0
I0
I0
I0
I0
I0
I0
I0
I0
I0
I0
I0
I0
I0
I0
I0
I0
I0
I0
I0
I0
I0
I0
tp611
g2
tp612
g4
(g8
S'\xd4X\x14\x85G\xec\xf3?'
p613
tp614
Rp615
s((I1
I0
I0
I0
I0
I0
I0
I0
I0
I0
I0
I0
I0
I0
I0
I0
I0
I0
I0
I0
I0
I0
I0
I0
I0
I0
I0
I0
I0
I0
I0
I0
I0
I0
I0
I0
I0
I0
I0
I0
I0
I0
I0
I0
I0
I0
I0
I0
I0
I0
I0
I0
I0
I0
I0
I0
I0
I0
I0
I0
I0
I0
I0
I0
I0
I0
I0
I0
I0
I0
I0
I0
I0
I0
I0
I0
I0
I0
I0
I0
I0
I0
I0
I0
I0
I0
I0
I0
I0
I0
I0
I0
I0
I0
I0
I0
I0
I0
I0
I0
I0
I0
I0
I0
tp616
g206
tp617
g4
(g8
S'\xc3\x81\xfe\xe2l\t\xf4?'
p618
tp619
Rp620
s((I0
I0
I1
I0
I1
I1
I1
I1
I1
I1
I1
I1
I1
I1
I1
I1
I1
I1
I1
I1
I1
I1
I1
I1
I1
I1
I1
I1
I1
I1
I1
I1
I1
I1
I1
I1
I1
I1
I1
I1
I1
I1
I1
I1
I1
I1
I1
I0
I0
I0
I0
I0
I0
I0
I0
I0
I0
I0
I0
I0
I0
I0
I0
I0
I0
I0
I0
I0
I0
I0
I0
I0
I0
I0
I0
I0
I0
I0
I0
I0
I0
I0
I0
I0
I0
I0
I0
I0
I0
I0
I0
I0
I0
I0
I0
I0
I0
I0
I0
I0
I0
I0
I0
I0
tp621
g42
tp622
g4
(g8
S'\xa9\xe7uB\xb5\xbd\x00@'
p623
tp624
Rp625
s((I0
I0
I1
I0
I1
I1
I1
I1
I1
I1
I1
I1
I1
I1
I1
I1
I1
I1
I1
I0
I0
I0
I0
I0
I0
I0
I0
I0
I0
I0
I0
I0
I0
I0
I0
I0
I0
I0
I0
I0
I0
I0
I0
I0
I0
I0
I0
I0
I0
I0
I0
I0
I0
I0
I0
I0
I0
I0
I0
I0
I0
I0
I0
I0
I0
I0
I0
I0
I0
I0
I0
I0
I0
I0
I0
I0
I0
I0
I0
I0
I0
I0
I0
I0
I0
I0
I0
I0
I0
I0
I0
I0
I0
I0
I0
I0
I0
I0
I0
I0
I0
I0
I0
I0
tp626
g2
tp627
g4
(g8
S'n\xf2\xbf`L\xc9\xff?'
p628
tp629
Rp630
s((I0
I0
I0
I1
I1
I1
I1
I1
I1
I1
I1
I1
I1
I1
I1
I1
I1
I1
I1
I1
I1
I1
I0
I0
I0
I0
I0
I0
I0
I0
I0
I0
I0
I0
I0
I0
I0
I0
I0
I0
I0
I0
I0
I0
I0
I0
I0
I0
I0
I0
I0
I0
I0
I0
I0
I0
I0
I0
I0
I0
I0
I0
I0
I0
I0
I0
I0
I0
I0
I0
I0
I0
I0
I0
I0
I0
I0
I0
I0
I0
I0
I0
I0
I0
I0
I0
I0
I0
I0
I0
I0
I0
I0
I0
I0
I0
I0
I0
I0
I0
I0
I0
I0
I0
tp631
g54
tp632
g4
(g8
S'\xb2 \xde\xbaQ{\xf6?'
p633
tp634
Rp635
s((I0
I0
I1
I0
I1
I1
I1
I1
I1
I1
I1
I1
I1
I1
I1
I0
I0
I0
I0
I0
I0
I0
I0
I0
I0
I0
I0
I0
I0
I0
I0
I0
I0
I0
I0
I0
I0
I0
I0
I0
I0
I0
I0
I0
I0
I0
I0
I0
I0
I0
I0
I0
I0
I0
I0
I0
I0
I0
I0
I0
I0
I0
I0
I0
I0
I0
I0
I0
I0
I0
I0
I0
I0
I0
I0
I0
I0
I0
I0
I0
I0
I0
I0
I0
I0
I0
I0
I0
I0
I0
I0
I0
I0
I0
I0
I0
I0
I0
I0
I0
I0
I0
I0
I0
tp636
g2
tp637
g4
(g8
S'<\xeb\x01<Vy\xfe?'
p638
tp639
Rp640
s((I0
I0
I1
I0
I1
I1
I1
I1
I1
I1
I1
I1
I1
I1
I1
I1
I1
I1
I1
I1
I1
I1
I1
I1
I1
I1
I1
I1
I1
I1
I1
I1
I1
I1
I1
I1
I1
I1
I1
I1
I1
I1
I1
I1
I1
I1
I1
I1
I1
I1
I1
I1
I1
I1
I1
I1
I1
I1
I1
I0
I0
I0
I0
I0
I0
I0
I0
I0
I0
I0
I0
I0
I0
I0
I0
I0
I0
I0
I0
I0
I0
I0
I0
I0
I0
I0
I0
I0
I0
I0
I0
I0
I0
I0
I0
I0
I0
I0
I0
I0
I0
I0
I0
I0
tp641
g2
tp642
g4
(g8
S'n</\xca\xa3\x06\xff?'
p643
tp644
Rp645
s((I0
I0
I0
I1
I1
I1
I1
I1
I1
I1
I1
I1
I1
I1
I1
I1
I1
I1
I1
I1
I1
I1
I1
I1
I1
I1
I1
I1
I1
I1
I1
I1
I1
I1
I1
I1
I1
I1
I1
I1
I1
I1
I1
I1
I1
I1
I1
I1
I1
I1
I1
I1
I1
I1
I1
I1
I1
I1
I1
I1
I1
I1
I1
I1
I1
I0
I0
I0
I0
I0
I0
I0
I0
I0
I0
I0
I0
I0
I0
I0
I0
I0
I0
I0
I0
I0
I0
I0
I0
I0
I0
I0
I0
I0
I0
I0
I0
I0
I0
I0
I0
I0
I0
I0
tp646
g54
tp647
g4
(g8
S'\xc7\xea\x06\xaaE\xd7\xff?'
p648
tp649
Rp650
s((I0
I0
I1
I0
I1
I1
I1
I1
I1
I1
I0
I0
I0
I0
I0
I0
I0
I0
I0
I0
I0
I0
I0
I0
I0
I0
I0
I0
I0
I0
I0
I0
I0
I0
I0
I0
I0
I0
I0
I0
I0
I0
I0
I0
I0
I0
I0
I0
I0
I0
I0
I0
I0
I0
I0
I0
I0
I0
I0
I0
I0
I0
I0
I0
I0
I0
I0
I0
I0
I0
I0
I0
I0
I0
I0
I0
I0
I0
I0
I0
I0
I0
I0
I0
I0
I0
I0
I0
I0
I0
I0
I0
I0
I0
I0
I0
I0
I0
I0
I0
I0
I0
I0
I0
tp651
g42
tp652
g4
(g8
S'\x9a\xdc\xf8\xf3\xe7 \xd2?'
p653
tp654
Rp655
s((I1
I0
I0
I0
I1
I1
I1
I1
I1
I1
I1
I1
I1
I1
I1
I0
I0
I0
I0
I0
I0
I0
I0
I0
I0
I0
I0
I0
I0
I0
I0
I0
I0
I0
I0
I0
I0
I0
I0
I0
I0
I0
I0
I0
I0
I0
I0
I0
I0
I0
I0
I0
I0
I0
I0
I0
I0
I0
I0
I0
I0
I0
I0
I0
I0
I0
I0
I0
I0
I0
I0
I0
I0
I0
I0
I0
I0
I0
I0
I0
I0
I0
I0
I0
I0
I0
I0
I0
I0
I0
I0
I0
I0
I0
I0
I0
I0
I0
I0
I0
I0
I0
I0
I0
tp656
g21
tp657
g4
(g8
S'\xd4\x9b\xcf\xc7\xbf\x03\xdb?'
p658
tp659
Rp660
s((I0
I0
I1
I0
I1
I1
I1
I1
I1
I1
I1
I1
I1
I1
I1
I1
I1
I1
I1
I1
I1
I1
I1
I1
I1
I1
I1
I1
I1
I1
I1
I0
I0
I0
I0
I0
I0
I0
I0
I0
I0
I0
I0
I0
I0
I0
I0
I0
I0
I0
I0
I0
I0
I0
I0
I0
I0
I0
I0
I0
I0
I0
I0
I0
I0
I0
I0
I0
I0
I0
I0
I0
I0
I0
I0
I0
I0
I0
I0
I0
I0
I0
I0
I0
I0
I0
I0
I0
I0
I0
I0
I0
I0
I0
I0
I0
I0
I0
I0
I0
I0
I0
I0
I0
tp661
g2
tp662
g4
(g8
S'\x83@\x8a\x0c\xe22\x02@'
p663
tp664
Rp665
s((I0
I0
I1
I0
I1
I1
I1
I1
I1
I1
I1
I1
I1
I1
I1
I1
I1
I1
I1
I1
I1
I1
I1
I1
I1
I1
I1
I1
I1
I1
I1
I1
I1
I1
I1
I1
I1
I1
I1
I1
I1
I1
I1
I0
I0
I0
I0
I0
I0
I0
I0
I0
I0
I0
I0
I0
I0
I0
I0
I0
I0
I0
I0
I0
I0
I0
I0
I0
I0
I0
I0
I0
I0
I0
I0
I0
I0
I0
I0
I0
I0
I0
I0
I0
I0
I0
I0
I0
I0
I0
I0
I0
I0
I0
I0
I0
I0
I0
I0
I0
I0
I0
I0
I0
tp666
g42
tp667
g4
(g8
S'\xaf\xfb,\x00<\xa5\xfe?'
p668
tp669
Rp670
s((I0
I0
I0
I1
I1
I1
I1
I1
I1
I1
I1
I1
I1
I1
I1
I1
I1
I1
I1
I1
I1
I1
I1
I1
I1
I1
I1
I1
I0
I0
I0
I0
I0
I0
I0
I0
I0
I0
I0
I0
I0
I0
I0
I0
I0
I0
I0
I0
I0
I0
I0
I0
I0
I0
I0
I0
I0
I0
I0
I0
I0
I0
I0
I0
I0
I0
I0
I0
I0
I0
I0
I0
I0
I0
I0
I0
I0
I0
I0
I0
I0
I0
I0
I0
I0
I0
I0
I0
I0
I0
I0
I0
I0
I0
I0
I0
I0
I0
I0
I0
I0
I0
I0
I0
tp671
g54
tp672
g4
(g8
S'\xaf\x8d=9\xa9\xf5\xf7?'
p673
tp674
Rp675
s((I0
I0
I0
I1
I1
I1
I1
I1
I1
I1
I1
I1
I1
I1
I1
I1
I1
I1
I1
I1
I1
I1
I1
I0
I0
I0
I0
I0
I0
I0
I0
I0
I0
I0
I0
I0
I0
I0
I0
I0
I0
I0
I0
I0
I0
I0
I0
I0
I0
I0
I0
I0
I0
I0
I0
I0
I0
I0
I0
I0
I0
I0
I0
I0
I0
I0
I0
I0
I0
I0
I0
I0
I0
I0
I0
I0
I0
I0
I0
I0
I0
I0
I0
I0
I0
I0
I0
I0
I0
I0
I0
I0
I0
I0
I0
I0
I0
I0
I0
I0
I0
I0
I0
I0
tp676
g54
tp677
g4
(g8
S'\xe6\x0f\x9a\xbeA\x8b\xf9?'
p678
tp679
Rp680
s((I0
I0
I1
I0
I1
I1
I1
I1
I1
I1
I1
I1
I1
I1
I1
I1
I1
I1
I1
I1
I1
I1
I1
I1
I1
I1
I0
I0
I0
I0
I0
I0
I0
I0
I0
I0
I0
I0
I0
I0
I0
I0
I0
I0
I0
I0
I0
I0
I0
I0
I0
I0
I0
I0
I0
I0
I0
I0
I0
I0
I0
I0
I0
I0
I0
I0
I0
I0
I0
I0
I0
I0
I0
I0
I0
I0
I0
I0
I0
I0
I0
I0
I0
I0
I0
I0
I0
I0
I0
I0
I0
I0
I0
I0
I0
I0
I0
I0
I0
I0
I0
I0
I0
I0
tp681
g2
tp682
g4
(g8
S'\xbd\xcc\xe3:e\x84\x01@'
p683
tp684
Rp685
s((I0
I0
I0
I1
I1
I1
I1
I1
I1
I1
I1
I1
I1
I1
I1
I1
I1
I1
I1
I1
I1
I1
I1
I1
I1
I1
I1
I0
I0
I0
I0
I0
I0
I0
I0
I0
I0
I0
I0
I0
I0
I0
I0
I0
I0
I0
I0
I0
I0
I0
I0
I0
I0
I0
I0
I0
I0
I0
I0
I0
I0
I0
I0
I0
I0
I0
I0
I0
I0
I0
I0
I0
I0
I0
I0
I0
I0
I0
I0
I0
I0
I0
I0
I0
I0
I0
I0
I0
I0
I0
I0
I0
I0
I0
I0
I0
I0
I0
I0
I0
I0
I0
I0
I0
tp686
g54
tp687
g4
(g8
S'\xbbv\x94b9c\xfa?'
p688
tp689
Rp690
s((I0
I0
I0
I1
I1
I1
I1
I1
I1
I1
I1
I1
I1
I1
I1
I1
I1
I1
I1
I1
I1
I1
I1
I1
I1
I1
I1
I1
I1
I1
I1
I1
I1
I1
I1
I1
I1
I1
I1
I1
I1
I1
I1
I1
I1
I1
I1
I1
I1
I1
I1
I1
I1
I1
I1
I1
I1
I1
I1
I1
I1
I1
I1
I1
I1
I1
I1
I1
I0
I0
I0
I0
I0
I0
I0
I0
I0
I0
I0
I0
I0
I0
I0
I0
I0
I0
I0
I0
I0
I0
I0
I0
I0
I0
I0
I0
I0
I0
I0
I0
I0
I0
I0
I0
tp691
g54
tp692
g4
(g8
S'\xd8j\xcf\x91\xec\xc8\x01@'
p693
tp694
Rp695
s((I0
I0
I0
I1
I1
I1
I1
I1
I1
I1
I1
I1
I1
I1
I1
I1
I1
I1
I1
I1
I1
I1
I1
I1
I1
I1
I1
I1
I1
I1
I1
I1
I1
I1
I1
I1
I1
I1
I1
I1
I1
I1
I1
I1
I1
I1
I1
I0
I0
I0
I0
I0
I0
I0
I0
I0
I0
I0
I0
I0
I0
I0
I0
I0
I0
I0
I0
I0
I0
I0
I0
I0
I0
I0
I0
I0
I0
I0
I0
I0
I0
I0
I0
I0
I0
I0
I0
I0
I0
I0
I0
I0
I0
I0
I0
I0
I0
I0
I0
I0
I0
I0
I0
I0
tp696
g54
tp697
g4
(g8
S'r\xcb\xe8\x01%\x81\xfe?'
p698
tp699
Rp700
s((I1
I0
I0
I0
I1
I1
I1
I1
I1
I1
I0
I0
I0
I0
I0
I0
I0
I0
I0
I0
I0
I0
I0
I0
I0
I0
I0
I0
I0
I0
I0
I0
I0
I0
I0
I0
I0
I0
I0
I0
I0
I0
I0
I0
I0
I0
I0
I0
I0
I0
I0
I0
I0
I0
I0
I0
I0
I0
I0
I0
I0
I0
I0
I0
I0
I0
I0
I0
I0
I0
I0
I0
I0
I0
I0
I0
I0
I0
I0
I0
I0
I0
I0
I0
I0
I0
I0
I0
I0
I0
I0
I0
I0
I0
I0
I0
I0
I0
I0
I0
I0
I0
I0
I0
tp701
g155
tp702
g4
(g8
S'*\x94\xcbD\xae\xab\xdd?'
p703
tp704
Rp705
s((I0
I1
I0
I0
I1
I1
I1
I1
I1
I1
I1
I1
I1
I1
I1
I1
I1
I1
I1
I1
I1
I1
I1
I1
I1
I1
I1
I1
I0
I0
I0
I0
I0
I0
I0
I0
I0
I0
I0
I0
I0
I0
I0
I0
I0
I0
I0
I0
I0
I0
I0
I0
I0
I0
I0
I0
I0
I0
I0
I0
I0
I0
I0
I0
I0
I0
I0
I0
I0
I0
I0
I0
I0
I0
I0
I0
I0
I0
I0
I0
I0
I0
I0
I0
I0
I0
I0
I0
I0
I0
I0
I0
I0
I0
I0
I0
I0
I0
I0
I0
I0
I0
I0
I0
tp706
g15
tp707
g4
(g8
S'n<)\x83f\xa8\xd1?'
p708
tp709
Rp710
s((I0
I0
I1
I0
I1
I1
I1
I1
I1
I1
I1
I1
I1
I1
I1
I1
I1
I1
I1
I1
I1
I1
I1
I1
I1
I1
I1
I1
I1
I1
I1
I1
I1
I1
I1
I1
I1
I1
I1
I1
I1
I1
I1
I1
I1
I1
I1
I1
I1
I1
I1
I1
I1
I1
I1
I1
I1
I1
I1
I1
I1
I1
I1
I1
I1
I1
I1
I1
I1
I1
I1
I1
I1
I0
I0
I0
I0
I0
I0
I0
I0
I0
I0
I0
I0
I0
I0
I0
I0
I0
I0
I0
I0
I0
I0
I0
I0
I0
I0
I0
I0
I0
I0
I0
tp711
g42
tp712
g4
(g8
S'%\xfe-*\x96\x94\xd8?'
p713
tp714
Rp715
s((I0
I0
I0
I1
I1
I1
I1
I1
I1
I1
I1
I1
I1
I1
I1
I1
I1
I1
I1
I1
I1
I1
I1
I1
I1
I1
I1
I1
I1
I1
I1
I1
I1
I1
I1
I1
I1
I1
I1
I1
I1
I1
I1
I1
I1
I1
I1
I1
I1
I1
I1
I1
I1
I1
I1
I1
I1
I1
I1
I1
I1
I1
I1
I1
I1
I1
I0
I0
I0
I0
I0
I0
I0
I0
I0
I0
I0
I0
I0
I0
I0
I0
I0
I0
I0
I0
I0
I0
I0
I0
I0
I0
I0
I0
I0
I0
I0
I0
I0
I0
I0
I0
I0
I0
tp716
g54
tp717
g4
(g8
S'\xbb\x15\xe2\x02\xc1\x92\x00@'
p718
tp719
Rp720
s((I1
I0
I0
I0
I1
I1
I1
I1
I1
I1
I1
I1
I1
I1
I1
I1
I1
I1
I1
I1
I1
I1
I1
I1
I1
I1
I1
I1
I1
I1
I1
I1
I1
I1
I1
I1
I1
I1
I1
I0
I0
I0
I0
I0
I0
I0
I0
I0
I0
I0
I0
I0
I0
I0
I0
I0
I0
I0
I0
I0
I0
I0
I0
I0
I0
I0
I0
I0
I0
I0
I0
I0
I0
I0
I0
I0
I0
I0
I0
I0
I0
I0
I0
I0
I0
I0
I0
I0
I0
I0
I0
I0
I0
I0
I0
I0
I0
I0
I0
I0
I0
I0
I0
I0
tp721
g21
tp722
g4
(g8
S'\xf3^6\xf5t\xb2\xdf?'
p723
tp724
Rp725
s((I0
I0
I0
I1
I1
I1
I1
I1
I1
I1
I1
I1
I1
I1
I0
I0
I0
I0
I0
I0
I0
I0
I0
I0
I0
I0
I0
I0
I0
I0
I0
I0
I0
I0
I0
I0
I0
I0
I0
I0
I0
I0
I0
I0
I0
I0
I0
I0
I0
I0
I0
I0
I0
I0
I0
I0
I0
I0
I0
I0
I0
I0
I0
I0
I0
I0
I0
I0
I0
I0
I0
I0
I0
I0
I0
I0
I0
I0
I0
I0
I0
I0
I0
I0
I0
I0
I0
I0
I0
I0
I0
I0
I0
I0
I0
I0
I0
I0
I0
I0
I0
I0
I0
I0
tp726
g54
tp727
g4
(g8
S'\x962f\x1c\xb4K\xf4?'
p728
tp729
Rp730
s((I1
I0
I0
I0
I1
I1
I1
I1
I1
I1
I1
I1
I1
I1
I0
I0
I0
I0
I0
I0
I0
I0
I0
I0
I0
I0
I0
I0
I0
I0
I0
I0
I0
I0
I0
I0
I0
I0
I0
I0
I0
I0
I0
I0
I0
I0
I0
I0
I0
I0
I0
I0
I0
I0
I0
I0
I0
I0
I0
I0
I0
I0
I0
I0
I0
I0
I0
I0
I0
I0
I0
I0
I0
I0
I0
I0
I0
I0
I0
I0
I0
I0
I0
I0
I0
I0
I0
I0
I0
I0
I0
I0
I0
I0
I0
I0
I0
I0
I0
I0
I0
I0
I0
I0
tp731
g155
tp732
g4
(g8
S'\xfc\xd3\xf3o\xa1\xee\xf6?'
p733
tp734
Rp735
s((I0
I0
I0
I1
I1
I1
I1
I1
I1
I1
I1
I1
I1
I1
I1
I1
I1
I1
I1
I1
I1
I1
I1
I1
I1
I1
I1
I1
I1
I1
I1
I1
I1
I1
I1
I1
I1
I1
I1
I1
I1
I1
I1
I1
I1
I1
I1
I1
I1
I1
I1
I1
I1
I1
I1
I1
I1
I1
I1
I1
I1
I1
I1
I1
I1
I1
I1
I1
I1
I1
I1
I1
I1
I1
I1
I1
I1
I1
I1
I1
I1
I1
I1
I1
I1
I1
I1
I1
I0
I0
I0
I0
I0
I0
I0
I0
I0
I0
I0
I0
I0
I0
I0
I0
tp736
g54
tp737
g4
(g8
S'd\x1c=FI\xac\xfc?'
p738
tp739
Rp740
s((I0
I1
I0
I0
I1
I1
I1
I1
I1
I1
I1
I1
I1
I1
I1
I1
I1
I1
I1
I1
I1
I1
I1
I1
I1
I1
I1
I1
I1
I1
I1
I1
I1
I1
I1
I1
I1
I1
I1
I1
I1
I1
I1
I1
I1
I1
I1
I1
I1
I1
I1
I1
I1
I1
I1
I1
I1
I0
I0
I0
I0
I0
I0
I0
I0
I0
I0
I0
I0
I0
I0
I0
I0
I0
I0
I0
I0
I0
I0
I0
I0
I0
I0
I0
I0
I0
I0
I0
I0
I0
I0
I0
I0
I0
I0
I0
I0
I0
I0
I0
I0
I0
I0
I0
tp741
g48
tp742
g4
(g8
S'\xc9\xbb\x9b\\\xcc\x1c\xe9?'
p743
tp744
Rp745
s((I0
I0
I1
I0
I1
I1
I1
I1
I1
I1
I1
I1
I1
I1
I1
I1
I1
I1
I1
I1
I1
I1
I1
I1
I1
I1
I1
I1
I1
I1
I1
I1
I1
I1
I1
I1
I1
I1
I1
I1
I1
I1
I1
I1
I1
I1
I1
I1
I1
I1
I1
I1
I1
I1
I1
I1
I1
I1
I1
I1
I1
I1
I1
I1
I1
I1
I1
I1
I1
I0
I0
I0
I0
I0
I0
I0
I0
I0
I0
I0
I0
I0
I0
I0
I0
I0
I0
I0
I0
I0
I0
I0
I0
I0
I0
I0
I0
I0
I0
I0
I0
I0
I0
I0
tp746
g2
tp747
g4
(g8
S'iA\xa2!\x15\xa3\xe9?'
p748
tp749
Rp750
s((I0
I0
I1
I0
I1
I1
I1
I1
I1
I1
I1
I1
I1
I1
I1
I1
I1
I1
I1
I1
I1
I1
I1
I1
I1
I1
I1
I1
I1
I1
I1
I1
I1
I1
I1
I1
I1
I1
I1
I1
I1
I1
I1
I1
I1
I1
I1
I1
I1
I1
I1
I1
I1
I1
I1
I1
I1
I1
I1
I1
I0
I0
I0
I0
I0
I0
I0
I0
I0
I0
I0
I0
I0
I0
I0
I0
I0
I0
I0
I0
I0
I0
I0
I0
I0
I0
I0
I0
I0
I0
I0
I0
I0
I0
I0
I0
I0
I0
I0
I0
I0
I0
I0
I0
tp751
g2
tp752
g4
(g8
S'\xde\xf3\x9f\xc4Z\x15\x08@'
p753
tp754
Rp755
s((I0
I0
I1
I0
I1
I1
I1
I1
I1
I1
I1
I1
I1
I1
I1
I1
I1
I1
I1
I1
I1
I1
I1
I1
I1
I1
I1
I1
I1
I1
I1
I1
I1
I0
I0
I0
I0
I0
I0
I0
I0
I0
I0
I0
I0
I0
I0
I0
I0
I0
I0
I0
I0
I0
I0
I0
I0
I0
I0
I0
I0
I0
I0
I0
I0
I0
I0
I0
I0
I0
I0
I0
I0
I0
I0
I0
I0
I0
I0
I0
I0
I0
I0
I0
I0
I0
I0
I0
I0
I0
I0
I0
I0
I0
I0
I0
I0
I0
I0
I0
I0
I0
I0
I0
tp756
g2
tp757
g4
(g8
S's8\xdb\xad\xdc5\x02@'
p758
tp759
Rp760
s((I0
I0
I1
I0
I1
I1
I1
I1
I1
I1
I1
I1
I1
I1
I1
I1
I1
I1
I1
I1
I1
I1
I1
I1
I1
I1
I1
I1
I1
I1
I1
I1
I1
I1
I1
I1
I0
I0
I0
I0
I0
I0
I0
I0
I0
I0
I0
I0
I0
I0
I0
I0
I0
I0
I0
I0
I0
I0
I0
I0
I0
I0
I0
I0
I0
I0
I0
I0
I0
I0
I0
I0
I0
I0
I0
I0
I0
I0
I0
I0
I0
I0
I0
I0
I0
I0
I0
I0
I0
I0
I0
I0
I0
I0
I0
I0
I0
I0
I0
I0
I0
I0
I0
I0
tp761
g2
tp762
g4
(g8
S'6\x18\x92\xce@\xae\x02@'
p763
tp764
Rp765
s((I0
I0
I0
I1
I1
I1
I1
I1
I1
I1
I1
I1
I1
I1
I1
I1
I1
I1
I1
I1
I1
I1
I1
I1
I1
I1
I1
I1
I1
I1
I1
I1
I1
I1
I1
I1
I1
I1
I1
I1
I1
I1
I1
I1
I1
I1
I1
I1
I1
I1
I1
I1
I1
I1
I1
I1
I1
I1
I1
I1
I1
I1
I1
I1
I1
I1
I1
I1
I1
I1
I1
I1
I1
I1
I1
I1
I1
I1
I1
I1
I1
I1
I1
I1
I1
I1
I1
I1
I1
I1
I1
I0
I0
I0
I0
I0
I0
I0
I0
I0
I0
I0
I0
I0
tp766
g54
tp767
g4
(g8
S'\x84\xb4X\x94<\xf4\xf7?'
p768
tp769
Rp770
s((I0
I1
I0
I0
I1
I1
I1
I1
I1
I1
I1
I1
I1
I1
I1
I1
I1
I1
I0
I0
I0
I0
I0
I0
I0
I0
I0
I0
I0
I0
I0
I0
I0
I0
I0
I0
I0
I0
I0
I0
I0
I0
I0
I0
I0
I0
I0
I0
I0
I0
I0
I0
I0
I0
I0
I0
I0
I0
I0
I0
I0
I0
I0
I0
I0
I0
I0
I0
I0
I0
I0
I0
I0
I0
I0
I0
I0
I0
I0
I0
I0
I0
I0
I0
I0
I0
I0
I0
I0
I0
I0
I0
I0
I0
I0
I0
I0
I0
I0
I0
I0
I0
I0
I0
tp771
g15
tp772
g4
(g8
S'6\xbe\xf5<\x07A\xf7?'
p773
tp774
Rp775
s((I0
I0
I0
I1
I1
I1
I1
I1
I1
I1
I1
I1
I1
I1
I1
I1
I1
I1
I1
I1
I1
I0
I0
I0
I0
I0
I0
I0
I0
I0
I0
I0
I0
I0
I0
I0
I0
I0
I0
I0
I0
I0
I0
I0
I0
I0
I0
I0
I0
I0
I0
I0
I0
I0
I0
I0
I0
I0
I0
I0
I0
I0
I0
I0
I0
I0
I0
I0
I0
I0
I0
I0
I0
I0
I0
I0
I0
I0
I0
I0
I0
I0
I0
I0
I0
I0
I0
I0
I0
I0
I0
I0
I0
I0
I0
I0
I0
I0
I0
I0
I0
I0
I0
I0
tp776
g54
tp777
g4
(g8
S'\x0f\xacK\x86\xd0\x0f\xf4?'
p778
tp779
Rp780
s((I0
I0
I1
I0
I1
I1
I1
I1
I1
I1
I1
I1
I1
I1
I1
I1
I1
I1
I1
I1
I1
I1
I1
I1
I1
I1
I1
I1
I1
I1
I1
I1
I1
I1
I1
I1
I1
I1
I1
I1
I1
I1
I1
I1
I1
I1
I1
I1
I1
I1
I1
I1
I1
I1
I1
I1
I1
I1
I1
I1
I1
I1
I1
I1
I1
I1
I1
I1
I1
I1
I1
I1
I1
I1
I1
I1
I0
I0
I0
I0
I0
I0
I0
I0
I0
I0
I0
I0
I0
I0
I0
I0
I0
I0
I0
I0
I0
I0
I0
I0
I0
I0
I0
I0
tp781
g2
tp782
g4
(g8
S'\xf04\xc8\x90"\xb9\xaa?'
p783
tp784
Rp785
s((I0
I0
I1
I0
I1
I1
I1
I1
I1
I1
I1
I1
I1
I1
I1
I1
I1
I1
I1
I1
I1
I1
I1
I1
I1
I1
I1
I1
I1
I1
I1
I1
I1
I1
I1
I1
I1
I1
I1
I0
I0
I0
I0
I0
I0
I0
I0
I0
I0
I0
I0
I0
I0
I0
I0
I0
I0
I0
I0
I0
I0
I0
I0
I0
I0
I0
I0
I0
I0
I0
I0
I0
I0
I0
I0
I0
I0
I0
I0
I0
I0
I0
I0
I0
I0
I0
I0
I0
I0
I0
I0
I0
I0
I0
I0
I0
I0
I0
I0
I0
I0
I0
I0
I0
tp786
g2
tp787
g4
(g8
S')\x0bn $\xb8\x01@'
p788
tp789
Rp790
s((I0
I1
I0
I0
I1
I1
I1
I1
I1
I1
I1
I1
I1
I1
I1
I1
I1
I1
I1
I1
I1
I1
I1
I1
I1
I1
I1
I0
I0
I0
I0
I0
I0
I0
I0
I0
I0
I0
I0
I0
I0
I0
I0
I0
I0
I0
I0
I0
I0
I0
I0
I0
I0
I0
I0
I0
I0
I0
I0
I0
I0
I0
I0
I0
I0
I0
I0
I0
I0
I0
I0
I0
I0
I0
I0
I0
I0
I0
I0
I0
I0
I0
I0
I0
I0
I0
I0
I0
I0
I0
I0
I0
I0
I0
I0
I0
I0
I0
I0
I0
I0
I0
I0
I0
tp791
g15
tp792
g4
(g8
S'\x1f\xcc|\n[\xf0\xe3?'
p793
tp794
Rp795
s((I0
I0
I0
I1
I1
I1
I1
I1
I1
I1
I1
I1
I1
I1
I1
I1
I1
I1
I1
I1
I1
I1
I1
I1
I1
I1
I1
I1
I1
I1
I1
I1
I1
I1
I1
I1
I1
I1
I1
I1
I1
I0
I0
I0
I0
I0
I0
I0
I0
I0
I0
I0
I0
I0
I0
I0
I0
I0
I0
I0
I0
I0
I0
I0
I0
I0
I0
I0
I0
I0
I0
I0
I0
I0
I0
I0
I0
I0
I0
I0
I0
I0
I0
I0
I0
I0
I0
I0
I0
I0
I0
I0
I0
I0
I0
I0
I0
I0
I0
I0
I0
I0
I0
I0
tp796
g54
tp797
g4
(g8
S':,\xc21\x9b\xb5\xfe?'
p798
tp799
Rp800
s((I0
I0
I0
I1
I1
I1
I1
I1
I1
I1
I1
I1
I1
I1
I1
I1
I0
I0
I0
I0
I0
I0
I0
I0
I0
I0
I0
I0
I0
I0
I0
I0
I0
I0
I0
I0
I0
I0
I0
I0
I0
I0
I0
I0
I0
I0
I0
I0
I0
I0
I0
I0
I0
I0
I0
I0
I0
I0
I0
I0
I0
I0
I0
I0
I0
I0
I0
I0
I0
I0
I0
I0
I0
I0
I0
I0
I0
I0
I0
I0
I0
I0
I0
I0
I0
I0
I0
I0
I0
I0
I0
I0
I0
I0
I0
I0
I0
I0
I0
I0
I0
I0
I0
I0
tp801
g54
tp802
g4
(g8
S'\x00\x1f*\xa3\x00\x80\xac?'
p803
tp804
Rp805
s((I0
I1
I0
I0
I1
I1
I1
I1
I1
I1
I1
I1
I1
I0
I0
I0
I0
I0
I0
I0
I0
I0
I0
I0
I0
I0
I0
I0
I0
I0
I0
I0
I0
I0
I0
I0
I0
I0
I0
I0
I0
I0
I0
I0
I0
I0
I0
I0
I0
I0
I0
I0
I0
I0
I0
I0
I0
I0
I0
I0
I0
I0
I0
I0
I0
I0
I0
I0
I0
I0
I0
I0
I0
I0
I0
I0
I0
I0
I0
I0
I0
I0
I0
I0
I0
I0
I0
I0
I0
I0
I0
I0
I0
I0
I0
I0
I0
I0
I0
I0
I0
I0
I0
I0
tp806
g15
tp807
g4
(g8
S'\x8f\xa94(O\xce\xb5?'
p808
tp809
Rp810
s((I0
I0
I1
I0
I1
I1
I1
I1
I1
I1
I1
I1
I1
I1
I1
I1
I1
I1
I1
I1
I1
I1
I1
I1
I1
I1
I1
I1
I1
I1
I1
I1
I1
I1
I1
I1
I1
I1
I1
I1
I1
I1
I1
I1
I1
I1
I1
I1
I1
I1
I1
I1
I1
I1
I0
I0
I0
I0
I0
I0
I0
I0
I0
I0
I0
I0
I0
I0
I0
I0
I0
I0
I0
I0
I0
I0
I0
I0
I0
I0
I0
I0
I0
I0
I0
I0
I0
I0
I0
I0
I0
I0
I0
I0
I0
I0
I0
I0
I0
I0
I0
I0
I0
I0
tp811
g2
tp812
g4
(g8
S'\x97\x1c\x9f~\xfa\x95\x00@'
p813
tp814
Rp815
s((I0
I0
I1
I0
I1
I1
I1
I1
I1
I1
I1
I1
I1
I1
I1
I1
I1
I1
I1
I1
I1
I1
I1
I1
I1
I1
I1
I1
I1
I1
I1
I1
I1
I1
I1
I1
I0
I0
I0
I0
I0
I0
I0
I0
I0
I0
I0
I0
I0
I0
I0
I0
I0
I0
I0
I0
I0
I0
I0
I0
I0
I0
I0
I0
I0
I0
I0
I0
I0
I0
I0
I0
I0
I0
I0
I0
I0
I0
I0
I0
I0
I0
I0
I0
I0
I0
I0
I0
I0
I0
I0
I0
I0
I0
I0
I0
I0
I0
I0
I0
I0
I0
I0
I0
tp816
g42
tp817
g4
(g8
S'\xb2\xd6J{Y]\x00@'
p818
tp819
Rp820
s((I0
I0
I0
I1
I1
I1
I1
I1
I1
I1
I1
I1
I1
I1
I1
I1
I1
I1
I1
I1
I1
I1
I1
I1
I1
I1
I1
I1
I1
I1
I1
I1
I1
I1
I1
I1
I1
I1
I1
I1
I1
I1
I1
I1
I1
I1
I1
I1
I1
I1
I1
I1
I1
I1
I1
I1
I1
I1
I1
I1
I1
I1
I1
I1
I1
I1
I1
I1
I1
I1
I1
I1
I1
I1
I1
I1
I1
I1
I1
I1
I1
I1
I1
I1
I1
I1
I1
I1
I1
I1
I1
I1
I1
I1
I1
I1
I1
I1
I1
I1
I0
I0
I0
I0
tp821
g54
tp822
g4
(g8
S'\x10m%c\x89m\xea?'
p823
tp824
Rp825
s((I0
I1
I0
I0
I1
I1
I1
I1
I1
I1
I1
I1
I1
I1
I1
I1
I1
I1
I1
I1
I1
I1
I1
I0
I0
I0
I0
I0
I0
I0
I0
I0
I0
I0
I0
I0
I0
I0
I0
I0
I0
I0
I0
I0
I0
I0
I0
I0
I0
I0
I0
I0
I0
I0
I0
I0
I0
I0
I0
I0
I0
I0
I0
I0
I0
I0
I0
I0
I0
I0
I0
I0
I0
I0
I0
I0
I0
I0
I0
I0
I0
I0
I0
I0
I0
I0
I0
I0
I0
I0
I0
I0
I0
I0
I0
I0
I0
I0
I0
I0
I0
I0
I0
I0
tp826
g15
tp827
g4
(g8
S'\x05\xa6\xb8\x0cS4\xea?'
p828
tp829
Rp830
s((I0
I1
I0
I0
I1
I1
I1
I1
I1
I1
I1
I1
I1
I1
I1
I1
I1
I1
I1
I1
I0
I0
I0
I0
I0
I0
I0
I0
I0
I0
I0
I0
I0
I0
I0
I0
I0
I0
I0
I0
I0
I0
I0
I0
I0
I0
I0
I0
I0
I0
I0
I0
I0
I0
I0
I0
I0
I0
I0
I0
I0
I0
I0
I0
I0
I0
I0
I0
I0
I0
I0
I0
I0
I0
I0
I0
I0
I0
I0
I0
I0
I0
I0
I0
I0
I0
I0
I0
I0
I0
I0
I0
I0
I0
I0
I0
I0
I0
I0
I0
I0
I0
I0
I0
tp831
g15
tp832
g4
(g8
S':I:=aa\xd5?'
p833
tp834
Rp835
s((I0
I0
I0
I1
I1
I1
I1
I1
I1
I1
I1
I1
I1
I1
I1
I1
I1
I1
I1
I1
I1
I1
I1
I1
I0
I0
I0
I0
I0
I0
I0
I0
I0
I0
I0
I0
I0
I0
I0
I0
I0
I0
I0
I0
I0
I0
I0
I0
I0
I0
I0
I0
I0
I0
I0
I0
I0
I0
I0
I0
I0
I0
I0
I0
I0
I0
I0
I0
I0
I0
I0
I0
I0
I0
I0
I0
I0
I0
I0
I0
I0
I0
I0
I0
I0
I0
I0
I0
I0
I0
I0
I0
I0
I0
I0
I0
I0
I0
I0
I0
I0
I0
I0
I0
tp836
g54
tp837
g4
(g8
S'\xe9\xdf\xc7\xc3\xd3\xd8\xf7?'
p838
tp839
Rp840
s((I0
I0
I1
I0
I1
I1
I1
I1
I1
I1
I1
I1
I1
I1
I1
I1
I1
I1
I1
I1
I1
I1
I0
I0
I0
I0
I0
I0
I0
I0
I0
I0
I0
I0
I0
I0
I0
I0
I0
I0
I0
I0
I0
I0
I0
I0
I0
I0
I0
I0
I0
I0
I0
I0
I0
I0
I0
I0
I0
I0
I0
I0
I0
I0
I0
I0
I0
I0
I0
I0
I0
I0
I0
I0
I0
I0
I0
I0
I0
I0
I0
I0
I0
I0
I0
I0
I0
I0
I0
I0
I0
I0
I0
I0
I0
I0
I0
I0
I0
I0
I0
I0
I0
I0
tp841
g2
tp842
g4
(g8
S'\x82\xb7\x1e"\x8a\xb3\xd4?'
p843
tp844
Rp845
s((I1
I0
I0
I0
I1
I1
I1
I1
I1
I1
I1
I1
I1
I1
I1
I1
I1
I1
I1
I1
I1
I1
I1
I1
I1
I1
I1
I1
I1
I1
I1
I0
I0
I0
I0
I0
I0
I0
I0
I0
I0
I0
I0
I0
I0
I0
I0
I0
I0
I0
I0
I0
I0
I0
I0
I0
I0
I0
I0
I0
I0
I0
I0
I0
I0
I0
I0
I0
I0
I0
I0
I0
I0
I0
I0
I0
I0
I0
I0
I0
I0
I0
I0
I0
I0
I0
I0
I0
I0
I0
I0
I0
I0
I0
I0
I0
I0
I0
I0
I0
I0
I0
I0
I0
tp846
g155
tp847
g4
(g8
S'wc.AQ\x90\x00@'
p848
tp849
Rp850
s((I0
I1
I0
I0
I1
I1
I1
I1
I1
I1
I1
I1
I1
I1
I1
I1
I1
I1
I1
I1
I1
I1
I1
I1
I1
I1
I1
I1
I1
I1
I1
I1
I1
I1
I1
I1
I0
I0
I0
I0
I0
I0
I0
I0
I0
I0
I0
I0
I0
I0
I0
I0
I0
I0
I0
I0
I0
I0
I0
I0
I0
I0
I0
I0
I0
I0
I0
I0
I0
I0
I0
I0
I0
I0
I0
I0
I0
I0
I0
I0
I0
I0
I0
I0
I0
I0
I0
I0
I0
I0
I0
I0
I0
I0
I0
I0
I0
I0
I0
I0
I0
I0
I0
I0
tp851
g48
tp852
g4
(g8
S'\x86L@\x01d\x94\xe0?'
p853
tp854
Rp855
s((I0
I0
I1
I0
I1
I1
I1
I1
I1
I1
I1
I1
I1
I1
I1
I1
I1
I1
I1
I1
I1
I1
I1
I1
I1
I1
I1
I1
I1
I1
I1
I1
I1
I1
I1
I1
I1
I1
I1
I1
I1
I1
I1
I1
I1
I1
I1
I1
I1
I1
I1
I1
I1
I1
I1
I1
I1
I0
I0
I0
I0
I0
I0
I0
I0
I0
I0
I0
I0
I0
I0
I0
I0
I0
I0
I0
I0
I0
I0
I0
I0
I0
I0
I0
I0
I0
I0
I0
I0
I0
I0
I0
I0
I0
I0
I0
I0
I0
I0
I0
I0
I0
I0
I0
tp856
g42
tp857
g4
(g8
S'R\xa3\xb0\x08\x8d\xa5\x01@'
p858
tp859
Rp860
s((I0
I0
I1
I0
I1
I1
I1
I1
I1
I1
I1
I1
I1
I1
I1
I1
I1
I1
I1
I1
I1
I1
I1
I1
I1
I1
I1
I1
I1
I1
I1
I1
I1
I1
I1
I1
I1
I1
I1
I1
I1
I1
I1
I1
I1
I1
I1
I1
I1
I1
I1
I1
I1
I1
I1
I1
I1
I1
I1
I0
I0
I0
I0
I0
I0
I0
I0
I0
I0
I0
I0
I0
I0
I0
I0
I0
I0
I0
I0
I0
I0
I0
I0
I0
I0
I0
I0
I0
I0
I0
I0
I0
I0
I0
I0
I0
I0
I0
I0
I0
I0
I0
I0
I0
tp861
g42
tp862
g4
(g8
S'.h;\x82\xd0\x06\x00@'
p863
tp864
Rp865
s((I0
I0
I0
I1
I1
I1
I1
I1
I1
I1
I1
I1
I1
I1
I1
I1
I1
I1
I1
I1
I1
I1
I1
I1
I1
I1
I1
I1
I1
I1
I1
I1
I1
I0
I0
I0
I0
I0
I0
I0
I0
I0
I0
I0
I0
I0
I0
I0
I0
I0
I0
I0
I0
I0
I0
I0
I0
I0
I0
I0
I0
I0
I0
I0
I0
I0
I0
I0
I0
I0
I0
I0
I0
I0
I0
I0
I0
I0
I0
I0
I0
I0
I0
I0
I0
I0
I0
I0
I0
I0
I0
I0
I0
I0
I0
I0
I0
I0
I0
I0
I0
I0
I0
I0
tp866
g54
tp867
g4
(g8
S'r?{\x1c\x86V\xf9?'
p868
tp869
Rp870
s((I0
I1
I0
I0
I1
I1
I1
I1
I1
I1
I1
I1
I1
I1
I1
I1
I1
I1
I1
I0
I0
I0
I0
I0
I0
I0
I0
I0
I0
I0
I0
I0
I0
I0
I0
I0
I0
I0
I0
I0
I0
I0
I0
I0
I0
I0
I0
I0
I0
I0
I0
I0
I0
I0
I0
I0
I0
I0
I0
I0
I0
I0
I0
I0
I0
I0
I0
I0
I0
I0
I0
I0
I0
I0
I0
I0
I0
I0
I0
I0
I0
I0
I0
I0
I0
I0
I0
I0
I0
I0
I0
I0
I0
I0
I0
I0
I0
I0
I0
I0
I0
I0
I0
I0
tp871
g48
tp872
g4
(g8
S',r\xda\xf9\xfd\xb8\xf3?'
p873
tp874
Rp875
s((I0
I0
I1
I0
I1
I1
I1
I1
I1
I1
I1
I1
I1
I1
I1
I1
I1
I1
I1
I1
I1
I1
I1
I1
I1
I1
I1
I1
I1
I1
I1
I1
I1
I1
I1
I1
I1
I1
I1
I1
I1
I1
I1
I1
I1
I1
I1
I1
I1
I1
I1
I1
I1
I1
I1
I1
I1
I1
I1
I1
I1
I1
I1
I1
I1
I1
I1
I1
I1
I1
I1
I1
I1
I1
I1
I1
I0
I0
I0
I0
I0
I0
I0
I0
I0
I0
I0
I0
I0
I0
I0
I0
I0
I0
I0
I0
I0
I0
I0
I0
I0
I0
I0
I0
tp876
g42
tp877
g4
(g8
S'T\xc1|\xf9W\x90\xf1?'
p878
tp879
Rp880
s((I1
I0
I0
I0
I1
I1
I1
I1
I1
I1
I1
I1
I1
I1
I1
I1
I1
I1
I1
I1
I1
I1
I1
I1
I0
I0
I0
I0
I0
I0
I0
I0
I0
I0
I0
I0
I0
I0
I0
I0
I0
I0
I0
I0
I0
I0
I0
I0
I0
I0
I0
I0
I0
I0
I0
I0
I0
I0
I0
I0
I0
I0
I0
I0
I0
I0
I0
I0
I0
I0
I0
I0
I0
I0
I0
I0
I0
I0
I0
I0
I0
I0
I0
I0
I0
I0
I0
I0
I0
I0
I0
I0
I0
I0
I0
I0
I0
I0
I0
I0
I0
I0
I0
I0
tp881
g21
tp882
g4
(g8
S')\r\xeeOYL\xe1?'
p883
tp884
Rp885
s((I0
I0
I1
I0
I1
I1
I1
I1
I1
I1
I1
I1
I1
I1
I1
I1
I0
I0
I0
I0
I0
I0
I0
I0
I0
I0
I0
I0
I0
I0
I0
I0
I0
I0
I0
I0
I0
I0
I0
I0
I0
I0
I0
I0
I0
I0
I0
I0
I0
I0
I0
I0
I0
I0
I0
I0
I0
I0
I0
I0
I0
I0
I0
I0
I0
I0
I0
I0
I0
I0
I0
I0
I0
I0
I0
I0
I0
I0
I0
I0
I0
I0
I0
I0
I0
I0
I0
I0
I0
I0
I0
I0
I0
I0
I0
I0
I0
I0
I0
I0
I0
I0
I0
I0
tp886
g2
tp887
g4
(g8
S':z\x1e\xe3\xa4r\x00@'
p888
tp889
Rp890
s((I0
I0
I0
I1
I1
I1
I1
I1
I1
I1
I1
I1
I1
I1
I1
I1
I1
I1
I1
I1
I1
I1
I1
I1
I1
I1
I1
I1
I1
I1
I1
I1
I1
I1
I1
I1
I1
I1
I1
I1
I1
I1
I1
I1
I1
I0
I0
I0
I0
I0
I0
I0
I0
I0
I0
I0
I0
I0
I0
I0
I0
I0
I0
I0
I0
I0
I0
I0
I0
I0
I0
I0
I0
I0
I0
I0
I0
I0
I0
I0
I0
I0
I0
I0
I0
I0
I0
I0
I0
I0
I0
I0
I0
I0
I0
I0
I0
I0
I0
I0
I0
I0
I0
I0
tp891
g54
tp892
g4
(g8
S'\x91\x94\nL\xcb\x11\xff?'
p893
tp894
Rp895
s((I0
I1
I0
I0
I1
I1
I1
I1
I1
I1
I1
I1
I1
I1
I0
I0
I0
I0
I0
I0
I0
I0
I0
I0
I0
I0
I0
I0
I0
I0
I0
I0
I0
I0
I0
I0
I0
I0
I0
I0
I0
I0
I0
I0
I0
I0
I0
I0
I0
I0
I0
I0
I0
I0
I0
I0
I0
I0
I0
I0
I0
I0
I0
I0
I0
I0
I0
I0
I0
I0
I0
I0
I0
I0
I0
I0
I0
I0
I0
I0
I0
I0
I0
I0
I0
I0
I0
I0
I0
I0
I0
I0
I0
I0
I0
I0
I0
I0
I0
I0
I0
I0
I0
I0
tp896
g15
tp897
g4
(g8
S'\xe2w)\xfd\xbdC\xe0?'
p898
tp899
Rp900
s((I1
I0
I0
I0
I1
I1
I1
I1
I1
I1
I1
I1
I1
I1
I1
I1
I1
I1
I1
I1
I1
I1
I1
I0
I0
I0
I0
I0
I0
I0
I0
I0
I0
I0
I0
I0
I0
I0
I0
I0
I0
I0
I0
I0
I0
I0
I0
I0
I0
I0
I0
I0
I0
I0
I0
I0
I0
I0
I0
I0
I0
I0
I0
I0
I0
I0
I0
I0
I0
I0
I0
I0
I0
I0
I0
I0
I0
I0
I0
I0
I0
I0
I0
I0
I0
I0
I0
I0
I0
I0
I0
I0
I0
I0
I0
I0
I0
I0
I0
I0
I0
I0
I0
I0
tp901
g206
tp902
g4
(g8
S'\xe4Ux\xbe\xa0[\xd5?'
p903
tp904
Rp905
s((I0
I1
I0
I0
I1
I1
I1
I1
I1
I1
I1
I1
I1
I1
I1
I0
I0
I0
I0
I0
I0
I0
I0
I0
I0
I0
I0
I0
I0
I0
I0
I0
I0
I0
I0
I0
I0
I0
I0
I0
I0
I0
I0
I0
I0
I0
I0
I0
I0
I0
I0
I0
I0
I0
I0
I0
I0
I0
I0
I0
I0
I0
I0
I0
I0
I0
I0
I0
I0
I0
I0
I0
I0
I0
I0
I0
I0
I0
I0
I0
I0
I0
I0
I0
I0
I0
I0
I0
I0
I0
I0
I0
I0
I0
I0
I0
I0
I0
I0
I0
I0
I0
I0
I0
tp906
g48
tp907
g4
(g8
S'\xd7"\n`t{\xca?'
p908
tp909
Rp910
s((I0
I0
I1
I0
I1
I1
I1
I1
I1
I1
I0
I0
I0
I0
I0
I0
I0
I0
I0
I0
I0
I0
I0
I0
I0
I0
I0
I0
I0
I0
I0
I0
I0
I0
I0
I0
I0
I0
I0
I0
I0
I0
I0
I0
I0
I0
I0
I0
I0
I0
I0
I0
I0
I0
I0
I0
I0
I0
I0
I0
I0
I0
I0
I0
I0
I0
I0
I0
I0
I0
I0
I0
I0
I0
I0
I0
I0
I0
I0
I0
I0
I0
I0
I0
I0
I0
I0
I0
I0
I0
I0
I0
I0
I0
I0
I0
I0
I0
I0
I0
I0
I0
I0
I0
tp911
g2
tp912
g4
(g8
S'\x98o\x11\xf2ZZ\xfa?'
p913
tp914
Rp915
s((I0
I0
I1
I0
I1
I1
I1
I1
I1
I1
I1
I1
I1
I1
I1
I1
I1
I1
I1
I1
I1
I1
I1
I1
I1
I1
I1
I1
I1
I1
I1
I1
I1
I1
I0
I0
I0
I0
I0
I0
I0
I0
I0
I0
I0
I0
I0
I0
I0
I0
I0
I0
I0
I0
I0
I0
I0
I0
I0
I0
I0
I0
I0
I0
I0
I0
I0
I0
I0
I0
I0
I0
I0
I0
I0
I0
I0
I0
I0
I0
I0
I0
I0
I0
I0
I0
I0
I0
I0
I0
I0
I0
I0
I0
I0
I0
I0
I0
I0
I0
I0
I0
I0
I0
tp916
g42
tp917
g4
(g8
S'\xfcS\x15;\x8df\xfc?'
p918
tp919
Rp920
s((I0
I0
I0
I1
I1
I1
I1
I1
I1
I1
I1
I1
I1
I1
I1
I1
I1
I1
I1
I1
I1
I1
I1
I1
I1
I1
I1
I1
I1
I1
I1
I1
I1
I1
I1
I1
I1
I1
I1
I1
I1
I1
I1
I1
I1
I1
I1
I1
I1
I1
I1
I1
I1
I1
I1
I1
I1
I1
I1
I1
I1
I1
I1
I1
I1
I1
I1
I1
I1
I0
I0
I0
I0
I0
I0
I0
I0
I0
I0
I0
I0
I0
I0
I0
I0
I0
I0
I0
I0
I0
I0
I0
I0
I0
I0
I0
I0
I0
I0
I0
I0
I0
I0
I0
tp921
g54
tp922
g4
(g8
S'\xd6\xd0\xb4\xfaGw\xfe?'
p923
tp924
Rp925
s((I0
I0
I0
I1
I1
I1
I1
I1
I1
I1
I1
I1
I1
I1
I1
I1
I1
I1
I1
I1
I1
I1
I1
I1
I1
I1
I1
I1
I1
I1
I1
I1
I1
I1
I1
I1
I1
I1
I1
I1
I1
I1
I1
I1
I1
I1
I1
I1
I1
I1
I1
I1
I1
I1
I1
I1
I1
I1
I1
I1
I1
I1
I1
I1
I1
I1
I1
I1
I1
I1
I1
I1
I1
I1
I1
I1
I1
I1
I1
I1
I1
I1
I1
I1
I1
I1
I1
I1
I1
I1
I1
I1
I1
I1
I1
I1
I0
I0
I0
I0
I0
I0
I0
I0
tp926
g54
tp927
g4
(g8
S'N-\xeb\x8c\x18\xc2\xf0?'
p928
tp929
Rp930
s((I0
I0
I1
I0
I1
I1
I1
I1
I1
I1
I1
I1
I1
I1
I1
I1
I1
I1
I1
I1
I1
I1
I1
I1
I1
I1
I1
I1
I1
I1
I1
I1
I1
I1
I1
I1
I1
I1
I1
I1
I1
I1
I1
I1
I1
I1
I1
I1
I1
I1
I1
I1
I1
I1
I1
I1
I1
I1
I1
I1
I1
I1
I1
I1
I1
I1
I1
I1
I1
I1
I1
I1
I1
I1
I1
I1
I1
I1
I1
I1
I1
I1
I1
I1
I1
I1
I1
I1
I0
I0
I0
I0
I0
I0
I0
I0
I0
I0
I0
I0
I0
I0
I0
I0
tp931
g42
tp932
g4
(g8
S'\x0f\xc0\xbfj%t\x9f\xbf'
p933
tp934
Rp935
s((I0
I0
I1
I0
I1
I1
I1
I1
I1
I1
I1
I1
I1
I1
I1
I1
I1
I1
I1
I1
I1
I1
I1
I1
I1
I1
I1
I1
I1
I1
I1
I1
I1
I1
I1
I1
I1
I1
I1
I1
I1
I1
I1
I1
I1
I1
I1
I1
I1
I1
I1
I1
I1
I1
I1
I1
I1
I1
I1
I1
I1
I1
I1
I1
I1
I1
I1
I1
I1
I1
I1
I1
I1
I1
I1
I1
I1
I1
I1
I1
I1
I1
I1
I1
I1
I1
I1
I1
I1
I1
I0
I0
I0
I0
I0
I0
I0
I0
I0
I0
I0
I0
I0
I0
tp936
g2
tp937
g4
(g8
S'(\xaeE\x1b\xfb\xd6\xb6?'
p938
tp939
Rp940
s((I0
I0
I1
I0
I1
I1
I1
I1
I1
I1
I1
I1
I1
I1
I1
I1
I1
I1
I1
I1
I1
I1
I1
I1
I1
I1
I1
I1
I1
I1
I1
I1
I1
I1
I1
I1
I1
I1
I1
I1
I1
I1
I1
I1
I1
I1
I1
I1
I1
I1
I1
I1
I1
I1
I1
I1
I1
I1
I1
I1
I1
I1
I1
I1
I1
I1
I1
I1
I1
I1
I1
I1
I1
I1
I1
I1
I1
I1
I1
I1
I1
I1
I1
I1
I1
I1
I1
I1
I1
I0
I0
I0
I0
I0
I0
I0
I0
I0
I0
I0
I0
I0
I0
I0
tp941
g2
tp942
g4
(g8
S'}1\xc9\x97c\xd0\xe8?'
p943
tp944
Rp945
s((I0
I0
I0
I1
I1
I1
I1
I1
I1
I1
I1
I1
I1
I1
I1
I1
I1
I1
I1
I1
I1
I1
I1
I1
I1
I1
I1
I1
I1
I1
I1
I1
I1
I1
I1
I1
I1
I1
I1
I1
I1
I1
I1
I1
I1
I1
I1
I1
I0
I0
I0
I0
I0
I0
I0
I0
I0
I0
I0
I0
I0
I0
I0
I0
I0
I0
I0
I0
I0
I0
I0
I0
I0
I0
I0
I0
I0
I0
I0
I0
I0
I0
I0
I0
I0
I0
I0
I0
I0
I0
I0
I0
I0
I0
I0
I0
I0
I0
I0
I0
I0
I0
I0
I0
tp946
g54
tp947
g4
(g8
S'.lk^\x13\x1a\xfd?'
p948
tp949
Rp950
s((I0
I0
I1
I0
I1
I1
I1
I1
I1
I1
I1
I1
I1
I1
I1
I1
I1
I1
I1
I1
I1
I1
I1
I1
I1
I1
I1
I1
I1
I1
I1
I1
I0
I0
I0
I0
I0
I0
I0
I0
I0
I0
I0
I0
I0
I0
I0
I0
I0
I0
I0
I0
I0
I0
I0
I0
I0
I0
I0
I0
I0
I0
I0
I0
I0
I0
I0
I0
I0
I0
I0
I0
I0
I0
I0
I0
I0
I0
I0
I0
I0
I0
I0
I0
I0
I0
I0
I0
I0
I0
I0
I0
I0
I0
I0
I0
I0
I0
I0
I0
I0
I0
I0
I0
tp951
g2
tp952
g4
(g8
S'\xd1\xeeP&\x06\x90\x02@'
p953
tp954
Rp955
s((I0
I1
I0
I0
I1
I1
I1
I1
I1
I1
I1
I1
I1
I1
I1
I1
I1
I1
I1
I1
I1
I1
I1
I1
I1
I1
I1
I1
I1
I1
I1
I0
I0
I0
I0
I0
I0
I0
I0
I0
I0
I0
I0
I0
I0
I0
I0
I0
I0
I0
I0
I0
I0
I0
I0
I0
I0
I0
I0
I0
I0
I0
I0
I0
I0
I0
I0
I0
I0
I0
I0
I0
I0
I0
I0
I0
I0
I0
I0
I0
I0
I0
I0
I0
I0
I0
I0
I0
I0
I0
I0
I0
I0
I0
I0
I0
I0
I0
I0
I0
I0
I0
I0
I0
tp956
g15
tp957
g4
(g8
S')\xd7\xd6\xe0\x12T\xe2?'
p958
tp959
Rp960
s((I1
I0
I0
I0
I1
I1
I1
I1
I1
I1
I1
I1
I1
I1
I1
I1
I1
I1
I1
I0
I0
I0
I0
I0
I0
I0
I0
I0
I0
I0
I0
I0
I0
I0
I0
I0
I0
I0
I0
I0
I0
I0
I0
I0
I0
I0
I0
I0
I0
I0
I0
I0
I0
I0
I0
I0
I0
I0
I0
I0
I0
I0
I0
I0
I0
I0
I0
I0
I0
I0
I0
I0
I0
I0
I0
I0
I0
I0
I0
I0
I0
I0
I0
I0
I0
I0
I0
I0
I0
I0
I0
I0
I0
I0
I0
I0
I0
I0
I0
I0
I0
I0
I0
I0
tp961
g21
tp962
g4
(g8
S's]\xcb\xff0^\xdf?'
p963
tp964
Rp965
s((I0
I0
I0
I1
I1
I1
I1
I1
I1
I1
I1
I1
I1
I1
I1
I1
I1
I1
I1
I1
I1
I1
I1
I1
I1
I1
I1
I1
I1
I1
I1
I0
I0
I0
I0
I0
I0
I0
I0
I0
I0
I0
I0
I0
I0
I0
I0
I0
I0
I0
I0
I0
I0
I0
I0
I0
I0
I0
I0
I0
I0
I0
I0
I0
I0
I0
I0
I0
I0
I0
I0
I0
I0
I0
I0
I0
I0
I0
I0
I0
I0
I0
I0
I0
I0
I0
I0
I0
I0
I0
I0
I0
I0
I0
I0
I0
I0
I0
I0
I0
I0
I0
I0
I0
tp966
g54
tp967
g4
(g8
S'\xf9\xf2^\xe4\x9d\xc8\xfa?'
p968
tp969
Rp970
s((I1
I0
I0
I0
I1
I1
I1
I1
I1
I1
I1
I1
I1
I1
I1
I0
I0
I0
I0
I0
I0
I0
I0
I0
I0
I0
I0
I0
I0
I0
I0
I0
I0
I0
I0
I0
I0
I0
I0
I0
I0
I0
I0
I0
I0
I0
I0
I0
I0
I0
I0
I0
I0
I0
I0
I0
I0
I0
I0
I0
I0
I0
I0
I0
I0
I0
I0
I0
I0
I0
I0
I0
I0
I0
I0
I0
I0
I0
I0
I0
I0
I0
I0
I0
I0
I0
I0
I0
I0
I0
I0
I0
I0
I0
I0
I0
I0
I0
I0
I0
I0
I0
I0
I0
tp971
g206
tp972
g4
(g8
S'.b{C\xd0\xa3\xcf?'
p973
tp974
Rp975
s((I0
I1
I0
I0
I1
I1
I1
I1
I1
I1
I1
I1
I1
I1
I1
I1
I1
I1
I1
I1
I1
I1
I1
I1
I1
I1
I0
I0
I0
I0
I0
I0
I0
I0
I0
I0
I0
I0
I0
I0
I0
I0
I0
I0
I0
I0
I0
I0
I0
I0
I0
I0
I0
I0
I0
I0
I0
I0
I0
I0
I0
I0
I0
I0
I0
I0
I0
I0
I0
I0
I0
I0
I0
I0
I0
I0
I0
I0
I0
I0
I0
I0
I0
I0
I0
I0
I0
I0
I0
I0
I0
I0
I0
I0
I0
I0
I0
I0
I0
I0
I0
I0
I0
I0
tp976
g15
tp977
g4
(g8
S'l\x9fu\x13%\xbd\xed?'
p978
tp979
Rp980
s((I1
I0
I0
I0
I1
I1
I1
I1
I1
I1
I1
I1
I1
I0
I0
I0
I0
I0
I0
I0
I0
I0
I0
I0
I0
I0
I0
I0
I0
I0
I0
I0
I0
I0
I0
I0
I0
I0
I0
I0
I0
I0
I0
I0
I0
I0
I0
I0
I0
I0
I0
I0
I0
I0
I0
I0
I0
I0
I0
I0
I0
I0
I0
I0
I0
I0
I0
I0
I0
I0
I0
I0
I0
I0
I0
I0
I0
I0
I0
I0
I0
I0
I0
I0
I0
I0
I0
I0
I0
I0
I0
I0
I0
I0
I0
I0
I0
I0
I0
I0
I0
I0
I0
I0
tp981
g206
tp982
g4
(g8
S"5'\xb0\xedi\x06\xf1?"
p983
tp984
Rp985
s((I0
I1
I0
I0
I1
I1
I1
I1
I1
I1
I1
I1
I1
I1
I1
I1
I1
I1
I1
I1
I1
I1
I1
I1
I1
I1
I1
I1
I1
I1
I1
I1
I0
I0
I0
I0
I0
I0
I0
I0
I0
I0
I0
I0
I0
I0
I0
I0
I0
I0
I0
I0
I0
I0
I0
I0
I0
I0
I0
I0
I0
I0
I0
I0
I0
I0
I0
I0
I0
I0
I0
I0
I0
I0
I0
I0
I0
I0
I0
I0
I0
I0
I0
I0
I0
I0
I0
I0
I0
I0
I0
I0
I0
I0
I0
I0
I0
I0
I0
I0
I0
I0
I0
I0
tp986
g48
tp987
g4
(g8
S'&\x0by\xef\x1aK\xdb?'
p988
tp989
Rp990
s((I0
I0
I0
I1
I1
I1
I1
I1
I1
I1
I1
I1
I1
I1
I1
I1
I1
I1
I1
I1
I1
I1
I1
I1
I1
I1
I0
I0
I0
I0
I0
I0
I0
I0
I0
I0
I0
I0
I0
I0
I0
I0
I0
I0
I0
I0
I0
I0
I0
I0
I0
I0
I0
I0
I0
I0
I0
I0
I0
I0
I0
I0
I0
I0
I0
I0
I0
I0
I0
I0
I0
I0
I0
I0
I0
I0
I0
I0
I0
I0
I0
I0
I0
I0
I0
I0
I0
I0
I0
I0
I0
I0
I0
I0
I0
I0
I0
I0
I0
I0
I0
I0
I0
I0
tp991
g54
tp992
g4
(g8
S'\x85\xb3\xeb\x98\x91\x1f\xf8?'
p993
tp994
Rp995
s((I0
I0
I0
I1
I1
I1
I1
I1
I1
I1
I1
I1
I1
I1
I1
I0
I0
I0
I0
I0
I0
I0
I0
I0
I0
I0
I0
I0
I0
I0
I0
I0
I0
I0
I0
I0
I0
I0
I0
I0
I0
I0
I0
I0
I0
I0
I0
I0
I0
I0
I0
I0
I0
I0
I0
I0
I0
I0
I0
I0
I0
I0
I0
I0
I0
I0
I0
I0
I0
I0
I0
I0
I0
I0
I0
I0
I0
I0
I0
I0
I0
I0
I0
I0
I0
I0
I0
I0
I0
I0
I0
I0
I0
I0
I0
I0
I0
I0
I0
I0
I0
I0
I0
I0
tp996
g54
tp997
g4
(g8
S'%W\xfd@\xcc\xde\xdc?'
p998
tp999
Rp1000
s((I0
I1
I0
I0
I1
I1
I1
I1
I1
I1
I1
I1
I1
I1
I1
I1
I1
I1
I1
I1
I1
I1
I1
I1
I1
I1
I1
I1
I1
I1
I1
I1
I1
I1
I1
I1
I1
I1
I1
I1
I1
I1
I1
I1
I1
I1
I1
I1
I1
I1
I1
I1
I1
I1
I1
I1
I1
I1
I1
I1
I1
I1
I1
I1
I1
I1
I1
I1
I1
I1
I0
I0
I0
I0
I0
I0
I0
I0
I0
I0
I0
I0
I0
I0
I0
I0
I0
I0
I0
I0
I0
I0
I0
I0
I0
I0
I0
I0
I0
I0
I0
I0
I0
I0
tp1001
g15
tp1002
g4
(g8
S'\x03C\xed\xa5\x0b~\xec?'
p1003
tp1004
Rp1005
s((I0
I0
I1
I0
I1
I1
I1
I1
I1
I1
I1
I1
I1
I1
I1
I1
I1
I1
I1
I1
I1
I1
I1
I1
I1
I1
I1
I1
I1
I1
I1
I0
I0
I0
I0
I0
I0
I0
I0
I0
I0
I0
I0
I0
I0
I0
I0
I0
I0
I0
I0
I0
I0
I0
I0
I0
I0
I0
I0
I0
I0
I0
I0
I0
I0
I0
I0
I0
I0
I0
I0
I0
I0
I0
I0
I0
I0
I0
I0
I0
I0
I0
I0
I0
I0
I0
I0
I0
I0
I0
I0
I0
I0
I0
I0
I0
I0
I0
I0
I0
I0
I0
I0
I0
tp1006
g42
tp1007
g4
(g8
S'\x88]0\xbf\xc0\xa2\xfc?'
p1008
tp1009
Rp1010
s((I0
I0
I1
I0
I1
I1
I1
I1
I1
I1
I1
I1
I1
I1
I1
I1
I1
I1
I1
I1
I1
I1
I1
I1
I1
I1
I1
I1
I1
I1
I1
I1
I1
I1
I1
I1
I1
I1
I1
I1
I1
I1
I1
I1
I1
I1
I1
I1
I1
I1
I1
I1
I1
I1
I1
I1
I1
I1
I1
I1
I1
I1
I1
I1
I1
I1
I1
I1
I1
I1
I1
I1
I1
I1
I1
I1
I1
I1
I1
I1
I1
I1
I1
I1
I1
I0
I0
I0
I0
I0
I0
I0
I0
I0
I0
I0
I0
I0
I0
I0
I0
I0
I0
I0
tp1011
g2
tp1012
g4
(g8
S'\xedF\xe4\xd7\xe4J\xb1?'
p1013
tp1014
Rp1015
s((I1
I0
I0
I0
I0
I0
I0
I0
I0
I0
I0
I0
I0
I0
I0
I0
I0
I0
I0
I0
I0
I0
I0
I0
I0
I0
I0
I0
I0
I0
I0
I0
I0
I0
I0
I0
I0
I0
I0
I0
I0
I0
I0
I0
I0
I0
I0
I0
I0
I0
I0
I0
I0
I0
I0
I0
I0
I0
I0
I0
I0
I0
I0
I0
I0
I0
I0
I0
I0
I0
I0
I0
I0
I0
I0
I0
I0
I0
I0
I0
I0
I0
I0
I0
I0
I0
I0
I0
I0
I0
I0
I0
I0
I0
I0
I0
I0
I0
I0
I0
I0
I0
I0
I0
tp1016
g21
tp1017
g4
(g8
S'\xd1N3\xad\xaf\xca\xf7?'
p1018
tp1019
Rp1020
s((I0
I0
I0
I1
I1
I1
I1
I1
I1
I1
I1
I1
I1
I1
I1
I1
I1
I1
I1
I1
I1
I1
I1
I1
I1
I1
I1
I1
I1
I1
I1
I1
I1
I1
I1
I1
I1
I1
I1
I1
I1
I1
I1
I1
I1
I1
I1
I1
I1
I1
I1
I1
I1
I1
I1
I1
I1
I1
I1
I1
I1
I1
I1
I1
I1
I1
I1
I1
I1
I1
I1
I1
I1
I1
I1
I1
I1
I1
I1
I1
I1
I1
I1
I1
I1
I1
I1
I0
I0
I0
I0
I0
I0
I0
I0
I0
I0
I0
I0
I0
I0
I0
I0
I0
tp1021
g54
tp1022
g4
(g8
S'-\xc4\x8dg\x83\xd3\xf7?'
p1023
tp1024
Rp1025
s((I1
I0
I0
I0
I1
I1
I1
I1
I1
I1
I1
I1
I1
I1
I1
I1
I1
I1
I1
I1
I1
I1
I1
I1
I1
I1
I1
I1
I1
I0
I0
I0
I0
I0
I0
I0
I0
I0
I0
I0
I0
I0
I0
I0
I0
I0
I0
I0
I0
I0
I0
I0
I0
I0
I0
I0
I0
I0
I0
I0
I0
I0
I0
I0
I0
I0
I0
I0
I0
I0
I0
I0
I0
I0
I0
I0
I0
I0
I0
I0
I0
I0
I0
I0
I0
I0
I0
I0
I0
I0
I0
I0
I0
I0
I0
I0
I0
I0
I0
I0
I0
I0
I0
I0
tp1026
g21
tp1027
g4
(g8
S'\xa4\xbb\x81*\xd5\xac\xd6?'
p1028
tp1029
Rp1030
s((I0
I0
I0
I1
I1
I1
I1
I1
I1
I1
I1
I1
I1
I1
I1
I1
I1
I1
I1
I1
I1
I1
I1
I1
I1
I1
I1
I1
I1
I1
I1
I1
I1
I1
I1
I0
I0
I0
I0
I0
I0
I0
I0
I0
I0
I0
I0
I0
I0
I0
I0
I0
I0
I0
I0
I0
I0
I0
I0
I0
I0
I0
I0
I0
I0
I0
I0
I0
I0
I0
I0
I0
I0
I0
I0
I0
I0
I0
I0
I0
I0
I0
I0
I0
I0
I0
I0
I0
I0
I0
I0
I0
I0
I0
I0
I0
I0
I0
I0
I0
I0
I0
I0
I0
tp1031
g54
tp1032
g4
(g8
S'\xebidF\xbd\xf9\xf9?'
p1033
tp1034
Rp1035
s((I0
I0
I1
I0
I1
I1
I1
I1
I1
I1
I1
I1
I1
I1
I0
I0
I0
I0
I0
I0
I0
I0
I0
I0
I0
I0
I0
I0
I0
I0
I0
I0
I0
I0
I0
I0
I0
I0
I0
I0
I0
I0
I0
I0
I0
I0
I0
I0
I0
I0
I0
I0
I0
I0
I0
I0
I0
I0
I0
I0
I0
I0
I0
I0
I0
I0
I0
I0
I0
I0
I0
I0
I0
I0
I0
I0
I0
I0
I0
I0
I0
I0
I0
I0
I0
I0
I0
I0
I0
I0
I0
I0
I0
I0
I0
I0
I0
I0
I0
I0
I0
I0
I0
I0
tp1036
g42
tp1037
g4
(g8
S'\xd4\x84\xc0\xed\x8bU\xf5?'
p1038
tp1039
Rp1040
s((I0
I0
I1
I0
I1
I1
I1
I1
I1
I1
I1
I1
I1
I1
I1
I1
I1
I1
I1
I1
I1
I1
I1
I1
I1
I1
I1
I1
I1
I1
I1
I1
I1
I1
I1
I1
I1
I1
I1
I1
I1
I1
I1
I1
I1
I1
I1
I1
I1
I1
I1
I1
I1
I1
I1
I1
I1
I1
I1
I1
I0
I0
I0
I0
I0
I0
I0
I0
I0
I0
I0
I0
I0
I0
I0
I0
I0
I0
I0
I0
I0
I0
I0
I0
I0
I0
I0
I0
I0
I0
I0
I0
I0
I0
I0
I0
I0
I0
I0
I0
I0
I0
I0
I0
tp1041
g42
tp1042
g4
(g8
S' \xaci@\xa4!\xea?'
p1043
tp1044
Rp1045
s((I0
I0
I1
I0
I1
I1
I1
I1
I1
I1
I1
I1
I1
I1
I1
I1
I1
I1
I1
I1
I1
I1
I1
I1
I1
I1
I1
I1
I1
I1
I1
I1
I1
I1
I1
I1
I1
I1
I1
I1
I1
I1
I1
I1
I0
I0
I0
I0
I0
I0
I0
I0
I0
I0
I0
I0
I0
I0
I0
I0
I0
I0
I0
I0
I0
I0
I0
I0
I0
I0
I0
I0
I0
I0
I0
I0
I0
I0
I0
I0
I0
I0
I0
I0
I0
I0
I0
I0
I0
I0
I0
I0
I0
I0
I0
I0
I0
I0
I0
I0
I0
I0
I0
I0
tp1046
g2
tp1047
g4
(g8
S'\x17\xb3\xa2\x02Yl\x01@'
p1048
tp1049
Rp1050
s((I0
I1
I0
I0
I1
I1
I1
I1
I1
I1
I1
I1
I1
I1
I1
I1
I1
I1
I1
I1
I1
I1
I1
I1
I1
I1
I1
I1
I1
I1
I1
I1
I1
I1
I1
I0
I0
I0
I0
I0
I0
I0
I0
I0
I0
I0
I0
I0
I0
I0
I0
I0
I0
I0
I0
I0
I0
I0
I0
I0
I0
I0
I0
I0
I0
I0
I0
I0
I0
I0
I0
I0
I0
I0
I0
I0
I0
I0
I0
I0
I0
I0
I0
I0
I0
I0
I0
I0
I0
I0
I0
I0
I0
I0
I0
I0
I0
I0
I0
I0
I0
I0
I0
I0
tp1051
g15
tp1052
g4
(g8
S'"\x98\xcf\xf6\xd0\x8c\xe0?'
p1053
tp1054
Rp1055
s((I0
I1
I0
I0
I1
I1
I1
I1
I1
I1
I1
I1
I1
I1
I1
I1
I0
I0
I0
I0
I0
I0
I0
I0
I0
I0
I0
I0
I0
I0
I0
I0
I0
I0
I0
I0
I0
I0
I0
I0
I0
I0
I0
I0
I0
I0
I0
I0
I0
I0
I0
I0
I0
I0
I0
I0
I0
I0
I0
I0
I0
I0
I0
I0
I0
I0
I0
I0
I0
I0
I0
I0
I0
I0
I0
I0
I0
I0
I0
I0
I0
I0
I0
I0
I0
I0
I0
I0
I0
I0
I0
I0
I0
I0
I0
I0
I0
I0
I0
I0
I0
I0
I0
I0
tp1056
g48
tp1057
g4
(g8
S'*\x81\xa2\xdf\x13\xc8\xcb?'
p1058
tp1059
Rp1060
s((I0
I1
I0
I0
I1
I1
I1
I1
I1
I1
I1
I1
I1
I1
I1
I1
I1
I1
I1
I1
I1
I1
I1
I1
I1
I1
I1
I1
I1
I1
I1
I1
I1
I1
I1
I1
I1
I1
I1
I1
I1
I1
I1
I1
I0
I0
I0
I0
I0
I0
I0
I0
I0
I0
I0
I0
I0
I0
I0
I0
I0
I0
I0
I0
I0
I0
I0
I0
I0
I0
I0
I0
I0
I0
I0
I0
I0
I0
I0
I0
I0
I0
I0
I0
I0
I0
I0
I0
I0
I0
I0
I0
I0
I0
I0
I0
I0
I0
I0
I0
I0
I0
I0
I0
tp1061
g48
tp1062
g4
(g8
S'1L_(\xdf\xf3\xd2?'
p1063
tp1064
Rp1065
s((I0
I0
I0
I1
I1
I1
I1
I1
I1
I1
I1
I1
I1
I1
I1
I1
I1
I1
I1
I1
I1
I1
I1
I1
I1
I1
I1
I1
I1
I1
I1
I1
I1
I1
I1
I1
I1
I1
I1
I1
I1
I1
I1
I1
I1
I1
I1
I1
I1
I1
I1
I1
I1
I1
I1
I1
I1
I1
I1
I1
I1
I1
I1
I1
I1
I1
I1
I1
I1
I1
I1
I1
I1
I1
I1
I1
I1
I1
I1
I1
I1
I1
I1
I1
I1
I1
I1
I1
I1
I1
I1
I1
I1
I1
I1
I0
I0
I0
I0
I0
I0
I0
I0
I0
tp1066
g54
tp1067
g4
(g8
S'FQ\xf5\x03\x8b\xc4\xf3?'
p1068
tp1069
Rp1070
s((I1
I0
I0
I0
I1
I1
I1
I1
I1
I1
I1
I1
I1
I1
I1
I1
I1
I1
I1
I1
I1
I1
I1
I1
I1
I1
I0
I0
I0
I0
I0
I0
I0
I0
I0
I0
I0
I0
I0
I0
I0
I0
I0
I0
I0
I0
I0
I0
I0
I0
I0
I0
I0
I0
I0
I0
I0
I0
I0
I0
I0
I0
I0
I0
I0
I0
I0
I0
I0
I0
I0
I0
I0
I0
I0
I0
I0
I0
I0
I0
I0
I0
I0
I0
I0
I0
I0
I0
I0
I0
I0
I0
I0
I0
I0
I0
I0
I0
I0
I0
I0
I0
I0
I0
tp1071
g155
tp1072
g4
(g8
S'w\x0171<O\x00@'
p1073
tp1074
Rp1075
s((I0
I1
I0
I0
I1
I1
I1
I1
I1
I1
I1
I1
I1
I1
I1
I1
I1
I1
I1
I1
I1
I1
I1
I1
I1
I1
I1
I1
I1
I1
I1
I1
I1
I1
I1
I1
I1
I1
I1
I1
I1
I1
I1
I1
I1
I1
I1
I1
I1
I1
I1
I1
I1
I1
I0
I0
I0
I0
I0
I0
I0
I0
I0
I0
I0
I0
I0
I0
I0
I0
I0
I0
I0
I0
I0
I0
I0
I0
I0
I0
I0
I0
I0
I0
I0
I0
I0
I0
I0
I0
I0
I0
I0
I0
I0
I0
I0
I0
I0
I0
I0
I0
I0
I0
tp1076
g15
tp1077
g4
(g8
S'\xfb\xbaBp\x8d]\xeb?'
p1078
tp1079
Rp1080
s((I0
I0
I1
I0
I1
I1
I1
I1
I1
I1
I1
I1
I1
I1
I1
I1
I1
I1
I1
I1
I1
I0
I0
I0
I0
I0
I0
I0
I0
I0
I0
I0
I0
I0
I0
I0
I0
I0
I0
I0
I0
I0
I0
I0
I0
I0
I0
I0
I0
I0
I0
I0
I0
I0
I0
I0
I0
I0
I0
I0
I0
I0
I0
I0
I0
I0
I0
I0
I0
I0
I0
I0
I0
I0
I0
I0
I0
I0
I0
I0
I0
I0
I0
I0
I0
I0
I0
I0
I0
I0
I0
I0
I0
I0
I0
I0
I0
I0
I0
I0
I0
I0
I0
I0
tp1081
g42
tp1082
g4
(g8
S'F\xf4U\x82\xb6\xc7\xf8?'
p1083
tp1084
Rp1085
s((I0
I1
I0
I0
I1
I1
I1
I1
I1
I1
I1
I1
I1
I1
I1
I1
I1
I1
I1
I1
I1
I0
I0
I0
I0
I0
I0
I0
I0
I0
I0
I0
I0
I0
I0
I0
I0
I0
I0
I0
I0
I0
I0
I0
I0
I0
I0
I0
I0
I0
I0
I0
I0
I0
I0
I0
I0
I0
I0
I0
I0
I0
I0
I0
I0
I0
I0
I0
I0
I0
I0
I0
I0
I0
I0
I0
I0
I0
I0
I0
I0
I0
I0
I0
I0
I0
I0
I0
I0
I0
I0
I0
I0
I0
I0
I0
I0
I0
I0
I0
I0
I0
I0
I0
tp1086
g48
tp1087
g4
(g8
S'\x82\x96\x02\x02Qf\xcb?'
p1088
tp1089
Rp1090
s((I1
I0
I0
I0
I1
I1
I1
I1
I1
I1
I0
I0
I0
I0
I0
I0
I0
I0
I0
I0
I0
I0
I0
I0
I0
I0
I0
I0
I0
I0
I0
I0
I0
I0
I0
I0
I0
I0
I0
I0
I0
I0
I0
I0
I0
I0
I0
I0
I0
I0
I0
I0
I0
I0
I0
I0
I0
I0
I0
I0
I0
I0
I0
I0
I0
I0
I0
I0
I0
I0
I0
I0
I0
I0
I0
I0
I0
I0
I0
I0
I0
I0
I0
I0
I0
I0
I0
I0
I0
I0
I0
I0
I0
I0
I0
I0
I0
I0
I0
I0
I0
I0
I0
I0
tp1091
g206
tp1092
g4
(g8
S'\xddY@0\xc6\xb9\xe6?'
p1093
tp1094
Rp1095
s((I0
I1
I0
I0
I1
I1
I1
I1
I1
I1
I1
I1
I1
I1
I1
I1
I1
I1
I1
I1
I1
I1
I1
I1
I1
I1
I1
I1
I1
I1
I1
I1
I1
I1
I1
I1
I1
I1
I1
I1
I1
I1
I1
I1
I1
I1
I1
I1
I1
I1
I1
I1
I1
I1
I1
I1
I1
I1
I1
I1
I1
I0
I0
I0
I0
I0
I0
I0
I0
I0
I0
I0
I0
I0
I0
I0
I0
I0
I0
I0
I0
I0
I0
I0
I0
I0
I0
I0
I0
I0
I0
I0
I0
I0
I0
I0
I0
I0
I0
I0
I0
I0
I0
I0
tp1096
g48
tp1097
g4
(g8
S'zZ\x9d\xe62z\xe9?'
p1098
tp1099
Rp1100
s((I0
I1
I0
I0
I1
I1
I1
I1
I1
I1
I1
I1
I1
I1
I1
I1
I1
I1
I1
I1
I1
I1
I1
I1
I0
I0
I0
I0
I0
I0
I0
I0
I0
I0
I0
I0
I0
I0
I0
I0
I0
I0
I0
I0
I0
I0
I0
I0
I0
I0
I0
I0
I0
I0
I0
I0
I0
I0
I0
I0
I0
I0
I0
I0
I0
I0
I0
I0
I0
I0
I0
I0
I0
I0
I0
I0
I0
I0
I0
I0
I0
I0
I0
I0
I0
I0
I0
I0
I0
I0
I0
I0
I0
I0
I0
I0
I0
I0
I0
I0
I0
I0
I0
I0
tp1101
g15
tp1102
g4
(g8
S'\xa8\x9f\x19Dh\x06\xf9?'
p1103
tp1104
Rp1105
s((I0
I0
I1
I0
I1
I1
I1
I1
I1
I1
I1
I1
I1
I1
I1
I1
I1
I1
I1
I1
I1
I1
I0
I0
I0
I0
I0
I0
I0
I0
I0
I0
I0
I0
I0
I0
I0
I0
I0
I0
I0
I0
I0
I0
I0
I0
I0
I0
I0
I0
I0
I0
I0
I0
I0
I0
I0
I0
I0
I0
I0
I0
I0
I0
I0
I0
I0
I0
I0
I0
I0
I0
I0
I0
I0
I0
I0
I0
I0
I0
I0
I0
I0
I0
I0
I0
I0
I0
I0
I0
I0
I0
I0
I0
I0
I0
I0
I0
I0
I0
I0
I0
I0
I0
tp1106
g42
tp1107
g4
(g8
S'i\xa3\x86\x16\x1a\xc6\xf4?'
p1108
tp1109
Rp1110
s((I0
I0
I0
I1
I1
I1
I1
I1
I1
I1
I1
I1
I1
I1
I1
I1
I1
I1
I1
I1
I1
I1
I1
I1
I1
I1
I1
I1
I1
I1
I1
I1
I1
I1
I1
I1
I1
I1
I1
I1
I1
I1
I1
I1
I1
I1
I1
I1
I1
I1
I1
I1
I1
I1
I1
I1
I1
I1
I1
I1
I1
I1
I1
I1
I1
I1
I1
I1
I1
I1
I1
I1
I1
I1
I1
I1
I0
I0
I0
I0
I0
I0
I0
I0
I0
I0
I0
I0
I0
I0
I0
I0
I0
I0
I0
I0
I0
I0
I0
I0
I0
I0
I0
I0
tp1111
g54
tp1112
g4
(g8
S':r\xdd\x9f\x98\x89\xfe?'
p1113
tp1114
Rp1115
s((I0
I0
I0
I1
I1
I1
I1
I1
I1
I1
I1
I1
I1
I1
I1
I1
I1
I1
I1
I1
I1
I1
I1
I1
I1
I1
I1
I1
I1
I1
I1
I1
I1
I1
I1
I1
I1
I1
I1
I0
I0
I0
I0
I0
I0
I0
I0
I0
I0
I0
I0
I0
I0
I0
I0
I0
I0
I0
I0
I0
I0
I0
I0
I0
I0
I0
I0
I0
I0
I0
I0
I0
I0
I0
I0
I0
I0
I0
I0
I0
I0
I0
I0
I0
I0
I0
I0
I0
I0
I0
I0
I0
I0
I0
I0
I0
I0
I0
I0
I0
I0
I0
I0
I0
tp1116
g54
tp1117
g4
(g8
S'\x04\xa0\xbe\x88W\x8a\xfc?'
p1118
tp1119
Rp1120
s((I0
I0
I1
I0
I1
I1
I1
I1
I1
I1
I1
I1
I1
I1
I1
I1
I1
I1
I1
I1
I1
I1
I1
I1
I1
I1
I1
I1
I1
I1
I1
I1
I1
I0
I0
I0
I0
I0
I0
I0
I0
I0
I0
I0
I0
I0
I0
I0
I0
I0
I0
I0
I0
I0
I0
I0
I0
I0
I0
I0
I0
I0
I0
I0
I0
I0
I0
I0
I0
I0
I0
I0
I0
I0
I0
I0
I0
I0
I0
I0
I0
I0
I0
I0
I0
I0
I0
I0
I0
I0
I0
I0
I0
I0
I0
I0
I0
I0
I0
I0
I0
I0
I0
I0
tp1121
g42
tp1122
g4
(g8
S'\x1eC\xb3\xf4\xe0"\xfb?'
p1123
tp1124
Rp1125
s((I0
I0
I1
I0
I1
I1
I1
I1
I1
I1
I1
I1
I1
I1
I1
I1
I1
I1
I0
I0
I0
I0
I0
I0
I0
I0
I0
I0
I0
I0
I0
I0
I0
I0
I0
I0
I0
I0
I0
I0
I0
I0
I0
I0
I0
I0
I0
I0
I0
I0
I0
I0
I0
I0
I0
I0
I0
I0
I0
I0
I0
I0
I0
I0
I0
I0
I0
I0
I0
I0
I0
I0
I0
I0
I0
I0
I0
I0
I0
I0
I0
I0
I0
I0
I0
I0
I0
I0
I0
I0
I0
I0
I0
I0
I0
I0
I0
I0
I0
I0
I0
I0
I0
I0
tp1126
g42
tp1127
g4
(g8
S'\xbf\x83 \x02\x8eE\xf9?'
p1128
tp1129
Rp1130
s((I0
I0
I1
I0
I1
I1
I1
I1
I1
I1
I1
I1
I1
I1
I1
I1
I1
I1
I1
I1
I1
I1
I1
I1
I1
I1
I1
I1
I0
I0
I0
I0
I0
I0
I0
I0
I0
I0
I0
I0
I0
I0
I0
I0
I0
I0
I0
I0
I0
I0
I0
I0
I0
I0
I0
I0
I0
I0
I0
I0
I0
I0
I0
I0
I0
I0
I0
I0
I0
I0
I0
I0
I0
I0
I0
I0
I0
I0
I0
I0
I0
I0
I0
I0
I0
I0
I0
I0
I0
I0
I0
I0
I0
I0
I0
I0
I0
I0
I0
I0
I0
I0
I0
I0
tp1131
g2
tp1132
g4
(g8
S'\xf4\x87+n\x01\x98\x01@'
p1133
tp1134
Rp1135
s((I1
I0
I0
I0
I1
I1
I1
I1
I1
I1
I1
I1
I1
I1
I1
I1
I1
I1
I1
I1
I1
I1
I1
I1
I1
I1
I0
I0
I0
I0
I0
I0
I0
I0
I0
I0
I0
I0
I0
I0
I0
I0
I0
I0
I0
I0
I0
I0
I0
I0
I0
I0
I0
I0
I0
I0
I0
I0
I0
I0
I0
I0
I0
I0
I0
I0
I0
I0
I0
I0
I0
I0
I0
I0
I0
I0
I0
I0
I0
I0
I0
I0
I0
I0
I0
I0
I0
I0
I0
I0
I0
I0
I0
I0
I0
I0
I0
I0
I0
I0
I0
I0
I0
I0
tp1136
g206
tp1137
g4
(g8
S'?\xc9 \xe5_\x8b\xf0?'
p1138
tp1139
Rp1140
s((I0
I0
I0
I1
I1
I1
I1
I1
I1
I1
I1
I1
I1
I0
I0
I0
I0
I0
I0
I0
I0
I0
I0
I0
I0
I0
I0
I0
I0
I0
I0
I0
I0
I0
I0
I0
I0
I0
I0
I0
I0
I0
I0
I0
I0
I0
I0
I0
I0
I0
I0
I0
I0
I0
I0
I0
I0
I0
I0
I0
I0
I0
I0
I0
I0
I0
I0
I0
I0
I0
I0
I0
I0
I0
I0
I0
I0
I0
I0
I0
I0
I0
I0
I0
I0
I0
I0
I0
I0
I0
I0
I0
I0
I0
I0
I0
I0
I0
I0
I0
I0
I0
I0
I0
tp1141
g54
tp1142
g4
(g8
S'b\x07D\x8a>:\xe6?'
p1143
tp1144
Rp1145
s((I0
I1
I0
I0
I1
I1
I1
I1
I1
I1
I1
I1
I1
I1
I1
I1
I1
I1
I1
I1
I1
I1
I0
I0
I0
I0
I0
I0
I0
I0
I0
I0
I0
I0
I0
I0
I0
I0
I0
I0
I0
I0
I0
I0
I0
I0
I0
I0
I0
I0
I0
I0
I0
I0
I0
I0
I0
I0
I0
I0
I0
I0
I0
I0
I0
I0
I0
I0
I0
I0
I0
I0
I0
I0
I0
I0
I0
I0
I0
I0
I0
I0
I0
I0
I0
I0
I0
I0
I0
I0
I0
I0
I0
I0
I0
I0
I0
I0
I0
I0
I0
I0
I0
I0
tp1146
g48
tp1147
g4
(g8
S'\x9a\xc9o\x8bi\xd0\xd4?'
p1148
tp1149
Rp1150
s((I1
I0
I0
I0
I1
I1
I1
I1
I1
I1
I1
I1
I1
I1
I1
I1
I1
I1
I1
I1
I1
I1
I1
I1
I1
I1
I1
I1
I1
I1
I1
I1
I1
I1
I1
I1
I1
I1
I1
I0
I0
I0
I0
I0
I0
I0
I0
I0
I0
I0
I0
I0
I0
I0
I0
I0
I0
I0
I0
I0
I0
I0
I0
I0
I0
I0
I0
I0
I0
I0
I0
I0
I0
I0
I0
I0
I0
I0
I0
I0
I0
I0
I0
I0
I0
I0
I0
I0
I0
I0
I0
I0
I0
I0
I0
I0
I0
I0
I0
I0
I0
I0
I0
I0
tp1151
g206
tp1152
g4
(g8
S'\xeb\xea4=\xc6\xdb\xc7?'
p1153
tp1154
Rp1155
s((I1
I0
I0
I0
I1
I1
I1
I1
I1
I1
I1
I1
I1
I1
I1
I1
I1
I1
I1
I1
I1
I1
I1
I1
I1
I1
I1
I1
I1
I1
I1
I0
I0
I0
I0
I0
I0
I0
I0
I0
I0
I0
I0
I0
I0
I0
I0
I0
I0
I0
I0
I0
I0
I0
I0
I0
I0
I0
I0
I0
I0
I0
I0
I0
I0
I0
I0
I0
I0
I0
I0
I0
I0
I0
I0
I0
I0
I0
I0
I0
I0
I0
I0
I0
I0
I0
I0
I0
I0
I0
I0
I0
I0
I0
I0
I0
I0
I0
I0
I0
I0
I0
I0
I0
tp1156
g206
tp1157
g4
(g8
S'}e1t\xa0c\xf2?'
p1158
tp1159
Rp1160
s((I0
I0
I0
I1
I1
I1
I1
I1
I1
I1
I1
I1
I1
I1
I1
I1
I1
I1
I1
I1
I1
I1
I1
I1
I1
I1
I1
I1
I1
I1
I1
I1
I1
I1
I1
I1
I1
I1
I1
I1
I1
I1
I1
I1
I1
I1
I1
I1
I1
I1
I1
I1
I1
I1
I1
I1
I1
I1
I1
I1
I1
I1
I1
I1
I1
I1
I1
I1
I1
I1
I1
I1
I1
I1
I1
I1
I1
I1
I1
I1
I1
I1
I1
I1
I1
I1
I1
I1
I1
I1
I1
I1
I1
I0
I0
I0
I0
I0
I0
I0
I0
I0
I0
I0
tp1161
g54
tp1162
g4
(g8
S'^\x13\xd2a\x07\xfa\xf5?'
p1163
tp1164
Rp1165
s((I1
I0
I0
I0
I1
I1
I1
I1
I1
I1
I1
I1
I1
I1
I1
I1
I1
I1
I1
I1
I1
I0
I0
I0
I0
I0
I0
I0
I0
I0
I0
I0
I0
I0
I0
I0
I0
I0
I0
I0
I0
I0
I0
I0
I0
I0
I0
I0
I0
I0
I0
I0
I0
I0
I0
I0
I0
I0
I0
I0
I0
I0
I0
I0
I0
I0
I0
I0
I0
I0
I0
I0
I0
I0
I0
I0
I0
I0
I0
I0
I0
I0
I0
I0
I0
I0
I0
I0
I0
I0
I0
I0
I0
I0
I0
I0
I0
I0
I0
I0
I0
I0
I0
I0
tp1166
g21
tp1167
g4
(g8
S'/?\xe6\xe9\x17-\xe2?'
p1168
tp1169
Rp1170
s((I0
I0
I1
I0
I1
I1
I1
I1
I1
I1
I1
I1
I1
I1
I1
I1
I1
I1
I1
I1
I1
I1
I1
I1
I1
I1
I1
I1
I1
I1
I1
I1
I1
I1
I1
I1
I1
I1
I1
I1
I1
I1
I1
I0
I0
I0
I0
I0
I0
I0
I0
I0
I0
I0
I0
I0
I0
I0
I0
I0
I0
I0
I0
I0
I0
I0
I0
I0
I0
I0
I0
I0
I0
I0
I0
I0
I0
I0
I0
I0
I0
I0
I0
I0
I0
I0
I0
I0
I0
I0
I0
I0
I0
I0
I0
I0
I0
I0
I0
I0
I0
I0
I0
I0
tp1171
g2
tp1172
g4
(g8
S'o\xe3dq2\xae\x02@'
p1173
tp1174
Rp1175
s((I0
I0
I0
I1
I1
I1
I1
I1
I1
I1
I1
I1
I1
I1
I1
I1
I1
I1
I1
I1
I1
I1
I1
I1
I1
I1
I1
I1
I1
I1
I1
I1
I1
I1
I1
I1
I1
I1
I1
I1
I1
I1
I1
I1
I1
I1
I1
I1
I1
I1
I1
I1
I1
I1
I1
I1
I1
I1
I1
I1
I1
I1
I1
I1
I0
I0
I0
I0
I0
I0
I0
I0
I0
I0
I0
I0
I0
I0
I0
I0
I0
I0
I0
I0
I0
I0
I0
I0
I0
I0
I0
I0
I0
I0
I0
I0
I0
I0
I0
I0
I0
I0
I0
I0
tp1176
g54
tp1177
g4
(g8
S'e=\xf9\xed\xbaX\x01@'
p1178
tp1179
Rp1180
s((I1
I0
I0
I0
I1
I1
I1
I1
I1
I1
I1
I1
I1
I1
I1
I1
I1
I1
I1
I0
I0
I0
I0
I0
I0
I0
I0
I0
I0
I0
I0
I0
I0
I0
I0
I0
I0
I0
I0
I0
I0
I0
I0
I0
I0
I0
I0
I0
I0
I0
I0
I0
I0
I0
I0
I0
I0
I0
I0
I0
I0
I0
I0
I0
I0
I0
I0
I0
I0
I0
I0
I0
I0
I0
I0
I0
I0
I0
I0
I0
I0
I0
I0
I0
I0
I0
I0
I0
I0
I0
I0
I0
I0
I0
I0
I0
I0
I0
I0
I0
I0
I0
I0
I0
tp1181
g206
tp1182
g4
(g8
S'\xa7]\xe7\xbd\x15\xa4\xf7?'
p1183
tp1184
Rp1185
s((I0
I0
I1
I0
I1
I1
I1
I1
I1
I1
I1
I1
I1
I1
I1
I1
I1
I1
I1
I1
I1
I1
I1
I1
I1
I1
I1
I1
I1
I1
I1
I1
I1
I1
I1
I1
I1
I1
I1
I1
I1
I1
I1
I1
I1
I1
I1
I1
I1
I1
I1
I1
I1
I1
I1
I1
I1
I1
I1
I1
I1
I1
I1
I1
I1
I1
I1
I1
I1
I1
I1
I0
I0
I0
I0
I0
I0
I0
I0
I0
I0
I0
I0
I0
I0
I0
I0
I0
I0
I0
I0
I0
I0
I0
I0
I0
I0
I0
I0
I0
I0
I0
I0
I0
tp1186
g2
tp1187
g4
(g8
S'K\x1c\xca\xedv+\x05@'
p1188
tp1189
Rp1190
s((I0
I1
I0
I0
I1
I1
I1
I1
I1
I0
I0
I0
I0
I0
I0
I0
I0
I0
I0
I0
I0
I0
I0
I0
I0
I0
I0
I0
I0
I0
I0
I0
I0
I0
I0
I0
I0
I0
I0
I0
I0
I0
I0
I0
I0
I0
I0
I0
I0
I0
I0
I0
I0
I0
I0
I0
I0
I0
I0
I0
I0
I0
I0
I0
I0
I0
I0
I0
I0
I0
I0
I0
I0
I0
I0
I0
I0
I0
I0
I0
I0
I0
I0
I0
I0
I0
I0
I0
I0
I0
I0
I0
I0
I0
I0
I0
I0
I0
I0
I0
I0
I0
I0
I0
tp1191
g48
tp1192
g4
(g8
S'\xe8 \xaa\xd7\xc7\x87\xf5?'
p1193
tp1194
Rp1195
s((I1
I0
I0
I0
I1
I1
I1
I1
I1
I1
I1
I1
I1
I0
I0
I0
I0
I0
I0
I0
I0
I0
I0
I0
I0
I0
I0
I0
I0
I0
I0
I0
I0
I0
I0
I0
I0
I0
I0
I0
I0
I0
I0
I0
I0
I0
I0
I0
I0
I0
I0
I0
I0
I0
I0
I0
I0
I0
I0
I0
I0
I0
I0
I0
I0
I0
I0
I0
I0
I0
I0
I0
I0
I0
I0
I0
I0
I0
I0
I0
I0
I0
I0
I0
I0
I0
I0
I0
I0
I0
I0
I0
I0
I0
I0
I0
I0
I0
I0
I0
I0
I0
I0
I0
tp1196
g21
tp1197
g4
(g8
S'\x02#q\x01\xf8\x0e\xe0?'
p1198
tp1199
Rp1200
s((I0
I1
I0
I0
I1
I1
I1
I1
I1
I1
I1
I1
I1
I1
I1
I1
I1
I1
I1
I1
I1
I1
I1
I1
I1
I1
I1
I1
I1
I1
I1
I1
I1
I1
I1
I1
I1
I1
I1
I1
I1
I1
I1
I1
I1
I1
I1
I1
I0
I0
I0
I0
I0
I0
I0
I0
I0
I0
I0
I0
I0
I0
I0
I0
I0
I0
I0
I0
I0
I0
I0
I0
I0
I0
I0
I0
I0
I0
I0
I0
I0
I0
I0
I0
I0
I0
I0
I0
I0
I0
I0
I0
I0
I0
I0
I0
I0
I0
I0
I0
I0
I0
I0
I0
tp1201
g48
tp1202
g4
(g8
S'\x94\xc6\x8f\xa6\x0c\xcc\xe8?'
p1203
tp1204
Rp1205
s((I0
I1
I0
I0
I1
I1
I1
I1
I1
I1
I1
I1
I1
I1
I1
I1
I1
I1
I1
I1
I1
I1
I1
I0
I0
I0
I0
I0
I0
I0
I0
I0
I0
I0
I0
I0
I0
I0
I0
I0
I0
I0
I0
I0
I0
I0
I0
I0
I0
I0
I0
I0
I0
I0
I0
I0
I0
I0
I0
I0
I0
I0
I0
I0
I0
I0
I0
I0
I0
I0
I0
I0
I0
I0
I0
I0
I0
I0
I0
I0
I0
I0
I0
I0
I0
I0
I0
I0
I0
I0
I0
I0
I0
I0
I0
I0
I0
I0
I0
I0
I0
I0
I0
I0
tp1206
g48
tp1207
g4
(g8
S'\x95\x8d\xe5\x9d\xb1G\xcf?'
p1208
tp1209
Rp1210
s((I0
I0
I1
I0
I1
I1
I1
I1
I1
I1
I1
I1
I1
I1
I1
I1
I1
I1
I1
I1
I1
I1
I1
I1
I1
I1
I1
I1
I1
I1
I1
I1
I1
I1
I1
I1
I1
I1
I1
I1
I1
I1
I1
I1
I1
I1
I1
I1
I1
I0
I0
I0
I0
I0
I0
I0
I0
I0
I0
I0
I0
I0
I0
I0
I0
I0
I0
I0
I0
I0
I0
I0
I0
I0
I0
I0
I0
I0
I0
I0
I0
I0
I0
I0
I0
I0
I0
I0
I0
I0
I0
I0
I0
I0
I0
I0
I0
I0
I0
I0
I0
I0
I0
I0
tp1211
g2
tp1212
g4
(g8
S'\x8d\x04le\x8cl\x02@'
p1213
tp1214
Rp1215
s((I0
I0
I1
I0
I1
I1
I1
I1
I1
I1
I1
I1
I1
I1
I1
I1
I1
I1
I1
I1
I1
I1
I1
I1
I1
I1
I1
I1
I1
I1
I1
I1
I1
I1
I1
I1
I1
I1
I1
I1
I1
I1
I1
I1
I1
I1
I1
I1
I1
I1
I1
I1
I1
I1
I1
I1
I1
I1
I1
I1
I1
I1
I1
I1
I1
I1
I1
I1
I1
I1
I1
I1
I1
I1
I1
I1
I1
I1
I1
I1
I1
I1
I1
I1
I1
I1
I1
I1
I1
I1
I1
I1
I1
I1
I1
I1
I1
I1
I1
I1
I0
I0
I0
I0
tp1216
g2
tp1217
g4
(g8
S'\xfc\xcb=\xaf\xed}\xa9?'
p1218
tp1219
Rp1220
s((I1
I0
I0
I0
I1
I1
I1
I1
I1
I1
I1
I1
I1
I1
I1
I1
I1
I1
I1
I1
I1
I1
I1
I1
I1
I1
I1
I1
I1
I1
I1
I1
I1
I1
I1
I0
I0
I0
I0
I0
I0
I0
I0
I0
I0
I0
I0
I0
I0
I0
I0
I0
I0
I0
I0
I0
I0
I0
I0
I0
I0
I0
I0
I0
I0
I0
I0
I0
I0
I0
I0
I0
I0
I0
I0
I0
I0
I0
I0
I0
I0
I0
I0
I0
I0
I0
I0
I0
I0
I0
I0
I0
I0
I0
I0
I0
I0
I0
I0
I0
I0
I0
I0
I0
tp1221
g21
tp1222
g4
(g8
S'\xc8\xeddxo\xa4\x01@'
p1223
tp1224
Rp1225
s((I0
I0
I1
I0
I1
I1
I1
I1
I1
I1
I1
I1
I1
I1
I1
I1
I1
I1
I1
I1
I1
I1
I1
I1
I1
I1
I1
I1
I1
I1
I1
I1
I1
I1
I1
I1
I1
I1
I1
I1
I1
I1
I1
I1
I1
I1
I1
I1
I1
I1
I1
I1
I1
I1
I1
I1
I1
I1
I1
I1
I1
I1
I1
I1
I1
I1
I1
I1
I1
I1
I1
I1
I1
I1
I1
I1
I1
I1
I1
I1
I1
I1
I1
I1
I1
I1
I1
I1
I1
I1
I1
I1
I1
I1
I1
I1
I1
I1
I1
I0
I0
I0
I0
I0
tp1226
g42
tp1227
g4
(g8
S'\x12\x98I\xbe\xb98\xe7?'
p1228
tp1229
Rp1230
s((I1
I0
I0
I0
I1
I1
I1
I1
I1
I1
I1
I1
I1
I1
I1
I1
I1
I1
I1
I1
I1
I1
I1
I1
I1
I1
I1
I1
I1
I1
I1
I1
I1
I1
I1
I1
I1
I1
I1
I1
I1
I1
I1
I1
I0
I0
I0
I0
I0
I0
I0
I0
I0
I0
I0
I0
I0
I0
I0
I0
I0
I0
I0
I0
I0
I0
I0
I0
I0
I0
I0
I0
I0
I0
I0
I0
I0
I0
I0
I0
I0
I0
I0
I0
I0
I0
I0
I0
I0
I0
I0
I0
I0
I0
I0
I0
I0
I0
I0
I0
I0
I0
I0
I0
tp1231
g206
tp1232
g4
(g8
S'h\xbeb\xa0\xde\xb7\xe8?'
p1233
tp1234
Rp1235
s((I0
I0
I0
I1
I1
I1
I1
I1
I1
I1
I1
I1
I1
I1
I1
I1
I1
I1
I1
I1
I1
I1
I1
I1
I1
I1
I1
I1
I1
I1
I1
I1
I1
I1
I1
I1
I1
I1
I0
I0
I0
I0
I0
I0
I0
I0
I0
I0
I0
I0
I0
I0
I0
I0
I0
I0
I0
I0
I0
I0
I0
I0
I0
I0
I0
I0
I0
I0
I0
I0
I0
I0
I0
I0
I0
I0
I0
I0
I0
I0
I0
I0
I0
I0
I0
I0
I0
I0
I0
I0
I0
I0
I0
I0
I0
I0
I0
I0
I0
I0
I0
I0
I0
I0
tp1236
g54
tp1237
g4
(g8
S'0\xddl\xc9\x9a\x9f\xfa?'
p1238
tp1239
Rp1240
s((I1
I0
I0
I0
I1
I1
I1
I1
I1
I1
I1
I1
I1
I1
I1
I1
I1
I1
I1
I1
I1
I1
I1
I1
I1
I1
I0
I0
I0
I0
I0
I0
I0
I0
I0
I0
I0
I0
I0
I0
I0
I0
I0
I0
I0
I0
I0
I0
I0
I0
I0
I0
I0
I0
I0
I0
I0
I0
I0
I0
I0
I0
I0
I0
I0
I0
I0
I0
I0
I0
I0
I0
I0
I0
I0
I0
I0
I0
I0
I0
I0
I0
I0
I0
I0
I0
I0
I0
I0
I0
I0
I0
I0
I0
I0
I0
I0
I0
I0
I0
I0
I0
I0
I0
tp1241
g21
tp1242
g4
(g8
S'\xa5\x85o\x91\xb8\xb8\xee?'
p1243
tp1244
Rp1245
s((I1
I0
I0
I0
I1
I1
I1
I1
I1
I1
I0
I0
I0
I0
I0
I0
I0
I0
I0
I0
I0
I0
I0
I0
I0
I0
I0
I0
I0
I0
I0
I0
I0
I0
I0
I0
I0
I0
I0
I0
I0
I0
I0
I0
I0
I0
I0
I0
I0
I0
I0
I0
I0
I0
I0
I0
I0
I0
I0
I0
I0
I0
I0
I0
I0
I0
I0
I0
I0
I0
I0
I0
I0
I0
I0
I0
I0
I0
I0
I0
I0
I0
I0
I0
I0
I0
I0
I0
I0
I0
I0
I0
I0
I0
I0
I0
I0
I0
I0
I0
I0
I0
I0
I0
tp1246
g21
tp1247
g4
(g8
S'\xa5\xa6i\xb27\x9f\xfd?'
p1248
tp1249
Rp1250
s((I0
I0
I1
I0
I1
I1
I1
I1
I1
I1
I1
I1
I1
I1
I1
I1
I1
I1
I1
I1
I1
I1
I1
I1
I1
I1
I0
I0
I0
I0
I0
I0
I0
I0
I0
I0
I0
I0
I0
I0
I0
I0
I0
I0
I0
I0
I0
I0
I0
I0
I0
I0
I0
I0
I0
I0
I0
I0
I0
I0
I0
I0
I0
I0
I0
I0
I0
I0
I0
I0
I0
I0
I0
I0
I0
I0
I0
I0
I0
I0
I0
I0
I0
I0
I0
I0
I0
I0
I0
I0
I0
I0
I0
I0
I0
I0
I0
I0
I0
I0
I0
I0
I0
I0
tp1251
g42
tp1252
g4
(g8
S'~\x9f\x0f\xe7!\x8c\xf9?'
p1253
tp1254
Rp1255
s((I0
I0
I0
I1
I1
I1
I1
I1
I1
I1
I1
I1
I1
I1
I1
I1
I1
I1
I1
I1
I1
I1
I1
I1
I1
I1
I1
I1
I1
I1
I1
I1
I1
I1
I1
I1
I1
I1
I1
I1
I1
I1
I1
I1
I1
I1
I1
I1
I1
I1
I1
I1
I1
I1
I1
I1
I1
I0
I0
I0
I0
I0
I0
I0
I0
I0
I0
I0
I0
I0
I0
I0
I0
I0
I0
I0
I0
I0
I0
I0
I0
I0
I0
I0
I0
I0
I0
I0
I0
I0
I0
I0
I0
I0
I0
I0
I0
I0
I0
I0
I0
I0
I0
I0
tp1256
g54
tp1257
g4
(g8
S'[ey\x9d\xacF\x00@'
p1258
tp1259
Rp1260
s((I0
I0
I0
I1
I1
I1
I1
I1
I1
I1
I1
I1
I1
I1
I1
I1
I1
I1
I1
I1
I1
I1
I1
I1
I1
I1
I1
I1
I1
I1
I1
I1
I1
I1
I1
I1
I0
I0
I0
I0
I0
I0
I0
I0
I0
I0
I0
I0
I0
I0
I0
I0
I0
I0
I0
I0
I0
I0
I0
I0
I0
I0
I0
I0
I0
I0
I0
I0
I0
I0
I0
I0
I0
I0
I0
I0
I0
I0
I0
I0
I0
I0
I0
I0
I0
I0
I0
I0
I0
I0
I0
I0
I0
I0
I0
I0
I0
I0
I0
I0
I0
I0
I0
I0
tp1261
g54
tp1262
g4
(g8
S'\xc3\x12\x86l\xcf\xcb\xfd?'
p1263
tp1264
Rp1265
s((I0
I0
I1
I0
I1
I1
I1
I1
I1
I1
I1
I1
I1
I1
I1
I1
I1
I1
I1
I1
I1
I1
I1
I1
I1
I1
I1
I1
I1
I1
I1
I1
I1
I1
I1
I1
I1
I1
I1
I1
I1
I1
I1
I1
I1
I1
I1
I1
I1
I1
I1
I1
I1
I1
I0
I0
I0
I0
I0
I0
I0
I0
I0
I0
I0
I0
I0
I0
I0
I0
I0
I0
I0
I0
I0
I0
I0
I0
I0
I0
I0
I0
I0
I0
I0
I0
I0
I0
I0
I0
I0
I0
I0
I0
I0
I0
I0
I0
I0
I0
I0
I0
I0
I0
tp1266
g42
tp1267
g4
(g8
S'\xf2\x883\xea\xc2{\x01@'
p1268
tp1269
Rp1270
s((I0
I0
I0
I1
I1
I1
I1
I1
I1
I1
I1
I1
I1
I1
I1
I1
I1
I1
I1
I0
I0
I0
I0
I0
I0
I0
I0
I0
I0
I0
I0
I0
I0
I0
I0
I0
I0
I0
I0
I0
I0
I0
I0
I0
I0
I0
I0
I0
I0
I0
I0
I0
I0
I0
I0
I0
I0
I0
I0
I0
I0
I0
I0
I0
I0
I0
I0
I0
I0
I0
I0
I0
I0
I0
I0
I0
I0
I0
I0
I0
I0
I0
I0
I0
I0
I0
I0
I0
I0
I0
I0
I0
I0
I0
I0
I0
I0
I0
I0
I0
I0
I0
I0
I0
tp1271
g54
tp1272
g4
(g8
S'\x01\xd8 h\xac\x1a\xf3?'
p1273
tp1274
Rp1275
s((I0
I0
I1
I0
I1
I1
I1
I1
I1
I1
I1
I1
I1
I1
I1
I1
I1
I1
I1
I1
I1
I1
I1
I1
I1
I1
I1
I1
I1
I1
I1
I1
I1
I1
I1
I1
I1
I1
I1
I1
I1
I1
I1
I1
I1
I1
I1
I1
I1
I1
I1
I1
I1
I1
I1
I1
I1
I1
I1
I1
I1
I1
I1
I1
I0
I0
I0
I0
I0
I0
I0
I0
I0
I0
I0
I0
I0
I0
I0
I0
I0
I0
I0
I0
I0
I0
I0
I0
I0
I0
I0
I0
I0
I0
I0
I0
I0
I0
I0
I0
I0
I0
I0
I0
tp1276
g2
tp1277
g4
(g8
S'"\xe7\xf9\x9c\xc0\xab\xff?'
p1278
tp1279
Rp1280
s((I1
I0
I0
I0
I1
I1
I1
I1
I1
I1
I1
I1
I1
I1
I1
I1
I1
I1
I1
I1
I1
I1
I1
I0
I0
I0
I0
I0
I0
I0
I0
I0
I0
I0
I0
I0
I0
I0
I0
I0
I0
I0
I0
I0
I0
I0
I0
I0
I0
I0
I0
I0
I0
I0
I0
I0
I0
I0
I0
I0
I0
I0
I0
I0
I0
I0
I0
I0
I0
I0
I0
I0
I0
I0
I0
I0
I0
I0
I0
I0
I0
I0
I0
I0
I0
I0
I0
I0
I0
I0
I0
I0
I0
I0
I0
I0
I0
I0
I0
I0
I0
I0
I0
I0
tp1281
g21
tp1282
g4
(g8
S'W\xbb\x04\x19R\x1b\xf8?'
p1283
tp1284
Rp1285
s((I0
I0
I0
I1
I1
I1
I1
I1
I1
I1
I1
I1
I1
I1
I1
I1
I1
I1
I1
I1
I1
I1
I1
I1
I1
I1
I1
I1
I1
I1
I1
I1
I1
I1
I1
I1
I1
I1
I1
I1
I1
I1
I1
I1
I1
I1
I1
I1
I1
I1
I1
I1
I1
I1
I1
I1
I1
I1
I1
I1
I1
I1
I1
I1
I1
I1
I1
I1
I1
I1
I1
I1
I1
I0
I0
I0
I0
I0
I0
I0
I0
I0
I0
I0
I0
I0
I0
I0
I0
I0
I0
I0
I0
I0
I0
I0
I0
I0
I0
I0
I0
I0
I0
I0
tp1286
g54
tp1287
g4
(g8
S'\x14vRH\xa3f\x01@'
p1288
tp1289
Rp1290
s((I1
I0
I0
I0
I1
I1
I1
I1
I1
I1
I1
I1
I1
I1
I1
I1
I1
I1
I1
I0
I0
I0
I0
I0
I0
I0
I0
I0
I0
I0
I0
I0
I0
I0
I0
I0
I0
I0
I0
I0
I0
I0
I0
I0
I0
I0
I0
I0
I0
I0
I0
I0
I0
I0
I0
I0
I0
I0
I0
I0
I0
I0
I0
I0
I0
I0
I0
I0
I0
I0
I0
I0
I0
I0
I0
I0
I0
I0
I0
I0
I0
I0
I0
I0
I0
I0
I0
I0
I0
I0
I0
I0
I0
I0
I0
I0
I0
I0
I0
I0
I0
I0
I0
I0
tp1291
g155
tp1292
g4
(g8
S'FA\r\xa3ck\xdc?'
p1293
tp1294
Rp1295
s((I0
I0
I1
I0
I1
I1
I1
I1
I1
I1
I1
I1
I1
I1
I1
I0
I0
I0
I0
I0
I0
I0
I0
I0
I0
I0
I0
I0
I0
I0
I0
I0
I0
I0
I0
I0
I0
I0
I0
I0
I0
I0
I0
I0
I0
I0
I0
I0
I0
I0
I0
I0
I0
I0
I0
I0
I0
I0
I0
I0
I0
I0
I0
I0
I0
I0
I0
I0
I0
I0
I0
I0
I0
I0
I0
I0
I0
I0
I0
I0
I0
I0
I0
I0
I0
I0
I0
I0
I0
I0
I0
I0
I0
I0
I0
I0
I0
I0
I0
I0
I0
I0
I0
I0
tp1296
g42
tp1297
g4
(g8
S'i\xd4\xdf\xbf9\x9d\xf5?'
p1298
tp1299
Rp1300
s((I0
I0
I1
I0
I1
I1
I1
I1
I1
I1
I1
I1
I1
I1
I1
I1
I1
I1
I1
I0
I0
I0
I0
I0
I0
I0
I0
I0
I0
I0
I0
I0
I0
I0
I0
I0
I0
I0
I0
I0
I0
I0
I0
I0
I0
I0
I0
I0
I0
I0
I0
I0
I0
I0
I0
I0
I0
I0
I0
I0
I0
I0
I0
I0
I0
I0
I0
I0
I0
I0
I0
I0
I0
I0
I0
I0
I0
I0
I0
I0
I0
I0
I0
I0
I0
I0
I0
I0
I0
I0
I0
I0
I0
I0
I0
I0
I0
I0
I0
I0
I0
I0
I0
I0
tp1301
g42
tp1302
g4
(g8
S'\x02 LGq\xa4\xf6?'
p1303
tp1304
Rp1305
s((I0
I0
I1
I0
I1
I1
I1
I1
I1
I1
I1
I1
I1
I1
I1
I1
I1
I1
I1
I1
I1
I1
I1
I1
I1
I1
I1
I1
I1
I1
I1
I1
I1
I1
I1
I1
I1
I1
I0
I0
I0
I0
I0
I0
I0
I0
I0
I0
I0
I0
I0
I0
I0
I0
I0
I0
I0
I0
I0
I0
I0
I0
I0
I0
I0
I0
I0
I0
I0
I0
I0
I0
I0
I0
I0
I0
I0
I0
I0
I0
I0
I0
I0
I0
I0
I0
I0
I0
I0
I0
I0
I0
I0
I0
I0
I0
I0
I0
I0
I0
I0
I0
I0
I0
tp1306
g2
tp1307
g4
(g8
S'C\x905\xf0\xa8\xab\x02@'
p1308
tp1309
Rp1310
s((I0
I1
I0
I0
I1
I1
I1
I1
I1
I1
I1
I1
I1
I1
I1
I1
I1
I1
I1
I1
I1
I1
I1
I1
I1
I1
I1
I1
I1
I1
I1
I1
I1
I1
I1
I1
I1
I1
I1
I0
I0
I0
I0
I0
I0
I0
I0
I0
I0
I0
I0
I0
I0
I0
I0
I0
I0
I0
I0
I0
I0
I0
I0
I0
I0
I0
I0
I0
I0
I0
I0
I0
I0
I0
I0
I0
I0
I0
I0
I0
I0
I0
I0
I0
I0
I0
I0
I0
I0
I0
I0
I0
I0
I0
I0
I0
I0
I0
I0
I0
I0
I0
I0
I0
tp1311
g15
tp1312
g4
(g8
S'eMn\x9c\x0c\xa5\xe4?'
p1313
tp1314
Rp1315
s((I0
I1
I0
I0
I1
I1
I1
I1
I1
I1
I1
I1
I1
I1
I1
I1
I1
I1
I1
I1
I1
I1
I1
I1
I0
I0
I0
I0
I0
I0
I0
I0
I0
I0
I0
I0
I0
I0
I0
I0
I0
I0
I0
I0
I0
I0
I0
I0
I0
I0
I0
I0
I0
I0
I0
I0
I0
I0
I0
I0
I0
I0
I0
I0
I0
I0
I0
I0
I0
I0
I0
I0
I0
I0
I0
I0
I0
I0
I0
I0
I0
I0
I0
I0
I0
I0
I0
I0
I0
I0
I0
I0
I0
I0
I0
I0
I0
I0
I0
I0
I0
I0
I0
I0
tp1316
g48
tp1317
g4
(g8
S'I\xa9M\x0c\x91\x8e\xca?'
p1318
tp1319
Rp1320
s((I0
I0
I0
I1
I1
I1
I1
I1
I1
I1
I1
I1
I1
I1
I1
I1
I1
I1
I0
I0
I0
I0
I0
I0
I0
I0
I0
I0
I0
I0
I0
I0
I0
I0
I0
I0
I0
I0
I0
I0
I0
I0
I0
I0
I0
I0
I0
I0
I0
I0
I0
I0
I0
I0
I0
I0
I0
I0
I0
I0
I0
I0
I0
I0
I0
I0
I0
I0
I0
I0
I0
I0
I0
I0
I0
I0
I0
I0
I0
I0
I0
I0
I0
I0
I0
I0
I0
I0
I0
I0
I0
I0
I0
I0
I0
I0
I0
I0
I0
I0
I0
I0
I0
I0
tp1321
g54
tp1322
g4
(g8
S'\xeb\x04a\xad\x95t\xf6?'
p1323
tp1324
Rp1325
s((I0
I0
I1
I0
I1
I1
I1
I1
I1
I1
I1
I1
I1
I1
I1
I1
I1
I1
I1
I1
I0
I0
I0
I0
I0
I0
I0
I0
I0
I0
I0
I0
I0
I0
I0
I0
I0
I0
I0
I0
I0
I0
I0
I0
I0
I0
I0
I0
I0
I0
I0
I0
I0
I0
I0
I0
I0
I0
I0
I0
I0
I0
I0
I0
I0
I0
I0
I0
I0
I0
I0
I0
I0
I0
I0
I0
I0
I0
I0
I0
I0
I0
I0
I0
I0
I0
I0
I0
I0
I0
I0
I0
I0
I0
I0
I0
I0
I0
I0
I0
I0
I0
I0
I0
tp1326
g42
tp1327
g4
(g8
S'\xb3"ZQ\'\x1e\xf8?'
p1328
tp1329
Rp1330
s((I1
I0
I0
I0
I1
I1
I1
I1
I1
I1
I1
I1
I1
I1
I1
I1
I1
I1
I0
I0
I0
I0
I0
I0
I0
I0
I0
I0
I0
I0
I0
I0
I0
I0
I0
I0
I0
I0
I0
I0
I0
I0
I0
I0
I0
I0
I0
I0
I0
I0
I0
I0
I0
I0
I0
I0
I0
I0
I0
I0
I0
I0
I0
I0
I0
I0
I0
I0
I0
I0
I0
I0
I0
I0
I0
I0
I0
I0
I0
I0
I0
I0
I0
I0
I0
I0
I0
I0
I0
I0
I0
I0
I0
I0
I0
I0
I0
I0
I0
I0
I0
I0
I0
I0
tp1331
g206
tp1332
g4
(g8
S'\xc5\xe3\xd5\xa5\xe2M\xf0?'
p1333
tp1334
Rp1335
s((I0
I0
I0
I1
I1
I1
I1
I1
I1
I1
I1
I1
I1
I1
I1
I1
I1
I1
I1
I1
I1
I1
I1
I1
I1
I1
I1
I1
I1
I1
I1
I1
I1
I1
I1
I1
I1
I1
I1
I1
I1
I1
I1
I1
I1
I1
I1
I1
I1
I1
I1
I1
I1
I1
I1
I1
I1
I1
I1
I1
I1
I1
I1
I1
I1
I1
I1
I1
I1
I1
I1
I1
I1
I1
I1
I1
I1
I1
I1
I1
I1
I1
I1
I1
I0
I0
I0
I0
I0
I0
I0
I0
I0
I0
I0
I0
I0
I0
I0
I0
I0
I0
I0
I0
tp1336
g54
tp1337
g4
(g8
S'\x80\x1e\xdfA\x9b\xcf\xf9?'
p1338
tp1339
Rp1340
s((I0
I0
I1
I0
I1
I1
I1
I1
I1
I1
I1
I1
I1
I1
I1
I1
I1
I1
I1
I1
I1
I1
I1
I1
I1
I1
I1
I1
I1
I1
I1
I1
I1
I1
I1
I1
I1
I1
I1
I1
I1
I1
I1
I1
I1
I1
I1
I1
I1
I1
I0
I0
I0
I0
I0
I0
I0
I0
I0
I0
I0
I0
I0
I0
I0
I0
I0
I0
I0
I0
I0
I0
I0
I0
I0
I0
I0
I0
I0
I0
I0
I0
I0
I0
I0
I0
I0
I0
I0
I0
I0
I0
I0
I0
I0
I0
I0
I0
I0
I0
I0
I0
I0
I0
tp1341
g42
tp1342
g4
(g8
S'\x07t\x99\x08\xdb\x0f\x01@'
p1343
tp1344
Rp1345
s((I0
I1
I0
I0
I1
I1
I1
I1
I1
I1
I1
I1
I1
I1
I1
I1
I1
I1
I1
I1
I1
I1
I1
I1
I1
I1
I1
I1
I1
I1
I1
I1
I1
I1
I1
I1
I1
I1
I1
I1
I1
I1
I1
I1
I1
I1
I1
I1
I1
I1
I1
I1
I0
I0
I0
I0
I0
I0
I0
I0
I0
I0
I0
I0
I0
I0
I0
I0
I0
I0
I0
I0
I0
I0
I0
I0
I0
I0
I0
I0
I0
I0
I0
I0
I0
I0
I0
I0
I0
I0
I0
I0
I0
I0
I0
I0
I0
I0
I0
I0
I0
I0
I0
I0
tp1346
g48
tp1347
g4
(g8
S'\xf3q7\x92\xb9\xe6\xe8?'
p1348
tp1349
Rp1350
s((I0
I0
I0
I1
I1
I1
I1
I1
I1
I1
I1
I1
I1
I1
I1
I1
I1
I1
I1
I1
I1
I1
I1
I1
I1
I1
I1
I1
I1
I1
I1
I1
I1
I1
I1
I1
I1
I1
I1
I1
I1
I1
I1
I1
I1
I1
I1
I1
I1
I0
I0
I0
I0
I0
I0
I0
I0
I0
I0
I0
I0
I0
I0
I0
I0
I0
I0
I0
I0
I0
I0
I0
I0
I0
I0
I0
I0
I0
I0
I0
I0
I0
I0
I0
I0
I0
I0
I0
I0
I0
I0
I0
I0
I0
I0
I0
I0
I0
I0
I0
I0
I0
I0
I0
tp1351
g54
tp1352
g4
(g8
S'E+G\xe0\x81w\xff?'
p1353
tp1354
Rp1355
s((I0
I1
I0
I0
I1
I1
I1
I1
I1
I1
I1
I1
I1
I1
I1
I1
I0
I0
I0
I0
I0
I0
I0
I0
I0
I0
I0
I0
I0
I0
I0
I0
I0
I0
I0
I0
I0
I0
I0
I0
I0
I0
I0
I0
I0
I0
I0
I0
I0
I0
I0
I0
I0
I0
I0
I0
I0
I0
I0
I0
I0
I0
I0
I0
I0
I0
I0
I0
I0
I0
I0
I0
I0
I0
I0
I0
I0
I0
I0
I0
I0
I0
I0
I0
I0
I0
I0
I0
I0
I0
I0
I0
I0
I0
I0
I0
I0
I0
I0
I0
I0
I0
I0
I0
tp1356
g15
tp1357
g4
(g8
S'\xb2\xfa\xed\xb2d\x10\xd3?'
p1358
tp1359
Rp1360
s((I0
I1
I0
I0
I1
I1
I1
I1
I1
I1
I1
I1
I1
I1
I1
I1
I1
I1
I1
I1
I1
I1
I1
I1
I1
I1
I1
I1
I1
I1
I1
I1
I1
I1
I1
I1
I1
I1
I1
I1
I1
I1
I1
I1
I1
I1
I1
I1
I0
I0
I0
I0
I0
I0
I0
I0
I0
I0
I0
I0
I0
I0
I0
I0
I0
I0
I0
I0
I0
I0
I0
I0
I0
I0
I0
I0
I0
I0
I0
I0
I0
I0
I0
I0
I0
I0
I0
I0
I0
I0
I0
I0
I0
I0
I0
I0
I0
I0
I0
I0
I0
I0
I0
I0
tp1361
g15
tp1362
g4
(g8
S'\xf5T(\x93V,\xd8?'
p1363
tp1364
Rp1365
s((I0
I0
I0
I1
I1
I1
I1
I1
I1
I1
I1
I1
I1
I1
I1
I1
I1
I1
I1
I1
I1
I1
I1
I1
I1
I1
I1
I1
I1
I1
I1
I1
I1
I1
I1
I1
I1
I1
I1
I1
I1
I1
I1
I1
I1
I1
I1
I1
I1
I1
I1
I1
I1
I1
I1
I1
I1
I1
I1
I1
I1
I1
I1
I1
I1
I1
I1
I1
I1
I1
I1
I1
I1
I1
I1
I1
I1
I1
I1
I1
I1
I1
I1
I0
I0
I0
I0
I0
I0
I0
I0
I0
I0
I0
I0
I0
I0
I0
I0
I0
I0
I0
I0
I0
tp1366
g54
tp1367
g4
(g8
S"w'2\xb4Pe\xfa?"
p1368
tp1369
Rp1370
s((I1
I0
I0
I0
I1
I1
I1
I1
I1
I1
I1
I1
I1
I1
I1
I1
I0
I0
I0
I0
I0
I0
I0
I0
I0
I0
I0
I0
I0
I0
I0
I0
I0
I0
I0
I0
I0
I0
I0
I0
I0
I0
I0
I0
I0
I0
I0
I0
I0
I0
I0
I0
I0
I0
I0
I0
I0
I0
I0
I0
I0
I0
I0
I0
I0
I0
I0
I0
I0
I0
I0
I0
I0
I0
I0
I0
I0
I0
I0
I0
I0
I0
I0
I0
I0
I0
I0
I0
I0
I0
I0
I0
I0
I0
I0
I0
I0
I0
I0
I0
I0
I0
I0
I0
tp1371
g155
tp1372
g4
(g8
S'\xe7\xa2\x9e\xfd\xa0\xfc\xd8?'
p1373
tp1374
Rp1375
s((I0
I0
I1
I0
I1
I1
I1
I1
I1
I1
I1
I1
I1
I1
I1
I1
I1
I1
I1
I1
I1
I1
I1
I1
I1
I1
I1
I1
I1
I1
I1
I1
I1
I1
I1
I0
I0
I0
I0
I0
I0
I0
I0
I0
I0
I0
I0
I0
I0
I0
I0
I0
I0
I0
I0
I0
I0
I0
I0
I0
I0
I0
I0
I0
I0
I0
I0
I0
I0
I0
I0
I0
I0
I0
I0
I0
I0
I0
I0
I0
I0
I0
I0
I0
I0
I0
I0
I0
I0
I0
I0
I0
I0
I0
I0
I0
I0
I0
I0
I0
I0
I0
I0
I0
tp1376
g2
tp1377
g4
(g8
S'\x05\x05\xfd\x17\x17\xcc\xd0?'
p1378
tp1379
Rp1380
s((I0
I0
I1
I0
I1
I1
I1
I1
I1
I1
I1
I1
I1
I1
I1
I1
I1
I1
I1
I1
I1
I1
I1
I1
I1
I1
I1
I1
I1
I1
I1
I1
I1
I1
I1
I1
I1
I1
I1
I1
I1
I1
I1
I1
I1
I1
I1
I0
I0
I0
I0
I0
I0
I0
I0
I0
I0
I0
I0
I0
I0
I0
I0
I0
I0
I0
I0
I0
I0
I0
I0
I0
I0
I0
I0
I0
I0
I0
I0
I0
I0
I0
I0
I0
I0
I0
I0
I0
I0
I0
I0
I0
I0
I0
I0
I0
I0
I0
I0
I0
I0
I0
I0
I0
tp1381
g2
tp1382
g4
(g8
S'\t\x03\xe5\x90\x0bk\x02@'
p1383
tp1384
Rp1385
s((I0
I0
I1
I0
I1
I1
I1
I1
I1
I1
I1
I1
I1
I1
I1
I1
I1
I1
I1
I1
I1
I1
I1
I1
I1
I1
I1
I1
I1
I0
I0
I0
I0
I0
I0
I0
I0
I0
I0
I0
I0
I0
I0
I0
I0
I0
I0
I0
I0
I0
I0
I0
I0
I0
I0
I0
I0
I0
I0
I0
I0
I0
I0
I0
I0
I0
I0
I0
I0
I0
I0
I0
I0
I0
I0
I0
I0
I0
I0
I0
I0
I0
I0
I0
I0
I0
I0
I0
I0
I0
I0
I0
I0
I0
I0
I0
I0
I0
I0
I0
I0
I0
I0
I0
tp1386
g42
tp1387
g4
(g8
S'\xd03\xb8\x88\xf3\xfb\xf9?'
p1388
tp1389
Rp1390
s((I0
I0
I1
I0
I1
I1
I1
I1
I1
I1
I1
I1
I1
I0
I0
I0
I0
I0
I0
I0
I0
I0
I0
I0
I0
I0
I0
I0
I0
I0
I0
I0
I0
I0
I0
I0
I0
I0
I0
I0
I0
I0
I0
I0
I0
I0
I0
I0
I0
I0
I0
I0
I0
I0
I0
I0
I0
I0
I0
I0
I0
I0
I0
I0
I0
I0
I0
I0
I0
I0
I0
I0
I0
I0
I0
I0
I0
I0
I0
I0
I0
I0
I0
I0
I0
I0
I0
I0
I0
I0
I0
I0
I0
I0
I0
I0
I0
I0
I0
I0
I0
I0
I0
I0
tp1391
g2
tp1392
g4
(g8
S'GV/\x11\xf89\xee?'
p1393
tp1394
Rp1395
s((I1
I0
I0
I0
I1
I1
I1
I1
I1
I1
I1
I1
I1
I1
I1
I1
I1
I1
I1
I1
I1
I1
I1
I1
I1
I1
I1
I1
I1
I1
I1
I0
I0
I0
I0
I0
I0
I0
I0
I0
I0
I0
I0
I0
I0
I0
I0
I0
I0
I0
I0
I0
I0
I0
I0
I0
I0
I0
I0
I0
I0
I0
I0
I0
I0
I0
I0
I0
I0
I0
I0
I0
I0
I0
I0
I0
I0
I0
I0
I0
I0
I0
I0
I0
I0
I0
I0
I0
I0
I0
I0
I0
I0
I0
I0
I0
I0
I0
I0
I0
I0
I0
I0
I0
tp1396
g21
tp1397
g4
(g8
S'\x9em\xdf\x10\xe0\x10\xf1?'
p1398
tp1399
Rp1400
s((I0
I0
I1
I0
I1
I1
I1
I1
I1
I1
I1
I1
I1
I1
I1
I1
I1
I1
I1
I1
I1
I1
I1
I1
I1
I1
I1
I1
I1
I1
I1
I1
I1
I1
I1
I0
I0
I0
I0
I0
I0
I0
I0
I0
I0
I0
I0
I0
I0
I0
I0
I0
I0
I0
I0
I0
I0
I0
I0
I0
I0
I0
I0
I0
I0
I0
I0
I0
I0
I0
I0
I0
I0
I0
I0
I0
I0
I0
I0
I0
I0
I0
I0
I0
I0
I0
I0
I0
I0
I0
I0
I0
I0
I0
I0
I0
I0
I0
I0
I0
I0
I0
I0
I0
tp1401
g42
tp1402
g4
(g8
S'\x9fH\x05\x00\xc5R\xfa?'
p1403
tp1404
Rp1405
s.